Archive member included to satisfy reference by file (symbol)

../kernel/lib/CPU_B\libGCC_kernel.a(GCC_VCU_Start_Asm.o)
                              (_startup)
../kernel/lib/CPU_B\libGCC_kernel.a(GCC_mstep.o)
                              ./out/CPU_B/GCC_guest.o (MSTEP_F_TftpServiceSubscribe)
../kernel/lib/CPU_B\libGCC_kernel.a(GCC_BIT_fuse.o)
                              ../kernel/lib/CPU_B\libGCC_kernel.a(GCC_mstep.o) (BIT_F_SafetyFlagBreak)
../kernel/lib/CPU_B\libGCC_kernel.a(GCC_BIT_survey.o)
                              ../kernel/lib/CPU_B\libGCC_kernel.a(GCC_mstep.o) (BIT_F_GetParameters)
../kernel/lib/CPU_B\libGCC_kernel.a(GCC_can.o)
                              ../kernel/lib/CPU_B\libGCC_kernel.a(GCC_mstep.o) (CAN_F_CanBusActiveChannelGet)
../kernel/lib/CPU_B\libGCC_kernel.a(GCC_can_ard.o)
                              ../kernel/lib/CPU_B\libGCC_kernel.a(GCC_can.o) (CAN_ARD_F_FirstFrameMemblockGet)
../kernel/lib/CPU_B\libGCC_kernel.a(GCC_can_config.o)
                              ../kernel/lib/CPU_B\libGCC_kernel.a(GCC_can.o) (CAN_CONF_F_GetFlashingPeriod)
../kernel/lib/CPU_B\libGCC_kernel.a(GCC_can_emcy.o)
                              ../kernel/lib/CPU_B\libGCC_kernel.a(GCC_can.o) (CAN_EMCY_F_EmcyReceive)
../kernel/lib/CPU_B\libGCC_kernel.a(GCC_can_od.o)
                              ../kernel/lib/CPU_B\libGCC_kernel.a(GCC_can.o) (CAN_F_ODVersionGet)
../kernel/lib/CPU_B\libGCC_kernel.a(GCC_can_odplug.o)
                              ../kernel/lib/CPU_B\libGCC_kernel.a(GCC_can_od.o) (CAN_ODPLUG_F_CheckFilter)
../kernel/lib/CPU_B\libGCC_kernel.a(GCC_can_open.o)
                              ../kernel/lib/CPU_B\libGCC_kernel.a(GCC_can_od.o) (CAN_OPEN_V_ODVersion)
../kernel/lib/CPU_B\libGCC_kernel.a(GCC_can_saddle.o)
                              ../kernel/lib/CPU_B\libGCC_kernel.a(GCC_can_ard.o) (CAN_SADDLE_F_StoreRecvFrame)
../kernel/lib/CPU_B\libGCC_kernel.a(GCC_can_safety.o)
                              ../kernel/lib/CPU_B\libGCC_kernel.a(GCC_can.o) (CAN_F_SafetyConfigure)
../kernel/lib/CPU_B\libGCC_kernel.a(GCC_can_sdo.o)
                              ../kernel/lib/CPU_B\libGCC_kernel.a(GCC_can_od.o) (CAN_SDO_F_ConvertErrorCode)
../kernel/lib/CPU_B\libGCC_kernel.a(GCC_can_time.o)
                              ../kernel/lib/CPU_B\libGCC_kernel.a(GCC_mstep.o) (CAN_F_TimeCanOpenGet)
../kernel/lib/CPU_B\libGCC_kernel.a(GCC_CONF.o)
                              ../kernel/lib/CPU_B\libGCC_kernel.a(GCC_can_config.o) (CONF_F_ValidationFuncSubscribe)
../kernel/lib/CPU_B\libGCC_kernel.a(GCC_CONF_local.o)
                              ../kernel/lib/CPU_B\libGCC_kernel.a(GCC_mstep.o) (CONF_F_GetDataVersion)
../kernel/lib/CPU_B\libGCC_kernel.a(GCC_CONF_src.o)
                              ../kernel/lib/CPU_B\libGCC_kernel.a(GCC_CONF_local.o) (Drv_BID_F_SourceInstanceGet)
../kernel/lib/CPU_B\libGCC_kernel.a(GCC_FCODE.o)
                              ../kernel/lib/CPU_B\libGCC_kernel.a(GCC_CONF.o) (FCODE_F_FailureCodeClear)
../kernel/lib/CPU_B\libGCC_kernel.a(GCC_FILESYS.o)
                              ../kernel/lib/CPU_B\libGCC_kernel.a(GCC_CONF_local.o) (FILESYS_F_MemoryAreaInit)
../kernel/lib/CPU_B\libGCC_kernel.a(GCC_FILESYS_int.o)
                              ../kernel/lib/CPU_B\libGCC_kernel.a(GCC_FILESYS.o) (FILESYS_INT_SRC_V_CopySourceDesc)
../kernel/lib/CPU_B\libGCC_kernel.a(GCC_FILESYS_tftp.o)
                              ../kernel/lib/CPU_B\libGCC_kernel.a(GCC_FILESYS.o) (FILESYS_TFTP_V_bModuleDatasetRetrivalAllowed)
../kernel/lib/CPU_B\libGCC_kernel.a(GCC_Flash.o)
                              ../kernel/lib/CPU_B\libGCC_kernel.a(GCC_BIT_fuse.o) (FLASH_F_EraseDirect)
../kernel/lib/CPU_B\libGCC_kernel.a(GCC_Flash_Async.o)
                              ../kernel/lib/CPU_B\libGCC_kernel.a(GCC_Flash.o) (FLASH_ASYNC_F_Init)
../kernel/lib/CPU_B\libGCC_kernel.a(GCC_Flash_Direct.o)
                              ../kernel/lib/CPU_B\libGCC_kernel.a(GCC_Flash_Async.o) (FLASH_DRV_F_InitActionCtx)
../kernel/lib/CPU_B\libGCC_kernel.a(GCC_gdf.o)
                              ../kernel/lib/CPU_B\libGCC_kernel.a(GCC_BIT_fuse.o) (GDF_F_FusesWrite)
../kernel/lib/CPU_B\libGCC_kernel.a(GCC_gdf_dump_tools.o)
                              ../kernel/lib/CPU_B\libGCC_kernel.a(GCC_gdf.o) (GDF_DUMP_TOOLS_F_MemorizeModeBeforeGdf)
../kernel/lib/CPU_B\libGCC_kernel.a(GCC_MATH.o)
                              ../kernel/lib/CPU_B\libGCC_kernel.a(GCC_mstep.o) (MATH_F_ComputeCRC32CCITT)
../kernel/lib/CPU_B\libGCC_kernel.a(GCC_osw.o)
                              ../kernel/lib/CPU_B\libGCC_kernel.a(GCC_can.o) (OSW_F_MemCreate)
../kernel/lib/CPU_B\libGCC_kernel.a(GCC_print.o)
                              ../kernel/lib/CPU_B\libGCC_kernel.a(GCC_gdf.o) (PRINT_F_PrintfAuth)
../kernel/lib/CPU_B\libGCC_kernel.a(GCC_RECORD.o)
                              ../kernel/lib/CPU_B\libGCC_kernel.a(GCC_CONF_local.o) (RECORD_F_CheckIntegrity)
../kernel/lib/CPU_B\libGCC_kernel.a(GCC_RECORD_evt.o)
                              ../kernel/lib/CPU_B\libGCC_kernel.a(GCC_RECORD.o) (RECORD_EVT_F_IsBackupNeeded)
../kernel/lib/CPU_B\libGCC_kernel.a(GCC_RECORD_pda.o)
                              ../kernel/lib/CPU_B\libGCC_kernel.a(GCC_mstep.o) (RECORD_F_AskFlush)
../kernel/lib/CPU_B\libGCC_kernel.a(GCC_RECORD_sector.o)
                              ../kernel/lib/CPU_B\libGCC_kernel.a(GCC_RECORD_pda.o) (RECORD_SECTOR_F_RunReadSector)
../kernel/lib/CPU_B\libGCC_kernel.a(GCC_RECORD_stat.o)
                              ../kernel/lib/CPU_B\libGCC_kernel.a(GCC_can_ard.o) (RECORD_STAT_F_CreatePareto)
../kernel/lib/CPU_B\libGCC_kernel.a(GCC_RECORD_utl.o)
                              ../kernel/lib/CPU_B\libGCC_kernel.a(GCC_RECORD_evt.o) (RECORD_UTL_F_StChIsFinished)
../kernel/lib/CPU_B\libGCC_kernel.a(GCC_Schedule.o)
                              ../kernel/lib/CPU_B\libGCC_kernel.a(GCC_mstep.o) (SCHED_F_CommonTimeGet)
../kernel/lib/CPU_B\libGCC_kernel.a(GCC_Schedule_gta.o)
                              ../kernel/lib/CPU_B\libGCC_kernel.a(GCC_Schedule.o) (SCHED_GTA_F_Init)
../kernel/lib/CPU_B\libGCC_kernel.a(GCC_Schedule_launcher.o)
                              ../kernel/lib/CPU_B\libGCC_kernel.a(GCC_Schedule.o) (SCHED_LAUNCHER_F_BootFailedDisableUnusedTasks)
../kernel/lib/CPU_B\libGCC_kernel.a(GCC_Schedule_utl.o)
                              ../kernel/lib/CPU_B\libGCC_kernel.a(GCC_BIT_fuse.o) (SCHED_F_BootFuseState)
../kernel/lib/CPU_B\libGCC_kernel.a(GCC_VCU_Start.o)
                              ../kernel/lib/CPU_B\libGCC_kernel.a(GCC_VCU_Start_Asm.o) (main)
../kernel/lib/CPU_B\libGCC_kernel.a(GCC_SDB.o)
                              ../kernel/lib/CPU_B\libGCC_kernel.a(GCC_can_safety.o) (SDB_F_Init)
../kernel/lib/CPU_B\libGCC_kernel.a(GCC_SDB_api.o)
                              ../kernel/lib/CPU_B\libGCC_kernel.a(GCC_SDB.o) (SDB_API_V_UpdateMask)
../kernel/lib/CPU_B\libGCC_kernel.a(GCC_SDB_intercpu.o)
                              ../kernel/lib/CPU_B\libGCC_kernel.a(GCC_SDB.o) (SDB_INTERCPU_F_ReceivedMsgRelease)
../kernel/lib/CPU_B\libGCC_kernel.a(GCC_SDB_ioplug.o)
                              ../kernel/lib/CPU_B\libGCC_kernel.a(GCC_can_safety.o) (SDB_F_BooleanInputDefaultGet)
../kernel/lib/CPU_B\libGCC_kernel.a(GCC_SDB_update.o)
                              ../kernel/lib/CPU_B\libGCC_kernel.a(GCC_SDB.o) (SDB_UPDATE_F_DBAccessPrepare)
../kernel/lib/CPU_B\libGCC_kernel.a(GCC_SDB_updatelist.o)
                              ../kernel/lib/CPU_B\libGCC_kernel.a(GCC_SDB.o) (SDB_UPDATELIST_F_BlockAddPdo)
../kernel/lib/CPU_B\libGCC_kernel.a(GCC_std.o)
                              ./out/CPU_B/GCC_guest_outputport.o (STD_F_Memset)
../kernel/lib/CPU_B\libGCC_kernel.a(GCC_VOTE.o)
                              ../kernel/lib/CPU_B\libGCC_kernel.a(GCC_mstep.o) (VOTE_F_CpuWaitExt)
../kernel/lib/CPU_B\libGCC_kernel.a(GCC_VOTE_com.o)
                              ../kernel/lib/CPU_B\libGCC_kernel.a(GCC_VOTE.o) (VOTE_COM_V_K2oo2TimeoutStorage)
../kernel/lib/CPU_B\libGCC_kernel.a(GCC_VOTE_tsk.o)
                              ../kernel/lib/CPU_B\libGCC_kernel.a(GCC_VOTE_com.o) (VOTE_V_ModeIsRunning)
../kernel/lib/CPU_B\libGCC_kernel.a(GCC_wdg.o)
                              ../kernel/lib/CPU_B\libGCC_kernel.a(GCC_mstep.o) (WDG_F_GetCPUUsageMax)
../kernel/lib/CPU_B\libGCC_kernel.a(GCC_viv.o)
                              ../kernel/lib/CPU_B\libGCC_kernel.a(GCC_gdf_dump_tools.o) (VIV_F_ImageMemoryGet)
../kernel/lib/CPU_B\libGCC_kernel.a(GCC_Drv_CAU_Lib.o)
                              ../kernel/lib/CPU_B\libGCC_kernel.a(GCC_mstep.o) (MATH_F_ComputeDES)
../kernel/lib/CPU_B\libGCC_kernel.a(GCC_Drv_BID_Lib.o)
                              ../kernel/lib/CPU_B\libGCC_kernel.a(GCC_CONF_src.o) (Drv_BID_F_BidRead)
../kernel/lib/CPU_B\libGCC_kernel.a(GCC_Drv_Boot_Module.o)
                              ../kernel/lib/CPU_B\libGCC_kernel.a(GCC_VCU_Start.o) (BOOT_F_Init)
../kernel/lib/CPU_B\libGCC_kernel.a(GCC_Drv_Boot_Utils.o)
                              ../kernel/lib/CPU_B\libGCC_kernel.a(GCC_Drv_Boot_Module.o) (BOOT_Table_CRC32_CCITT)
../kernel/lib/CPU_B\libGCC_kernel.a(GCC_Drv_Cache_Lib.o)
                              ../kernel/lib/CPU_B\libGCC_kernel.a(GCC_Drv_Boot_Module.o) (Drv_Cache_F_Init)
../kernel/lib/CPU_B\libGCC_kernel.a(GCC_Drv_Can_Lib.o)
                              ../kernel/lib/CPU_B\libGCC_kernel.a(GCC_can_open.o) (CAN_DRIVER_V_TxFrameMem)
../kernel/lib/CPU_B\libGCC_kernel.a(GCC_Drv_Fec_Lib.o)
                              ../kernel/lib/CPU_B\libGCC_kernel.a(GCC_mstep.o) (IPSTACK_F_NumberOfIpConflictDetectedGet)
../kernel/lib/CPU_B\libGCC_kernel.a(GCC_Drv_Flash_Parallel_Lib.o)
                              ../kernel/lib/CPU_B\libGCC_kernel.a(GCC_Flash.o) (Drv_FLASH_PARALLEL_F_Init)
../kernel/lib/CPU_B\libGCC_kernel.a(GCC_Drv_Flash_Spi_Lib.o)
                              ../kernel/lib/CPU_B\libGCC_kernel.a(GCC_Flash.o) (Drv_FLASH_SPI_F_Init)
../kernel/lib/CPU_B\libGCC_kernel.a(GCC_Drv_Gpio.o)
                              ../kernel/lib/CPU_B\libGCC_kernel.a(GCC_mstep.o) (GPIO_F_CpuIdGet)
../kernel/lib/CPU_B\libGCC_kernel.a(GCC_Drv_MMU_Lib.o)
                              ../kernel/lib/CPU_B\libGCC_kernel.a(GCC_Drv_Cache_Lib.o) (Drv_Mmu_Add_Region)
../kernel/lib/CPU_B\libGCC_kernel.a(GCC_Drv_SDRAM_Lib.o)
                              ../kernel/lib/CPU_B\libGCC_kernel.a(GCC_Drv_Boot_Module.o) (Drv_SDRAM_F_Init)
../kernel/lib/CPU_B\libGCC_kernel.a(GCC_Drv_Spi_Lib.o)
                              ../kernel/lib/CPU_B\libGCC_kernel.a(GCC_Schedule.o) (Drv_SPI_F_Init)
../kernel/lib/CPU_B\libGCC_kernel.a(GCC_Drv_Timer_Lib.o)
                              ../kernel/lib/CPU_B\libGCC_kernel.a(GCC_wdg.o) (Drv_Timer_F_Enable)
../kernel/lib/CPU_B\libGCC_kernel.a(GCC_Drv_Uart_Vote.o)
                              ../kernel/lib/CPU_B\libGCC_kernel.a(GCC_VOTE_com.o) (VOTE_DRV_V_BuffIndexByte)
../kernel/lib/CPU_B\libGCC_kernel.a(GCC_bsp.o)
                              ../kernel/lib/CPU_B\libGCC_kernel.a(GCC_can.o) (BSP_CPU_ClkFreq)
../kernel/lib/CPU_B\libGCC_kernel.a(GCC_exceptions.o)
                              ../kernel/lib/CPU_B\libGCC_kernel.a(GCC_Drv_Boot_Module.o) (_BOOT_VECTOR_TO_RAM)
../kernel/lib/CPU_B\libGCC_kernel.a(GCC_os_core.o)
                              ../kernel/lib/CPU_B\libGCC_kernel.a(GCC_VCU_Start.o) (OSInit)
../kernel/lib/CPU_B\libGCC_kernel.a(GCC_os_flag.o)
                              ../kernel/lib/CPU_B\libGCC_kernel.a(GCC_osw.o) (OSFlagAccept)
../kernel/lib/CPU_B\libGCC_kernel.a(GCC_os_mem.o)
                              ../kernel/lib/CPU_B\libGCC_kernel.a(GCC_osw.o) (OSMemCreate)
../kernel/lib/CPU_B\libGCC_kernel.a(GCC_os_q.o)
                              ../kernel/lib/CPU_B\libGCC_kernel.a(GCC_osw.o) (OSQAccept)
../kernel/lib/CPU_B\libGCC_kernel.a(GCC_os_sem.o)
                              ../kernel/lib/CPU_B\libGCC_kernel.a(GCC_osw.o) (OSSemAccept)
../kernel/lib/CPU_B\libGCC_kernel.a(GCC_os_task.o)
                              ../kernel/lib/CPU_B\libGCC_kernel.a(GCC_Schedule.o) (OSTaskCreateExt)
../kernel/lib/CPU_B\libGCC_kernel.a(GCC_os_time.o)
                              ../kernel/lib/CPU_B\libGCC_kernel.a(GCC_BIT_survey.o) (OSTimeDly)
../kernel/lib/CPU_B\libGCC_kernel.a(GCC_core.o)
                              ../kernel/lib/CPU_B\libGCC_kernel.a(GCC_osw.o) (osState)
../kernel/lib/CPU_B\libGCC_kernel.a(GCC_coretask.o)
                              ../kernel/lib/CPU_B\libGCC_kernel.a(GCC_BIT_survey.o) (prioTcbTbl)
../kernel/lib/CPU_B\libGCC_kernel.a(GCC_event_group_create.o)
                              ../kernel/lib/CPU_B\libGCC_kernel.a(GCC_os_flag.o) (event_group_create)
../kernel/lib/CPU_B\libGCC_kernel.a(GCC_event_group_delete.o)
                              ../kernel/lib/CPU_B\libGCC_kernel.a(GCC_os_flag.o) (event_group_delete)
../kernel/lib/CPU_B\libGCC_kernel.a(GCC_event_group_delete_force.o)
                              ../kernel/lib/CPU_B\libGCC_kernel.a(GCC_os_flag.o) (event_group_delete_force)
../kernel/lib/CPU_B\libGCC_kernel.a(GCC_event_group_info.o)
                              ../kernel/lib/CPU_B\libGCC_kernel.a(GCC_os_flag.o) (event_group_info)
../kernel/lib/CPU_B\libGCC_kernel.a(GCC_event_notify.o)
                              ../kernel/lib/CPU_B\libGCC_kernel.a(GCC_os_flag.o) (event_notify)
../kernel/lib/CPU_B\libGCC_kernel.a(GCC_event_ready_get.o)
                              ../kernel/lib/CPU_B\libGCC_kernel.a(GCC_os_flag.o) (event_ready_get)
../kernel/lib/CPU_B\libGCC_kernel.a(GCC_event_try_wait.o)
                              ../kernel/lib/CPU_B\libGCC_kernel.a(GCC_os_flag.o) (event_try_wait)
../kernel/lib/CPU_B\libGCC_kernel.a(GCC_event_wait.o)
                              ../kernel/lib/CPU_B\libGCC_kernel.a(GCC_os_flag.o) (event_wait)
../kernel/lib/CPU_B\libGCC_kernel.a(GCC_fatal_error_raise.o)
                              ../kernel/lib/CPU_B\libGCC_kernel.a(GCC_event_group_delete_force.o) (fatal_error_raise)
../kernel/lib/CPU_B\libGCC_kernel.a(GCC_irq_resume.o)
                              ../kernel/lib/CPU_B\libGCC_kernel.a(GCC_os_mem.o) (irq_resume)
../kernel/lib/CPU_B\libGCC_kernel.a(GCC_irq_suspend.o)
                              ../kernel/lib/CPU_B\libGCC_kernel.a(GCC_os_mem.o) (irq_suspend)
../kernel/lib/CPU_B\libGCC_kernel.a(GCC_isr.o)
                              ../kernel/lib/CPU_B\libGCC_kernel.a(GCC_print.o) (irqNestLvl)
../kernel/lib/CPU_B\libGCC_kernel.a(GCC_isr_enter.o)
                              ../kernel/lib/CPU_B\libGCC_kernel.a(GCC_os_core.o) (isr_enter)
../kernel/lib/CPU_B\libGCC_kernel.a(GCC_isr_exit.o)
                              ../kernel/lib/CPU_B\libGCC_kernel.a(GCC_os_core.o) (isr_exit)
../kernel/lib/CPU_B\libGCC_kernel.a(GCC_isr_level_get.o)
                              ../kernel/lib/CPU_B\libGCC_kernel.a(GCC_SDB_updatelist.o) (isr_level_get)
../kernel/lib/CPU_B\libGCC_kernel.a(GCC_mempart_alloc.o)
                              ../kernel/lib/CPU_B\libGCC_kernel.a(GCC_os_mem.o) (mempart_alloc)
../kernel/lib/CPU_B\libGCC_kernel.a(GCC_mempart_create.o)
                              ../kernel/lib/CPU_B\libGCC_kernel.a(GCC_os_mem.o) (mempart_create)
../kernel/lib/CPU_B\libGCC_kernel.a(GCC_mempart_free.o)
                              ../kernel/lib/CPU_B\libGCC_kernel.a(GCC_os_mem.o) (mempart_free)
../kernel/lib/CPU_B\libGCC_kernel.a(GCC_mempart_info.o)
                              ../kernel/lib/CPU_B\libGCC_kernel.a(GCC_can_ard.o) (mempart_info)
../kernel/lib/CPU_B\libGCC_kernel.a(GCC_message_queue_broadcast.o)
                              ../kernel/lib/CPU_B\libGCC_kernel.a(GCC_os_q.o) (message_queue_broadcast)
../kernel/lib/CPU_B\libGCC_kernel.a(GCC_message_queue_create.o)
                              ../kernel/lib/CPU_B\libGCC_kernel.a(GCC_os_q.o) (message_queue_create)
../kernel/lib/CPU_B\libGCC_kernel.a(GCC_message_queue_delete.o)
                              ../kernel/lib/CPU_B\libGCC_kernel.a(GCC_os_q.o) (message_queue_delete)
../kernel/lib/CPU_B\libGCC_kernel.a(GCC_message_queue_delete_force.o)
                              ../kernel/lib/CPU_B\libGCC_kernel.a(GCC_os_q.o) (message_queue_delete_force)
../kernel/lib/CPU_B\libGCC_kernel.a(GCC_message_queue_flush.o)
                              ../kernel/lib/CPU_B\libGCC_kernel.a(GCC_os_q.o) (message_queue_flush)
../kernel/lib/CPU_B\libGCC_kernel.a(GCC_message_queue_info.o)
                              ../kernel/lib/CPU_B\libGCC_kernel.a(GCC_Drv_Can_Lib.o) (message_queue_info)
../kernel/lib/CPU_B\libGCC_kernel.a(GCC_message_queue_receive.o)
                              ../kernel/lib/CPU_B\libGCC_kernel.a(GCC_os_q.o) (message_queue_receive)
../kernel/lib/CPU_B\libGCC_kernel.a(GCC_message_queue_send.o)
                              ../kernel/lib/CPU_B\libGCC_kernel.a(GCC_os_q.o) (message_queue_send)
../kernel/lib/CPU_B\libGCC_kernel.a(GCC_message_queue_send_first.o)
                              ../kernel/lib/CPU_B\libGCC_kernel.a(GCC_os_q.o) (message_queue_send_first)
../kernel/lib/CPU_B\libGCC_kernel.a(GCC_message_queue_try_receive.o)
                              ../kernel/lib/CPU_B\libGCC_kernel.a(GCC_os_q.o) (message_queue_try_receive)
../kernel/lib/CPU_B\libGCC_kernel.a(GCC_os_init.o)
                              ../kernel/lib/CPU_B\libGCC_kernel.a(GCC_os_core.o) (os_init)
../kernel/lib/CPU_B\libGCC_kernel.a(GCC_os_safety_critical.o)
                              ../kernel/lib/CPU_B\libGCC_kernel.a(GCC_VCU_Start.o) (os_safety_critical)
../kernel/lib/CPU_B\libGCC_kernel.a(GCC_os_shutdown.o)
                              ../kernel/lib/CPU_B\libGCC_kernel.a(GCC_fatal_error_raise.o) (os_shutdown)
../kernel/lib/CPU_B\libGCC_kernel.a(GCC_os_start.o)
                              ../kernel/lib/CPU_B\libGCC_kernel.a(GCC_os_core.o) (os_start)
../kernel/lib/CPU_B\libGCC_kernel.a(GCC_sched_lock.o)
                              ../kernel/lib/CPU_B\libGCC_kernel.a(GCC_gdf.o) (sched_lock)
../kernel/lib/CPU_B\libGCC_kernel.a(GCC_sched_unlock.o)
                              ../kernel/lib/CPU_B\libGCC_kernel.a(GCC_os_core.o) (sched_unlock)
../kernel/lib/CPU_B\libGCC_kernel.a(GCC_semaphore.o)
                              ../kernel/lib/CPU_B\libGCC_kernel.a(GCC_os_init.o) (semaphoreModuleInit)
../kernel/lib/CPU_B\libGCC_kernel.a(GCC_semaphore_count_get.o)
                              ../kernel/lib/CPU_B\libGCC_kernel.a(GCC_os_sem.o) (semaphore_count_get)
../kernel/lib/CPU_B\libGCC_kernel.a(GCC_semaphore_count_set.o)
                              ../kernel/lib/CPU_B\libGCC_kernel.a(GCC_os_sem.o) (semaphore_count_set)
../kernel/lib/CPU_B\libGCC_kernel.a(GCC_semaphore_create.o)
                              ../kernel/lib/CPU_B\libGCC_kernel.a(GCC_os_sem.o) (semaphore_create)
../kernel/lib/CPU_B\libGCC_kernel.a(GCC_semaphore_delete.o)
                              ../kernel/lib/CPU_B\libGCC_kernel.a(GCC_os_sem.o) (semaphore_delete)
../kernel/lib/CPU_B\libGCC_kernel.a(GCC_semaphore_delete_force.o)
                              ../kernel/lib/CPU_B\libGCC_kernel.a(GCC_os_sem.o) (semaphore_delete_force)
../kernel/lib/CPU_B\libGCC_kernel.a(GCC_semaphore_give.o)
                              ../kernel/lib/CPU_B\libGCC_kernel.a(GCC_os_sem.o) (semaphore_give)
../kernel/lib/CPU_B\libGCC_kernel.a(GCC_semaphore_take.o)
                              ../kernel/lib/CPU_B\libGCC_kernel.a(GCC_os_sem.o) (semaphore_take)
../kernel/lib/CPU_B\libGCC_kernel.a(GCC_semaphore_try_take.o)
                              ../kernel/lib/CPU_B\libGCC_kernel.a(GCC_os_sem.o) (semaphore_try_take)
../kernel/lib/CPU_B\libGCC_kernel.a(GCC_sys_tick.o)
                              ../kernel/lib/CPU_B\libGCC_kernel.a(GCC_os_init.o) (sysTickModuleInit)
../kernel/lib/CPU_B\libGCC_kernel.a(GCC_sys_tick_get.o)
                              ../kernel/lib/CPU_B\libGCC_kernel.a(GCC_os_time.o) (sys_tick_get)
../kernel/lib/CPU_B\libGCC_kernel.a(GCC_sys_tick_increment.o)
                              ../kernel/lib/CPU_B\libGCC_kernel.a(GCC_os_time.o) (sys_tick_increment)
../kernel/lib/CPU_B\libGCC_kernel.a(GCC_sys_tick_set.o)
                              ../kernel/lib/CPU_B\libGCC_kernel.a(GCC_os_time.o) (sys_tick_set)
../kernel/lib/CPU_B\libGCC_kernel.a(GCC_task.o)
                              ../kernel/lib/CPU_B\libGCC_kernel.a(GCC_sys_tick_increment.o) (tcbChain)
../kernel/lib/CPU_B\libGCC_kernel.a(GCC_task_check_idle_stack.o)
                              ../kernel/lib/CPU_B\libGCC_kernel.a(GCC_os_task.o) (task_check_idle_stack)
../kernel/lib/CPU_B\libGCC_kernel.a(GCC_task_check_stack.o)
                              ../kernel/lib/CPU_B\libGCC_kernel.a(GCC_os_task.o) (task_check_stack)
../kernel/lib/CPU_B\libGCC_kernel.a(GCC_task_create.o)
                              ../kernel/lib/CPU_B\libGCC_kernel.a(GCC_os_task.o) (task_create)
../kernel/lib/CPU_B\libGCC_kernel.a(GCC_task_delay.o)
                              ../kernel/lib/CPU_B\libGCC_kernel.a(GCC_os_time.o) (task_delay)
../kernel/lib/CPU_B\libGCC_kernel.a(GCC_task_delay_cancel.o)
                              ../kernel/lib/CPU_B\libGCC_kernel.a(GCC_os_time.o) (task_delay_cancel)
../kernel/lib/CPU_B\libGCC_kernel.a(GCC_task_delete.o)
                              ../kernel/lib/CPU_B\libGCC_kernel.a(GCC_os_task.o) (task_delete)
../kernel/lib/CPU_B\libGCC_kernel.a(GCC_task_get_by_priority.o)
                              ../kernel/lib/CPU_B\libGCC_kernel.a(GCC_os_task.o) (task_get_by_priority)
../kernel/lib/CPU_B\libGCC_kernel.a(GCC_task_get_priority.o)
                              ../kernel/lib/CPU_B\libGCC_kernel.a(GCC_os_task.o) (task_get_priority)
../kernel/lib/CPU_B\libGCC_kernel.a(GCC_task_info.o)
                              ../kernel/lib/CPU_B\libGCC_kernel.a(GCC_os_task.o) (task_info)
../kernel/lib/CPU_B\libGCC_kernel.a(GCC_task_resume.o)
                              ../kernel/lib/CPU_B\libGCC_kernel.a(GCC_os_task.o) (task_resume)
../kernel/lib/CPU_B\libGCC_kernel.a(GCC_task_set_priority.o)
                              ../kernel/lib/CPU_B\libGCC_kernel.a(GCC_os_task.o) (task_set_priority)
../kernel/lib/CPU_B\libGCC_kernel.a(GCC_task_statis_init.o)
                              ../kernel/lib/CPU_B\libGCC_kernel.a(GCC_os_core.o) (task_statis_init)
../kernel/lib/CPU_B\libGCC_kernel.a(GCC_task_suspend.o)
                              ../kernel/lib/CPU_B\libGCC_kernel.a(GCC_os_task.o) (task_suspend)
../kernel/lib/CPU_B\libGCC_kernel.a(GCC_os_cpu_c.o)
                              ../kernel/lib/CPU_B\libGCC_kernel.a(GCC_mstep.o) (OSVectSet)
../kernel/lib/CPU_B\libGCC_kernel.a(GCC_GM_PROSTACK_Ip.o)
                              ../kernel/lib/CPU_B\libGCC_kernel.a(GCC_Drv_Fec_Lib.o) (GM_PROS_IP_F_FreeBuffer)
../kernel/lib/CPU_B\libGCC_kernel.a(GCC_GM_PROSTACK_Ip_tsk.o)
                              ../kernel/lib/CPU_B\libGCC_kernel.a(GCC_GM_PROSTACK_Ip.o) (GM_PROS_IP_TSK_V_Management)
../kernel/lib/CPU_B\libGCC_kernel.a(GCC_GM_PROSTACK_Udp.o)
                              ../kernel/lib/CPU_B\libGCC_kernel.a(GCC_GM_PROSTACK_Ip.o) (GM_PROS_UDP_F_Snat)
../kernel/lib/CPU_B\libGCC_kernel.a(GCC_GM_PROSTACK_Vote.o)
                              ../kernel/lib/CPU_B\libGCC_kernel.a(GCC_GM_PROSTACK_Ip_tsk.o) (GM_PROS_VOTE_F_Send)
../kernel/lib/CPU_B\libGCC_kernel.a(GCC_GM_Tftp.o)
                              ../kernel/lib/CPU_B\libGCC_kernel.a(GCC_Schedule.o) (GM_TFTP_F_Config)
../kernel/lib/CPU_B\libGCC_kernel.a(GCC_mstep_isr.o)
                              ../kernel/lib/CPU_B\libGCC_kernel.a(GCC_mstep.o) (MSTEP_ISR_F_GuestHandler)
../kernel/lib/CPU_B\libGCC_kernel.a(GCC_Drv_Sha1_Functions_Asm.o)
                              ../kernel/lib/CPU_B\libGCC_kernel.a(GCC_Drv_CAU_Lib.o) (Drv_Cau_Sha1_Update)
../kernel/lib/CPU_B\libGCC_kernel.a(GCC_Drv_Can_Isr_Asm.o)
                              ../kernel/lib/CPU_B\libGCC_kernel.a(GCC_Drv_Can_Lib.o) (Drv_CAN_F_Asm_IsrCan0BusOff)
../kernel/lib/CPU_B\libGCC_kernel.a(GCC_Drv_Fec_Isr_Asm.o)
                              ../kernel/lib/CPU_B\libGCC_kernel.a(GCC_Drv_Fec_Lib.o) (Drv_Fec_F_Asm_EthRxHandler)
../kernel/lib/CPU_B\libGCC_kernel.a(GCC_Drv_Timer_Isr_Asm.o)
                              ../kernel/lib/CPU_B\libGCC_kernel.a(GCC_Drv_Timer_Lib.o) (Drv_Timer_F_Asm_Handler_0)
../kernel/lib/CPU_B\libGCC_kernel.a(GCC_Drv_Uart_Vote_Isr_Asm.o)
                              ../kernel/lib/CPU_B\libGCC_kernel.a(GCC_Drv_Uart_Vote.o) (Drv_Uart_F_Asm_EndOfTxHandler)
../kernel/lib/CPU_B\libGCC_kernel.a(GCC_VCU_Exception_Asm.o)
                              ../kernel/lib/CPU_B\libGCC_kernel.a(GCC_exceptions.o) (GDF_ISR_F_Asm_FuseXirq)
../kernel/lib/CPU_B\libGCC_kernel.a(GCC_mcf5xxx_lo.o)
                              ../kernel/lib/CPU_B\libGCC_kernel.a(GCC_Drv_Cache_Lib.o) (BOOT_MCFXXXX_F_LoWrCacr)
../kernel/lib/CPU_B\libGCC_kernel.a(GCC_entry.o)
                              ../kernel/lib/CPU_B\libGCC_kernel.a(GCC_event_group_delete_force.o) (_context_switch)
../kernel/lib/CPU_B\libGCC_kernel.a(GCC_os_cpu_a.o)
                              ../kernel/lib/CPU_B\libGCC_kernel.a(GCC_mstep_isr.o) (_OSIntExitCF)
../kernel/lib/CPU_B\libGCC_kernel.a(GCC_BIT.o)
                              ../kernel/lib/CPU_B\libGCC_kernel.a(GCC_Schedule.o) (BIT_F_FaultFilteringTimerStart)
../kernel/lib/CPU_B\libGCC_kernel.a(GCC_CONF_autho.o)
                              ../kernel/lib/CPU_B\libGCC_kernel.a(GCC_FILESYS.o) (CONF_AUTHO_V_bIsQuickBoot)
../kernel/lib/CPU_B\libGCC_kernel.a(GCC_CONF_dataset.o)
                              ../kernel/lib/CPU_B\libGCC_kernel.a(GCC_CONF_local.o) (CONF_DATASET_F_GetModuleBoardCode)
../kernel/lib/CPU_B\libGCC_kernel.a(GCC_Schedule_gentask.o)
                              ../kernel/lib/CPU_B\libGCC_kernel.a(GCC_Schedule_launcher.o) (SCHED_GENTASK_F_TaskCreate)
../kernel/lib/CPU_B\libGCC_kernel.a(GCC_Drv_Can_Isr.o)
                              ../kernel/lib/CPU_B\libGCC_kernel.a(GCC_Drv_Can_Isr_Asm.o) (Drv_CAN_F_IsrCan0_Handler)
../kernel/lib/CPU_B\libGCC_kernel.a(GCC_os_hooks.o)
                              ../kernel/lib/CPU_B\libGCC_kernel.a(GCC_task.o) (Task_Statis_Hook)
../kernel/lib/CPU_B\libGCC_kernel.a(GCC_idletaskcreate.o)
                              ../kernel/lib/CPU_B\libGCC_kernel.a(GCC_task.o) (idleTaskCount)
../kernel/lib/CPU_B\libGCC_kernel.a(GCC_event.o)
                              ../kernel/lib/CPU_B\libGCC_kernel.a(GCC_event_group_create.o) (eventGroupObjTbl)
../kernel/lib/CPU_B\libGCC_kernel.a(GCC_mempart.o)
                              ../kernel/lib/CPU_B\libGCC_kernel.a(GCC_mempart_alloc.o) (mempartObjTbl)
../kernel/lib/CPU_B\libGCC_kernel.a(GCC_message_queue.o)
                              ../kernel/lib/CPU_B\libGCC_kernel.a(GCC_message_queue_broadcast.o) (mqueueObjTbl)
../kernel/lib/CPU_B\libGCC_kernel.a(GCC_mutex.o)
                              ../kernel/lib/CPU_B\libGCC_kernel.a(GCC_os_init.o) (mutexModuleInit)
../kernel/lib/CPU_B\libGCC_kernel.a(GCC_GM_PROSTACK_Arp.o)
                              ../kernel/lib/CPU_B\libGCC_kernel.a(GCC_GM_PROSTACK_Ip_tsk.o) (GM_PROS_ARP_F_AddStaticEntry)
../kernel/lib/CPU_B\libGCC_kernel.a(GCC_GM_PROSTACK_Can.o)
                              ../kernel/lib/CPU_B\libGCC_kernel.a(GCC_GM_PROSTACK_Ip_tsk.o) (GM_PROS_CAN_F_Send)
../kernel/lib/CPU_B\libGCC_kernel.a(GCC_GM_PROSTACK_Cop.o)
                              ../kernel/lib/CPU_B\libGCC_kernel.a(GCC_GM_PROSTACK_Ip_tsk.o) (GM_PROS_COP_F_IsCanRoutingAuthorized)
../kernel/lib/CPU_B\libGCC_kernel.a(GCC_GM_PROSTACK_Eth.o)
                              ../kernel/lib/CPU_B\libGCC_kernel.a(GCC_GM_PROSTACK_Ip_tsk.o) (GM_PROS_ETH_F_SendIp)
../kernel/lib/CPU_B\libGCC_kernel.a(GCC_GM_PROSTACK_Icmp.o)
                              ../kernel/lib/CPU_B\libGCC_kernel.a(GCC_GM_PROSTACK_Ip.o) (GM_PROS_ICMP_F_Reception)
../kernel/lib/CPU_B\libGCC_kernel.a(GCC_CONF_check.o)
                              ../kernel/lib/CPU_B\libGCC_kernel.a(GCC_CONF_dataset.o) (CONF_CHECK_F_InitAtDefaultValue)

Memory Configuration

Name             Origin             Length             Attributes
dummy            0x00000000         0x00000001         xrw
vector_ram       0x81000000         0x00000500         xrw
sram             0x81000000         0x00010000         xrw
sram_user        0x81000500         0x0000f700         xrw
sram_stack_boot  0x8100fc00         0x00000400         xrw
ext_sdram_data   0x44000000         0x01000000         xrw
ext_flash        0x20000000         0x00320000         xr
ext_flash_ES     0x20320000         0x00ce0000         xr
ext_sdram_code   0x40000000         0x00800000         xrw
*default*        0x00000000         0xffffffff

Linker script and memory map

LOAD ./out/CPU_B/GCC_guest.o
LOAD ./out/CPU_B/GCC_guest_fuse.o
LOAD ./out/CPU_B/GCC_guest_isolation.o
LOAD ./out/CPU_B/GCC_guest_outputport.o
LOAD ./out/CPU_B/GCC_guest_public.o
LOAD ./out/CPU_B/GCC_guest_readback.o
LOAD ./out/CPU_B/GCC_crc_result.o

.vector_ram     0x81000000        0x0

.sram           0x81000000        0x0

.ext_sdram_data
                0x44000000        0x0

.ext_flash      0x20000000        0x0

.sram_user      0x81000500        0x0

.ext_sdram_code
                0x40000000        0x0

.ext_flash_ES   0x20320000        0x0

.boot           0x20000000     0x2be4
                0x20000000                __START_VECTOR_ROM = .
 *(.textvectors)
 .textvectors   0x20000000      0x800 ../kernel/lib/CPU_B\libGCC_kernel.a(GCC_exceptions.o)
                0x20000000                _BOOT_VECTOR_ROM
                0x20000400                _BOOT_VECTOR_TO_RAM
 *(.rodatavectors)
                0x20000800                __END_VECTOR_ROM = .
                0x20000800                __START_BOOT_ROM = .
 *(.textboot)
 .textboot      0x20000800       0x28 ../kernel/lib/CPU_B\libGCC_kernel.a(GCC_VCU_Start_Asm.o)
                0x20000800                _startup
                0x20000808                _VCU_BOOT_F_StartMeUp
 .textboot      0x20000828       0x80 ../kernel/lib/CPU_B\libGCC_kernel.a(GCC_VCU_Start.o)
                0x20000828                main
 .textboot      0x200008a8     0x1084 ../kernel/lib/CPU_B\libGCC_kernel.a(GCC_Drv_Boot_Module.o)
                0x200008a8                BOOT_F_Init
                0x20000c9e                BOOT_F_Set_uninit_var
                0x20000d42                BOOT_F_Copy_data_to_ram
                0x20000fe6                BOOT_F_Check_Flash_Crc
                0x2000128a                BOOT_F_IsHotReboot
                0x20001298                BOOT_F_IsTransplantable
                0x200012a6                BOOT_F_GetParameters
                0x2000139c                BOOT_F_FuseCheck
                0x200017c8                BOOT_F_CheckCRC32CCITT
                0x200018ae                BOOT_F_IsRunningInRAM
                0x200018be                BOOT_F_MemoryTestSignatureGet
 .textboot      0x2000192c      0x87c ../kernel/lib/CPU_B\libGCC_kernel.a(GCC_Drv_Boot_Utils.o)
                0x2000192c                BOOT_F_Fuse
                0x20001a02                Drv_Clk_F_Init
                0x20001b2c                Drv_FlexBus_F_Pin_Init
                0x20001b5e                Drv_CS_F_Init
                0x20001bfa                Drv_Spi_F_Pin_Init
                0x20001c9e                Drv_Can_F_Pin_Init
                0x20001d14                Drv_Channel_Config_Pin_Init
                0x20001d44                Drv_CAN_ETH_F_Init
                0x20001d74                Drv_CAN_ETH_F_Enable
                0x20001d94                Drv_Ext_WatchDog_F_Init
                0x20001dc4                Drv_Uart_F_Pin_Init
                0x20001df6                Drv_Fec_F_Pin_Init
                0x20001e14                Drv_Eport_F_Init
                0x20001f8c                Drv_Device_F_Power
                0x20002088                Drv_Device_F_Pin_Init
 .textboot      0x200021a8      0x238 ../kernel/lib/CPU_B\libGCC_kernel.a(GCC_Drv_Cache_Lib.o)
                0x200021a8                Drv_Cache_F_Init
                0x200023c8                Drv_Cache_F_Disable
 .textboot      0x200023e0      0x118 ../kernel/lib/CPU_B\libGCC_kernel.a(GCC_Drv_MMU_Lib.o)
                0x200023e0                Drv_Mmu_Add_Region
 .textboot      0x200024f8      0x232 ../kernel/lib/CPU_B\libGCC_kernel.a(GCC_Drv_SDRAM_Lib.o)
                0x200024f8                Drv_SDRAM_F_Init
 .textboot      0x2000272a       0x46 ../kernel/lib/CPU_B\libGCC_kernel.a(GCC_exceptions.o)
                0x2000272a                BOOT_INT_HANDLERS_F_IrqHandler
 .textboot      0x20002770        0xc ../kernel/lib/CPU_B\libGCC_kernel.a(GCC_VCU_Exception_Asm.o)
                0x20002770                BOOT_MCF5441x_F_AsmRomExceptionHandler
 .textboot      0x2000277c       0x56 ../kernel/lib/CPU_B\libGCC_kernel.a(GCC_mcf5xxx_lo.o)
                0x2000277c                BOOT_MCFXXXX_F_LoWrCacr
                0x20002788                BOOT_MCFXXXX_F_LoWrAcr0
                0x20002794                BOOT_MCFXXXX_F_LoWrAcr1
                0x200027a0                BOOT_MCFXXXX_F_LoWrAcr2
                0x200027ac                BOOT_MCFXXXX_F_LoWrAcr3
                0x200027b8                mcf5xxx_wr_vbr
                0x200027c4                _cpu_cache_flush
 *(.rodataboot)
 *fill*         0x200027d2        0x2 
 .rodataboot    0x200027d4       0x10 ../kernel/lib/CPU_B\libGCC_kernel.a(GCC_Drv_Boot_Module.o)
 .rodataboot    0x200027e4      0x400 ../kernel/lib/CPU_B\libGCC_kernel.a(GCC_Drv_Boot_Utils.o)
                0x200027e4                BOOT_Table_CRC32_CCITT
 *(.rodataboot.str1.1)
                0x20002be4                . = ALIGN (0x4)
                0x20002be4                __END_BOOT_ROM = .
                0x20000000                __EXT_FLASH = ADDR (.boot)
                0x20002be4                __CRC_FLASH_START = (__EXT_FLASH + (__END_BOOT_ROM - __START_VECTOR_ROM))

.crc            0x20002be4       0x40
                0x20002be4                __CRC_ROM_START = .
 *(.CRC)
 .CRC           0x20002be4       0x40 ./out/CPU_B/GCC_crc_result.o
                0x20002be4                p_CPU_A_Crc_boot
                0x20002be8                p_CPU_A_Crc_vector
                0x20002bec                p_CPU_A_Crc_code
                0x20002bf0                p_CPU_A_Crc_code_sram
                0x20002bf4                p_CPU_A_Crc_sram
                0x20002bf8                p_CPU_A_Crc_const_sram
                0x20002bfc                p_CPU_A_Crc_ext_sdram
                0x20002c00                p_CPU_A_Crc_const_ext_sdram
                0x20002c04                p_CPU_B_Crc_boot
                0x20002c08                p_CPU_B_Crc_vector
                0x20002c0c                p_CPU_B_Crc_code
                0x20002c10                p_CPU_B_Crc_code_sram
                0x20002c14                p_CPU_B_Crc_sram
                0x20002c18                p_CPU_B_Crc_const_sram
                0x20002c1c                p_CPU_B_Crc_ext_sdram
                0x20002c20                p_CPU_B_Crc_const_ext_sdram
                0x20002c24                . = ALIGN (0x4)
                0x20002c24                __CRC_ROM_END = .
                0x20002c24                __CODE_FLASH_START = (__CRC_FLASH_START + (__CRC_ROM_END - __CRC_ROM_START))

.code           0x40000000    0x920c8 load address 0x20002c24
                0x40000000                __START_CODE_ROM = .
 *(.rodata.str1.1)
 *(.text)
 .text          0x40000000     0x14ca ./out/CPU_B/GCC_guest.o
                0x4000000a                GUEST_F_SystemSetup
                0x40000292                GUEST_F_IoSetupGet
                0x400002b8                GUEST_F_On_GDFSafe
                0x4000034e                GUEST_F_On_GDFEnding
                0x400003ec                GUEST_F_On_BootFailed
                0x400003f6                GUEST_F_On_Printf
                0x40000434                GUEST_F_AllocateMemorySpaceForKernel
                0x4000056e                GUEST_F_ConfigSubAreaCheck
                0x400005a8                GUEST_F_On_SafetyFlagsInit
                0x400006be                GUEST_F_On_MEVODefaultSet
                0x400006fa                GUEST_F_ApplicationSwVersionGet
                0x40000708                GUEST_F_FaultFilteringTimerGet
                0x40000756                GUEST_F_FaultFilteringAuthorizeGet
                0x4000079c                GUEST_F_FaultFiltering_Init
                0x40000886                GUEST_F_FaultFiltering_Running
                0x400014b6                GUEST_F_PDOForgiveCntGet
                0x400014c0                GUEST_F_GetPrintLevel
 *fill*         0x400014ca        0x2 
 .text          0x400014cc      0x3ce ./out/CPU_B/GCC_guest_fuse.o
                0x400017ca                GUEST_F_FuseTestSetOn
                0x400017e0                GUEST_F_FuseTestSetOff
                0x400017f6                GUEST_F_FUSE_Test
 *fill*         0x4000189a        0x2 
 .text          0x4000189c      0x3c4 ./out/CPU_B/GCC_guest_isolation.o
                0x40001afa                GUEST_F_SetIsolationRelays
                0x40001b8a                GUEST_F_ISO_Test
 .text          0x40001c60      0xd3c ./out/CPU_B/GCC_guest_outputport.o
                0x40001d50                GUEST_F_OPT
                0x40001e20                GUEST_F_OPT_Check
                0x40001e62                GUEST_F_SCT
                0x40002474                GUEST_F_RIT
                0x400027d2                GUEST_F_TT
 .text          0x4000299c     0x27f0 ./out/CPU_B/GCC_guest_public.o
                0x400029b8                GUEST_F_WriteMNTDataAndSend
                0x40002d04                GUEST_F_RBOutput
                0x40002e34                GUEST_F_DriveOutput
                0x40002e72                GUEST_F_24VLED
                0x40002eda                GUEST_F_EXTLED
                0x40002f2e                GUEST_F_OutputLED
                0x40002f98                GUEST_F_SetDYNStable
                0x40002fa8                GUEST_F_SetDYNActive
                0x40002fb8                GUEST_F_CheckFPGACNT
                0x400030bc                GUEST_F_GetConfigPointer
                0x4000313c                GUEST_F_GetBoardPosition
                0x40003186                GUEST_F_24V_Test
                0x400031f8                GUEST_F_12V_Test
                0x40003266                GUEST_F_LED_Test
                0x4000333c                GUEST_F_Output_Test
                0x4000362e                GUEST_F_ISRINIT
                0x40003680                GUEST_F_WriteDataToTFTPBUF
                0x40003b0e                GUEST_F_WriteFailCodeToTFTPBUF
                0x40003c9e                GUEST_F_ReadDataFromTFTPBUF
                0x40003e0e                GUEST_F_ReadFailCodeFromTFTPBUF
                0x40003f7e                GUEST_F_ReadDataFromTFTPHandBUF
                0x40004036                GUEST_F_GetDataInOneCPU
                0x40004098                GUEST_F_SendVerData
                0x400041fa                GUEST_F_CheckBuf
                0x400043b6                GUEST_F_TFTP_SendTestInfo
                0x400045aa                GUEST_F_TFTP_SendHandInfo
                0x400046ee                GUEST_F_EXTLightSetOn
                0x40004704                GUEST_F_EXTLightSetOff
                0x4000471a                GUEST_F_ResFPGASetOff
                0x40004730                GUEST_F_ResFPGASetOn
                0x40004746                GUEST_F_FeedWDog
                0x40004780                GUEST_F_GetSnake
                0x400048a8                GUEST_F_LED_Snake
                0x4000492c                GUEST_F_IODB_GetCmd_VOOB
                0x40004a10                GUEST_F_IODB_GetCmd_CDDM
                0x40004b46                GUEST_F_IODB_GetCmd_PDDM
                0x40004c20                GUEST_F_IODB_GetCmd_SDDM
                0x40004de2                GUEST_F_IODB_DrvCmd_TCIM
                0x40004f76                GUEST_F_SendFBJState
                0x4000503a                GUEST_F_RBPointStatus
 .text          0x4000518c      0x9e0 ./out/CPU_B/GCC_guest_readback.o
                0x4000518c                GUEST_F_TSPSTForOPT
                0x40005206                GUEST_F_RBValue
                0x400054f8                GUEST_F_OPT_RBValueFromFPGA
                0x4000594a                GUEST_F_MemoryBUSTest
 .text          0x40005b6c        0x0 ./out/CPU_B/GCC_crc_result.o
 .text          0x40005b6c        0x0 ../kernel/lib/CPU_B\libGCC_kernel.a(GCC_VCU_Start_Asm.o)
 .text          0x40005b6c     0x1bf8 ../kernel/lib/CPU_B\libGCC_kernel.a(GCC_mstep.o)
                0x40005b6c                MSTEP_F_PDAAskFlush
                0x40005b8c                MSTEP_F_PDAWrite
                0x40005c06                MSTEP_F_PDARead
                0x40005c8c                MSTEP_F_PDAReserveArea
                0x40005dfa                MSTEP_F_TftpServiceSubscribe
                0x40005e96                MSTEP_F_MaintSNTPServerAvailability
                0x40005ea8                MSTEP_F_MaintVersionsGet
                0x40005f4c                MSTEP_F_MaintCanBusStatusGet
                0x40006006                MSTEP_F_CryptlibKeyScramble
                0x4000602a                MSTEP_F_StatIpstackInternalFrameDropGet
                0x40006098                MSTEP_F_StatFecOverflowCountGet
                0x400060ac                MSTEP_F_StatCPUUsageGet
                0x400060ba                MSTEP_F_StatCPUUsageMaxGet
                0x400060d4                MSTEP_F_StatFSFB2NbBrokenSessionGet
                0x400060e4                MSTEP_F_StatNbEthCrcErrorGet
                0x400060fc                MSTEP_F_StatNbEthCrcOkGet
                0x40006120                MSTEP_F_UDPSend
                0x400061c2                MSTEP_F_UDPFlush
                0x40006202                MSTEP_F_UDPRecv
                0x4000631a                MSTEP_F_UDPClose
                0x4000635a                MSTEP_F_UDPOpen
                0x400063f8                MSTEP_F_GetSoftwareDataID
                0x40006468                MSTEP_F_SpiProcess
                0x4000666c                MSTEP_F_CpuIdGet
                0x40006686                MSTEP_F_GpioRead
                0x400066c8                MSTEP_F_GpioToggle
                0x4000670c                MSTEP_F_GpioSetOff
                0x40006750                MSTEP_F_GpioSetOn
                0x40006794                MSTEP_F_CanActiveBusGet
                0x400067b4                MSTEP_F_ConfigBoardEthMacAddressGet
                0x40006820                MSTEP_F_TimeGet
                0x40006860                MSTEP_F_ConfigBoardPositionGet
                0x400068ce                MSTEP_F_PeriodTableMinGet
                0x4000693c                MSTEP_F_SafetyFlagBreak
                0x400069b2                MSTEP_F_SafetyFlagChkWdGet
                0x40006a2e                MSTEP_F_ConfigGuestSubAreaGet
                0x40006a6e                MSTEP_F_CryptlibDESCompute
                0x40006afe                MSTEP_F_CryptlibCRC32FSFB2ChanOneCompute
                0x40006b7e                MSTEP_F_CryptlibCRC32CCITTCompute
                0x40006c20                MSTEP_F_CryptlibCRC16CCITTCompute
                0x40006c9a                MSTEP_F_K2oo2CycleBegin
                0x40006ca8                MSTEP_F_K2oo2CycleEndExt
                0x40006d06                MSTEP_F_K2oo2CpuWaitExt
                0x40006d7c                MSTEP_F_K2oo2CpuSendExt
                0x40006e20                MSTEP_F_K2oo2CpuExchangeExt
                0x40006ec4                MSTEP_F_GuestTaskIdGet
                0x40006f36                MSTEP_F_NotifyEndOfRestrictiveTransition
                0x40006f84                MSTEP_F_TaskFlagSet
                0x40007006                MSTEP_F_IodbRequest
                0x4000708e                MSTEP_F_IodbSubmit
                0x400070d2                MSTEP_F_IsrAck
                0x4000710c                MSTEP_F_IsrConfigure
                0x400071e0                MSTEP_F_IsrDisable
                0x4000721a                MSTEP_F_IsrEnable
                0x40007254                MSTEP_F_StatInit
                0x4000727e                MSTEP_F_StatEnable
                0x40007292                MSTEP_F_StatIsEnabled
                0x400072a6                MSTEP_F_StatDisable
                0x400072ba                MSTEP_F_StatReset
                0x400072ce                MSTEP_F_StatStoreValue
                0x400072e6                MSTEP_F_StatGetGlobalMinValue
                0x400072fe                MSTEP_F_StatGetGlobalMaxValue
                0x40007316                MSTEP_F_StatGetGlobalNbValues
                0x40007330                MSTEP_F_StatGetGlobalSumValue
                0x40007348                MSTEP_F_StatGetGlobalAverageValue
                0x40007360                MSTEP_F_StatGetMinValueFromRecords
                0x40007378                MSTEP_F_StatGetMaxValueFromRecords
                0x40007390                MSTEP_F_StatGetAverageValueFromRecords
                0x400073a8                MSTEP_F_StatResetStopwatch
                0x400073be                MSTEP_F_StatStartStopwatch
                0x400073d2                MSTEP_F_StatStopStopwatch
                0x400073e6                MSTEP_F_StatStopwatchElapsedTime
                0x400073fe                MSTEP_F_CommonTimeGet
                0x40007480                MSTEP_F_FaultFilteringAcknowledge
                0x40007490                MSTEP_F_FaultFilteringStateGet
                0x400074c8                MSTEP_F_IodbNotificationAdd
                0x4000754c                MSTEP_F_IsCommonTimeSynchronized
                0x4000755a                MSTEP_F_NbFaultFilteringRebootGet
                0x40007568                MSTEP_F_K2oo2StatGet
                0x400075a8                MSTEP_F_RegisterTriggeredFunction
                0x40007662                MSTEP_F_StatNumberOfIpConflictDetectedGet
                0x40007670                MSTEP_F_TFTPClientWrite
                0x40007748                MSTEP_F_SyncCurNumGet
                0x40007756                MSTEP_F_PDORestrictStatusGet
 .text          0x40007764     0x19b4 ../kernel/lib/CPU_B\libGCC_kernel.a(GCC_BIT_fuse.o)
                0x40007764                BIT_FUSE_F_FuseInit
                0x40007cc8                BIT_FUSE_F_IsFlashAsyncFinished
                0x40007cde                BIT_FUSE_F_EndFlashAsync
                0x40007d4e                BIT_FUSE_F_EndReprogAsync
                0x40007e02                BIT_FUSE_F_FusesReadFromAddr
                0x40007f2c                BIT_FUSE_F_FuseToggleRead
                0x40007fbc                BIT_FUSE_F_AddressFuseGet
                0x40008152                BIT_FUSE_F_FusesRead
                0x400081e4                BIT_FUSE_F_FuseSectorErase
                0x400082a2                BIT_FUSE_F_AddressIdFuseGet
                0x400083aa                BIT_FUSE_F_FusesWrite
                0x4000850a                BIT_FUSE_F_FuseCheck
                0x40008b54                BIT_F_SafetyFlagBreak
                0x40008d12                BIT_FUSE_F_SysChkWdInit
                0x40008de2                BIT_F_SysChkWdReset
                0x40008dfe                BIT_F_SysChkWdGet
                0x40008e52                BIT_F_RestoreFlag
                0x40009080                BIT_F_SafetyFlagChkWdGet
 .text          0x40009118     0x18a8 ../kernel/lib/CPU_B\libGCC_kernel.a(GCC_BIT_survey.o)
                0x40009118                BIT_F_FlashCrcsCheckStart
                0x4000912a                BIT_F_ComputeCrcWithTimeDly
                0x4000928a                BIT_F_VectorTableLock
                0x40009310                BIT_F_DcaSectionLock
                0x4000940c                BIT_SURVEY_F_Init
                0x40009508                BIT_SURVEY_F_TaskCheck
                0x40009696                BIT_SURVEY_F_FreeTasksStackLevelCheck
                0x40009894                BIT_SURVEY_F_FreeItStackLevelCheck
                0x40009944                BIT_SURVEY_F_CpuUsageCheck
                0x40009b5e                BIT_SURVEY_F_OSPrioTcbCrcCheck
                0x40009bfe                BIT_SURVEY_F_SwFuseCheck
                0x40009d32                BIT_SURVEY_F_CrcCheckIdGet
                0x40009dd8                BIT_SURVEY_F_SectionStartAndLengthGet
                0x40009f96                BIT_SURVEY_F_ComputeCrc
                0x4000a150                BIT_SURVEY_F_LocalReferenceCrcGet
                0x4000a20a                BIT_SURVEY_F_DistantReferenceCrcGet
                0x4000a2c4                BIT_SURVEY_F_CheckExecutionCounterUpdate
                0x4000a49c                BIT_SURVEY_F_GetRequiredCycles
                0x4000a5d2                BIT_SURVEY_F_CrcsCheck
                0x4000a794                BIT_SURVEY_F_IsCrcAndFuseCheckAllowed
                0x4000a8ca                BIT_F_GetParameters
 .text          0x4000a9c0     0x1e42 ../kernel/lib/CPU_B\libGCC_kernel.a(GCC_can.o)
                0x4000a9c0                CAN_F_IsCanMaster
                0x4000a9e2                CAN_F_ConfigBoardTypeGet
                0x4000a9f0                CAN_F_IsRunningModeDetermined
                0x4000aa1c                CAN_F_MyModuleIdGet
                0x4000aa60                CAN_F_MyNodeIdGet
                0x4000aa6e                CAN_F_MasterStatusGet
                0x4000aa7c                CAN_F_TimerReset
                0x4000ab10                CAN_F_TimerCountReset
                0x4000ab20                CAN_F_InitArdSaddle
                0x4000ab4c                CAN_F_InitModuleInfoKey
                0x4000ac2e                CAN_F_PrepareBootWithFuseInfo
                0x4000ac54                CAN_F_CanBusActiveChannelGet
                0x4000ac62                CAN_F_CanMgtMessageTreat
                0x4000afea                CAN_F_CanMgtSyncMessageProcess
                0x4000b184                CAN_F_CanMgtHbMessageProcess
                0x4000b31e                CAN_F_CanMgtMessageProcess
                0x4000b552                CAN_F_CanMgtFlagProcess
                0x4000b6e6                CAN_F_MgtTask
                0x4000b758                CAN_F_FlushFifo
                0x4000b88e                CAN_F_MgtStart
                0x4000baae                CAN_F_FlashingValueGet
                0x4000bb52                CAN_F_TimerModeNotDefinedHandler
                0x4000bb70                CAN_F_TimerModeDefinedHandler
                0x4000be94                CAN_F_TimerHandler
                0x4000bf06                CAN_F_MgtCreate
                0x4000c17e                CAN_F_SwitchMode
                0x4000c202                CAN_F_MgtCanMessagePost
                0x4000c570                CAN_F_FlashingManage
                0x4000c5c2                CAN_F_IPoverCANVersionGet
                0x4000c612                CAN_F_IsDistantODSupported
                0x4000c6bc                CAN_F_MasterStatusSet
                0x4000c734                CAN_F_InternalStateGet
 *fill*         0x4000c802        0x2 
 .text          0x4000c804      0xf64 ../kernel/lib/CPU_B\libGCC_kernel.a(GCC_can_ard.o)
                0x4000c804                CAN_ARD_F_SendFragmentationFlagClear
                0x4000c816                CAN_ARD_F_FirstFrameMemblockGet
                0x4000c846                CAN_ARD_F_ReleaseFrame
                0x4000c8c8                CAN_ARD_F_SendFrame
                0x4000cb00                CAN_ARD_F_ReserveFreeFrame
                0x4000cbec                CAN_ARD_F_GetFragmentToSend
                0x4000d020                CAN_ARD_F_RecvFrame
                0x4000d62c                CAN_ARD_F_Init
 .text          0x4000d768      0x9b4 ../kernel/lib/CPU_B\libGCC_kernel.a(GCC_can_config.o)
                0x4000d768                CAN_CONF_F_GetCobIDMinRx
                0x4000d776                CAN_CONF_F_GetCobIDMaxRx
                0x4000d784                CAN_CONF_F_GetCobIDMinStandby
                0x4000d792                CAN_CONF_F_GetCobIDMaxStandby
                0x4000d7a0                CAN_CONF_F_GetFlashingPeriod
                0x4000d7ae                CAN_CONF_F_MinMaxBuild
                0x4000da50                CAN_CONF_F_GetTxPDOStruct
                0x4000dabe                CAN_CONF_F_GetNbOfTxPDO
                0x4000db24                CAN_CONF_F_GetRxPDOStruct
                0x4000db92                CAN_CONF_F_GetNbOfRxPDO
                0x4000dbf8                CAN_CONF_F_Init
                0x4000dc0e                CAN_CONF_F_SafeDataConsistencyCheck
                0x4000e074                CAN_CONF_F_ConfCheckAndBuild
                0x4000e0d2                CAN_CONF_F_IsStepperRedundancy
                0x4000e0e0                CAN_CONF_F_RedundancyBuild
 .text          0x4000e11c      0x520 ../kernel/lib/CPU_B\libGCC_kernel.a(GCC_can_emcy.o)
                0x4000e11c                CAN_F_EmcyGet
                0x4000e1d6                CAN_EMCY_F_EmcyReceive
                0x4000e4b0                CAN_F_EmcySend
                0x4000e61c                CAN_EMCY_F_Init
 .text          0x4000e63c     0x19dc ../kernel/lib/CPU_B\libGCC_kernel.a(GCC_can_od.o)
                0x4000e63c                CAN_OD_F_OdInit
                0x4000ebe6                CAN_OD_F_TableIndexFind
                0x4000ed76                CAN_OD_F_IsMonitoringDatasTable
                0x4000ee76                CAN_OD_F_IndexTableCheck
                0x4000f016                CAN_OD_F_SdoChannelGet
                0x4000f0de                CAN_OD_F_ObjectTypeGet
                0x4000f300                CAN_OD_F_OdObjectSet
                0x4000f520                CAN_OD_F_ODDataSet
                0x4000f692                CAN_F_SdoObjectSet
                0x4000f838                CAN_OD_F_OdObjectGet
                0x4000fa38                CAN_OD_F_ODDataGet
                0x4000fc14                CAN_F_SdoObjectGet
                0x4000ffc8                CAN_F_ODVersionGet
 .text          0x40010018      0x34c ../kernel/lib/CPU_B\libGCC_kernel.a(GCC_can_odplug.o)
                0x40010018                CAN_ODPLUG_F_Init
                0x40010040                CAN_ODPLUG_F_CheckFilter
                0x400101be                CAN_ODPLUG_F_AddRule
 .text          0x40010364     0x2c38 ../kernel/lib/CPU_B\libGCC_kernel.a(GCC_can_open.o)
                0x40010364                CAN_F_GuestIsStarted
                0x400103e6                CAN_F_NmtCubicleStatusGet
                0x40010488                CAN_F_MaintenanceInfoGet
                0x400105da                CAN_F_ModuleIsPresent
                0x400106a2                CAN_F_NmtIsNormalBoardHere
                0x40010892                CAN_OPEN_F_MasterModeSet
                0x400108de                CAN_OPEN_F_MasterOperationalStateSet
                0x400109d0                CAN_OPEN_F_CanOpenStatusInit
                0x40010a38                CAN_OPEN_F_Init
                0x40010bda                CAN_OPEN_F_NmtSend
                0x40010e3c                CAN_OPEN_F_NmtProcess
                0x40011218                CAN_OPEN_F_HeartBeatSend
                0x4001156c                CAN_OPEN_F_HeartBeatProcess
                0x40011cb6                CAN_OPEN_F_BusOffProcess
                0x40011e74                CAN_OPEN_F_MediumOutOfOrder
                0x4001201e                CAN_OPEN_F_TimeStampSend
                0x40012178                CAN_OPEN_F_SyncSend
                0x40012286                CAN_OPEN_F_StatsNmtManage
                0x40012380                CAN_OPEN_F_NmtStartNode
                0x400124f8                CAN_OPEN_F_MyStatusGet
                0x4001253e                CAN_OPEN_F_ModuleStatusGet
                0x40012818                CAN_OPEN_F_IsNodeHere
                0x40012968                CAN_OPEN_F_Flush
                0x40012a3c                CAN_OPEN_F_BusSwitch
                0x40012b20                CAN_OPEN_F_ODVersionSet
                0x40012b7e                CAN_OPEN_F_ModuleIdInternalStateGet
                0x40012dc6                CAN_OPEN_F_IPoverCANVersionSet
                0x40012e24                CAN_OPEN_F_DecodeHeartBeat
 .text          0x40012f9c      0xb90 ../kernel/lib/CPU_B\libGCC_kernel.a(GCC_can_saddle.o)
                0x4001307e                CAN_F_SaddleExtractCanPrio
                0x40013234                CAN_F_SaddleProtocolSubscribe
                0x40013398                CAN_SADDLE_F_StoreRecvFrame
                0x4001362a                CAN_F_SaddleRecv
                0x400138c2                CAN_F_SaddleSend
                0x40013af6                CAN_SADDLE_F_Init
 .text          0x40013b2c     0x1b04 ../kernel/lib/CPU_B\libGCC_kernel.a(GCC_can_safety.o)
                0x40013b2c                CAN_F_SafetyConfigure
                0x40013b5c                CAN_SAFETY_F_NextSyncNumberToSendGet
                0x40013c08                CAN_SAFETY_F_GetCurrentSyncNumberRecv
                0x40013c16                CAN_SAFETY_F_CanMessagePost
                0x40013f98                CAN_SAFETY_F_SafetyIDFind
                0x400140b2                CAN_SAFETY_F_SafetyLayerBuild
                0x400141d8                CAN_SAFETY_F_PdoIdFind
                0x400142d8                CAN_SAFETY_F_PdoSend
                0x40014400                CAN_SAFETY_F_PdosFindAndSend
                0x400144e4                CAN_SAFETY_F_SafetyLayerCheck
                0x4001473e                CAN_SAFETY_F_PdoCheckAndWrite
                0x40014938                CAN_SAFETY_F_PdoReceptionMgt
                0x400149d6                CAN_SAFETY_F_SyncConsistencyCheck
                0x40014aee                CAN_F_GetBooleanRedundancyDefault
                0x40014bd8                CAN_SAFETY_F_PdoIdConversionTableBuildFor
                0x40014d48                CAN_F_SafetyCreate
                0x40014f24                CAN_F_SafetyConfig
                0x40014f2e                CAN_F_SafetyStart
                0x4001500c                CAN_F_SafetyTask
 .text          0x40015630     0x7966 ../kernel/lib/CPU_B\libGCC_kernel.a(GCC_can_sdo.o)
                0x40015630                CAN_SDO_F_ConvertErrorCode
                0x400156bc                CAN_SDO_F_ClientGet
                0x400158d4                CAN_SDO_F_DisplayErr
                0x4001590a                CAN_SDO_F_ClientPrepare
                0x40015d20                CAN_SDO_F_SdoPost
                0x400163f8                CAN_SDO_F_Send
                0x4001669c                CAN_SDO_F_TempoChange
                0x4001672e                CAN_SDO_F_ReleaseWaitSemaphore
                0x400167ee                CAN_SDO_F_AllSegmentReceived
                0x40016880                CAN_SDO_F_EraseCurrentBlockInfo
                0x400168d8                CAN_SDO_F_InitGlobalSDOParameter
                0x40016a40                CAN_SDO_F_ResetContext
                0x40016ad2                CAN_SDO_F_EndBlockDownload
                0x40016d1a                CAN_SDO_F_EndBlockUpload
                0x40016eb4                CAN_SDO_F_DownloadBlock
                0x40017154                CAN_SDO_F_UploadBlock
                0x4001738a                CAN_SDO_F_InitiateBlockDownload
                0x40017604                CAN_SDO_F_InitiateBlockUpload
                0x4001783e                CAN_SDO_F_DownloadSegment
                0x40017b38                CAN_SDO_F_UploadSegment
                0x40017eee                CAN_SDO_F_Abort
                0x4001803c                CAN_SDO_F_ClientTransfertEnd
                0x40018a46                CAN_SDO_F_ClientTransfertWait
                0x40018b7e                CAN_SDO_F_isCommunicationOpened
                0x40018cee                CAN_SDO_F_checkIndexSubindex
                0x40018e58                CAN_SDO_F_MessageBlkTransfer
                0x40019276                CAN_SDO_F_InitiateDownload
                0x40019612                CAN_SDO_F_InitiateUpload
                0x4001994e                CAN_SDO_F_ClientSendIfNew
                0x40019e16                CAN_SDO_F_TempoChannelUpdate
                0x40019f02                CAN_SDO_F_ClientProceedEnd
                0x40019f5a                CAN_SDO_F_AbortCommand_0x4
                0x4001a182                CAN_SDO_F_Req_Com_0x0
                0x4001a5dc                CAN_SDO_F_Req_Com_0x1
                0x4001aa38                CAN_SDO_F_Req_Com_0x2
                0x4001ab42                CAN_SDO_F_Req_Com_0x3
                0x4001ac6e                CAN_SDO_F_Req_Com_0x5_Sub_0x0
                0x4001af1c                CAN_SDO_F_Req_Com_0x5_Sub_0x2
                0x4001afee                CAN_SDO_F_Req_Com_0x5
                0x4001b164                CAN_SDO_F_Req_Com_0x6
                0x4001b7f2                CAN_SDO_F_ProceedRequest
                0x4001b9fa                CAN_SDO_F_Resp_Com_0x0
                0x4001bde2                CAN_SDO_F_Resp_Com_0x1
                0x4001bf0a                CAN_SDO_F_Resp_Com_0x2
                0x4001c2e4                CAN_SDO_F_Resp_Com_0x3
                0x4001c3dc                CAN_SDO_F_Resp_Com_0x5_Sub_0x0
                0x4001c520                CAN_SDO_F_Resp_Com_0x5_Sub_0x2
                0x4001c5fa                CAN_SDO_F_Resp_Com_0x5
                0x4001c780                CAN_SDO_F_Resp_Com_0x6_Sub_0x0
                0x4001c9f6                CAN_SDO_F_Resp_Com_0x6_Sub_0x1
                0x4001cc34                CAN_SDO_F_Resp_Com_0x6
                0x4001ccde                CAN_SDO_F_ProceedResponse
 *fill*         0x4001cf96        0x2 
 .text          0x4001cf98      0x95a ../kernel/lib/CPU_B\libGCC_kernel.a(GCC_can_time.o)
                0x4001cfe4                CAN_F_TimeCanOpenGet
                0x4001d026                CAN_TIME_F_Init
                0x4001d080                CAN_TIME_F_CanTimeGet
                0x4001d08e                CAN_TIME_F_HeartBeatCycleGet
                0x4001d09c                CAN_TIME_F_HeartBeatCycleSet
                0x4001d0b0                CAN_TIME_F_HeartBeatCycleReset
                0x4001d0c0                CAN_F_TimeNtpSet
                0x4001d214                CAN_F_TimeNtpGet
                0x4001d340                CAN_TIME_F_TimeStampGet
                0x4001d3a8                CAN_TIME_F_TimeStampSet
                0x4001d524                CAN_TIME_F_TimeStampUpdate
                0x4001d760                CAN_TIME_F_CanTimeUpdate
                0x4001d81e                CAN_TIME_F_HeartBeatPeriodGet
                0x4001d82c                CAN_TIME_F_HeartBeatSpreadAndPeriodInitialize
 *fill*         0x4001d8f2        0x2 
 .text          0x4001d8f4      0x4bc ../kernel/lib/CPU_B\libGCC_kernel.a(GCC_CONF.o)
                0x4001d8f4                CONF_F_SetConfKeyStatus
                0x4001d908                CONF_F_GetConfKeyStatus
                0x4001d916                CONF_F_ValidationFuncSubscribe
                0x4001d9a4                CONF_F_ExternalValidation
                0x4001daf0                CONF_F_OKNotificationCbSubscribe
                0x4001db7e                CONF_F_NotifyOkCallBack
                0x4001dc22                CONF_F_GetModuleIoInfo
                0x4001dd42                CONF_F_FaultFilteringAcknowledge
                0x4001dd7e                CONF_F_ReconfReparamVersionGet
 .text          0x4001ddb0     0x4644 ../kernel/lib/CPU_B\libGCC_kernel.a(GCC_CONF_local.o)
                0x4001ddb0                CONF_LOCAL_F_FileStatusNotifyCb
                0x4001df2c                CONF_LOCAL_F_CreateReprogFile
                0x4001dfb2                CONF_LOCAL_F_CreateEstampFile
                0x4001e09a                CONF_LOCAL_F_CreateBidFile
                0x4001e182                CONF_LOCAL_F_Init
                0x4001e478                CONF_LOCAL_F_StatisticInit
                0x4001e4a8                CONF_LOCAL_F_CreateIpConfigurationArea
                0x4001e4d8                CONF_LOCAL_F_ResetIpConfiguration
                0x4001e51e                CONF_LOCAL_F_RestoreLastIpConfiguration
                0x4001e5ca                CONF_LOCAL_F_BidCheck
                0x4001e6a2                CONF_LOCAL_F_BidWaitAndCheck
                0x4001e926                CONF_LOCAL_F_EstampWaitAndCheck
                0x4001eb86                CONF_LOCAL_F_MemoryAreaMyParamGet
                0x4001eb94                CONF_LOCAL_F_MemoryAreaMyConfGet
                0x4001eba2                CONF_LOCAL_F_ParamStatusNotifyCb
                0x4001edbe                CONF_LOCAL_F_CreateAndAddSourcesToMyDatasetFiles
                0x4001f024                CONF_LOCAL_F_ModuleParametersInfoForMaintenance
                0x4001f11e                CONF_LOCAL_F_MaintenanceInit
                0x4001f224                CONF_LOCAL_F_UnusedParametersReset
                0x4001f236                CONF_LOCAL_F_UnusedParametersUpdate
                0x4001f2a4                CONF_LOCAL_F_BidCycleCheck
                0x4001f870                CONF_LOCAL_F_FaultFilteringEndResetState
                0x4001f8e0                CONF_LOCAL_F_FaultFilteringEndReadState
                0x4001fc60                CONF_LOCAL_F_FaultFilteringUpdate
                0x4001fc92                CONF_LOCAL_F_RunningHoursUpdate
                0x4001fe4a                CONF_LOCAL_F_RunningTimeUpdate
                0x4001ffe6                CONF_LOCAL_F_Periodic
                0x40020002                CONF_F_IsTransplantable
                0x40020010                CONF_LOCAL_F_GetIpStackInfoFromUserData
                0x400205ec                CONF_LOCAL_F_PrepareMyDatasetFileDescriptors
                0x4002075e                CONF_LOCAL_F_GetIpStackInfo
                0x40020a32                CONF_LOCAL_F_GetBoardCode
                0x40020a52                CONF_F_GetOverTempThreshold
                0x40020a6a                CONF_F_GetDataVersion
                0x40020a82                CONF_F_GetCanFlashingPeriod
                0x40020a9a                CONF_F_IsFaultFilteringActive
                0x40020ab2                CONF_F_GetPDOStruct
                0x40020ace                CONF_F_GetRestrictiveValuesByPdoID
                0x40020b9e                CONF_F_GetSafetyID
                0x40020bb2                CONF_F_GetOutputSafeData
                0x40020bca                CONF_F_GetInputSafeData
                0x40020be2                CONF_F_GetGenericRedundancyArray
                0x40020bfa                CONF_F_GetBooleanRedundancyArray
                0x40020c12                CONF_F_GetFreezingTimer
                0x40020c38                CONF_F_GetFreezingTimerByPdoId
                0x40020cee                CONF_F_GetSnmpInfo
                0x40020e56                CONF_F_GetSntpIpServer
                0x40020f1a                CONF_F_GetFsfb2SinglePort
                0x40020f32                CONF_F_GetFsfb2RedoundedPort
                0x40020f4a                CONF_F_GetRSSP1_PrimaryCpuA_Port
                0x40020f62                CONF_F_GetRSSP1_PrimaryCpuB_Port
                0x40020f7a                CONF_F_GetRSSP1_SecondaryCpuA_Port
                0x40020f92                CONF_F_GetRSSP1_SecondaryCpuB_Port
                0x40020faa                CONF_F_GetUnsafetyNormPort
                0x40020fc2                CONF_F_GetUnsafetyRedundPort
                0x40020fda                CONF_F_GetUsigUevolRedundancyInfo
                0x40020ff8                CONF_F_GetIpStackInfoForValidationConfig
                0x400210a2                CONF_F_GetIpStackInfo
                0x4002130c                CONF_F_IsRedundancyStandalone
                0x40021376                CONF_F_GetUsigRedStructByIdx
                0x40021398                CONF_F_GetUsigRssp1RedStructByIdx
                0x400213ba                CONF_F_GetUsigRedundancyStruct
                0x400213e6                CONF_F_GetUsigRssp1RedundancyStruct
                0x40021412                CONF_F_GetUsigIdentParamByDynId
                0x40021442                CONF_F_GetUsigRssp1IdentParamByDynId
                0x40021472                CONF_F_GetUsigIdentParamByEqId
                0x400214a2                CONF_F_GetUsigRssp1IdentParamByEqId
                0x400214d2                CONF_F_GetUsigParamStruct
                0x40021500                CONF_F_GetUsiggRssp1ParamStruct
                0x4002152e                CONF_F_GetSrttTimeoutByEqId
                0x40021554                CONF_F_GetUsigOperation
                0x4002157a                CONF_F_GetUsigFsfb2IdByIndex
                0x400215ac                CONF_F_GetFsfb2ParamByEqId
                0x400215e2                CONF_F_GetMessageArray
                0x40021608                CONF_F_GetAppliSubArea
                0x40021628                CONF_F_GetModuleParametersInfo
                0x4002188e                CONF_F_GetBoardTypeInKey
                0x400218f0                CONF_F_GuessBoardType
                0x4002195c                CONF_F_GetRackAndSlot
                0x40021a84                CONF_F_GetMyBoardNumber
                0x40021ace                CONF_F_GetCanOpenODInfo
                0x40021dfc                CONF_F_GetHwAndSwVersions
                0x40021f82                CONF_F_AddSourcesToFilesWithFuseInfo
                0x400222be                CONF_LOCAL_F_SaveLastIpConfiguration
                0x4002232e                CONF_F_GetCobIdOfPdoTime
                0x4002233a                CONF_F_GetCobIdByPdoID
 .text          0x400223f4     0x1f2c ../kernel/lib/CPU_B\libGCC_kernel.a(GCC_CONF_src.o)
                0x400223f4                CONF_SRC_ASYNC_F_EndReadAction
                0x4002251a                CONF_SRC_ASYNC_F_EndWriteAction
                0x4002260a                CONF_SRC_ASYNC_F_EndReadActionCallBack
                0x40022682                CONF_SRC_ASYNC_F_EndWriteActionCallBack
                0x400226fa                CONF_SRC_ASYNC_F_ReadDefault
                0x400227b2                CONF_SRC_ASYNC_F_ReadHeaderActionCallBack
                0x4002298a                CONF_SRC_ASYNC_F_ReadHeader
                0x40022a42                CONF_SRC_ASYNC_F_ReadHeaderParallelFlashActionCallBack
                0x40022b8e                CONF_SRC_ASYNC_F_ReadHeaderParallelFlash
                0x40022c46                CONF_SRC_ASYNC_F_AsyncFileOpProcess
                0x40022de8                CONF_SRC_ASYNC_F_SetDefaultSize
                0x40022e30                Drv_BID_F_SourcePeriodicTask
                0x40022f16                Drv_BID_F_SourceIsVolatile
                0x40022f20                Drv_BID_F_SourceFileOpen
                0x40023008                Drv_BID_F_SourceFileGetSize
                0x40023074                Drv_BID_F_SourceFileAsyncFillCache
                0x40023172                Drv_BID_F_Create
                0x400231fc                Drv_BID_F_SourceInstanceGet
                0x4002328c                CONF_SRC_FLASH_F_EndReadActionCallBack
                0x40023338                CONF_SRC_FLASH_F_SourceFileFind
                0x400233e2                CONF_SRC_FLASH_F_UpdatePhysAddress
                0x4002350e                CONF_SRC_FLASH_F_EndWriteActionCallBack
                0x400235ac                CONF_SRC_FLASH_F_EraseCallBack
                0x4002368c                CONF_SRC_FLASH_F_SourcePeriodicTask
                0x400236fa                CONF_SRC_FLASH_F_SourceIsVolatile
                0x40023704                CONF_SRC_FLASH_F_SourceInstanceGet
                0x40023784                CONF_SRC_FLASH_F_Write
                0x40023884                CONF_SRC_FLASH_F_SourceFileOpen
                0x40023bd2                CONF_SRC_FLASH_F_SourceFileGetSize
                0x40023c62                CONF_SRC_FLASH_F_SourceFileAsyncFlushCache
                0x40023d94                CONF_SRC_FLASH_F_SourceFileAsyncFillCache
                0x40023e80                CONF_SRC_FLASH_F_Create
 .text          0x40024320      0x7ec ../kernel/lib/CPU_B\libGCC_kernel.a(GCC_FCODE.o)
                0x40024320                FCODE_F_Init
                0x400243b2                FCODE_F_MaintenanceReadyNotify
                0x400243c8                FCODE_F_LogDefaultToOBD
                0x400244d2                FCODE_F_FailureCodeClear
                0x400247aa                FCODE_F_FailureCodeSetExt
                0x40024a54                FCODE_F_FailureCodeSet
 .text          0x40024b0c     0x596a ../kernel/lib/CPU_B\libGCC_kernel.a(GCC_FILESYS.o)
                0x40024b0c                FILESYS_F_MemoryAreaInit
                0x40024bca                FILESYS_F_BufferAllocator
                0x40024d30                FILESYS_F_DefaultCacheAllocator
                0x40024dfa                FILESYS_F_SubscribeSource
                0x40025026                FILESYS_F_FindFileInList
                0x40025182                FILESYS_F_FindFileInFs
                0x400252a4                FILESYS_F_FileCreate
                0x400255e6                FILESYS_F_FileCreateExt
                0x400256c0                FILESYS_F_SymLinkCreate
                0x40025938                FILESYS_F_SymLinkCreateExt
                0x400259ec                FILESYS_F_RequestResetFileCache
                0x40025b8a                FILESYS_F_TryAllocation
                0x40025e6e                FILESYS_F_FileBuildUserFileDesc
                0x400260a8                FILESYS_F_FileStatusSet
                0x40026430                FILESYS_F_FileStatusGet
                0x400265b4                FILESYS_F_SourceAppend
                0x40026768                FILESYS_F_VirtualSourceSet
                0x400268de                FILESYS_F_FileWrite
                0x40026a2c                FILESYS_F_FileReadSeq
                0x40026bba                FILESYS_F_FileRead
                0x40026c8c                FILESYS_F_FileOpen
                0x40026d44                FILESYS_F_FileGetSize
                0x40026e2e                FILESYS_F_FileRegisterNotificationCB
                0x40026ec0                FILESYS_F_FileDescSetOutdated
                0x40027016                FILESYS_F_FileSetOutdated
                0x4002718c                FILESYS_F_FileVirtualSetUpToDate
                0x4002731a                FILESYS_F_FileAskReFill
                0x400274ae                FILESYS_F_FileAskFlush
                0x40027658                FILESYS_F_FileRefresh
                0x400277b8                FILESYS_F_FileGetAccess
                0x400278e6                FILESYS_F_InvalidateCache
                0x4002796a                FILESYS_F_FileVirtualSetUnavailable
                0x40027adc                FILESYS_F_FileCacheInvalidate
                0x40027bfc                FILESYS_F_DoubleBufferNewDataAvailable
                0x40027d58                FILESYS_F_DoubleBufferSwitch
                0x40027fc6                FILESYS_F_SourceRecover
                0x40028130                FILESYS_F_CopySourceInstanceGet
                0x4002823c                FILESYS_F_MonitorFileActivity
                0x400282ca                FILESYS_F_IsAMonitoredFile
                0x40028414                FILESYS_F_ResetFileCache
                0x4002891a                FILESYS_F_MoveElemToDestListTail
                0x400289dc                FILESYS_F_ManageResetCacheAction
                0x40028aa4                FILESYS_F_ManageFlushFileAction
                0x40028dae                FILESYS_F_FileFillCacheNotifyCb
                0x40028f40                FILESYS_F_FillCache
                0x400295fc                FILESYS_F_ManageSourceOfOutdatedFile
                0x40029a3e                FILESYS_F_ReFillingCacheOfFile
                0x40029c1e                FILESYS_F_ProcessSourcePeriodicTask
                0x40029df6                FILESYS_F_Create
                0x4002a060                FILESYS_F_Config
                0x4002a07a                FILESYS_F_Task
                0x4002a35e                FILESYS_F_DatasetRetreivalAllow
                0x4002a37a                FILESYS_F_DatasetRetreivalIsInProgressGet
                0x4002a3a4                FILESYS_F_ProtocolVersionGet
                0x4002a3ec                FILESYS_F_TFTPServiceInit
 *fill*         0x4002a476        0x2 
 .text          0x4002a478      0x414 ../kernel/lib/CPU_B\libGCC_kernel.a(GCC_FILESYS_int.o)
                0x4002a478                FILESYS_INT_SRC_F_SourceIsVolatile
                0x4002a482                FILESYS_INT_SRC_F_SourceFileOpen
                0x4002a6a2                FILESYS_INT_SRC_F_SourceFileGetSize
                0x4002a74e                FILESYS_INT_SRC_F_CopySourceFileAsyncFillCache
                0x4002a82c                FILESYS_INT_SRC_F_SourceInit
 .text          0x4002a88c     0x41f4 ../kernel/lib/CPU_B\libGCC_kernel.a(GCC_FILESYS_tftp.o)
                0x4002a88c                FILESYS_TFTP_SRC_F_EntryReset
                0x4002aae8                FILESYS_TFTP_SRC_F_SourceInstanceCreate
                0x4002ac3c                FILESYS_TFTP_SRC_F_IsSourceVolatile
                0x4002ac46                FILESYS_TFTP_SRC_F_SourceFileGetSize
                0x4002acd6                FILESYS_TFTP_SRC_F_SourceFileAsyncFillCache
                0x4002afdc                FILESYS_TFTP_SRC_F_SourceInstanceGet
                0x4002b128                FILESYS_TFTP_SRC_SourceFileOpen
                0x4002b5fa                FILESYS_TFTP_SRC_F_CheckPendingTimerStatus
                0x4002b69e                FILESYS_TFTP_F_ServiceClose
                0x4002b6f0                FILESYS_TFTP_F_GetPrioFromIPAddr
                0x4002b794                FILESYS_TFTP_SRC_F_FileStatusGet
                0x4002baba                FILESYS_TFTP_SRC_F_FileContentRead
                0x4002bde0                FILESYS_TFTP_SRC_F_FileStatusGetCheck
                0x4002c62c                FILESYS_TFTP_SRC_F_FileContentReadCheck
                0x4002c972                FILESYS_TFTP_SRC_F_PeriodicTask
                0x4002d960                FILESYS_TFTP_F_ServiceOpen
                0x4002de0a                FILESYS_TFTP_F_ManageCommandDetail
                0x4002e30c                FILESYS_TFTP_F_ManageCommandRead
                0x4002e688                FILESYS_TFTP_F_ManageCommandInfo
                0x4002e816                FILESYS_TFTP_F_GetNewSession
                0x4002e91e                FILESYS_TFTP_F_ExtractGivenFile
 .text          0x4002ea80      0x270 ../kernel/lib/CPU_B\libGCC_kernel.a(GCC_Flash.o)
                0x4002ea80                FLASH_F_PreInit
                0x4002ea96                FLASH_F_Create
                0x4002eae8                FLASH_F_Task
                0x4002eb4a                FLASH_F_SuspendDirect
                0x4002eb86                FLASH_F_ResumeDirect
                0x4002ebc2                FLASH_F_EraseDirect
                0x4002ec08                FLASH_F_WriteDirect
                0x4002ec52                FLASH_F_ReadDirect
                0x4002ec9c                FLASH_F_MemsetDirect
 .text          0x4002ecf0     0x1636 ../kernel/lib/CPU_B\libGCC_kernel.a(GCC_Flash_Async.o)
                0x4002ecf0                FLASH_ASYNC_F_Init
                0x4002ed48                FLASH_ASYNC_F_GetSubscribedDev
                0x4002edc8                FLASH_ASYNC_F_SubscribeFlashDevice
                0x4002f2c0                FLASH_ASYNC_F_GetFlashDevice
                0x4002f2f8                FLASH_ASYNC_F_MallocAction
                0x4002f39c                FLASH_ASYNC_F_PostActionToPrioQ
                0x4002f502                FLASH_F_AskLock
                0x4002f584                FLASH_F_Unlock
                0x4002f5d4                FLASH_F_EraseAsync
                0x4002f666                FLASH_F_WriteAsync
                0x4002f708                FLASH_F_MemsetAsync
                0x4002f7b2                FLASH_F_ReadAsync
                0x4002f87e                FLASH_ASYNC_F_GetCurrentActionInfo
                0x4002facc                FLASH_ASYNC_F_StoreInCurrentActionList
                0x4002fbda                FLASH_ASYNC_F_BoostPrioSuspendedAction
                0x4002fcc4                FLASH_ASYNC_F_EvaluateActionsOnAllFlash
                0x40030134                FLASH_ASYNC_F_ActionProcess
 *fill*         0x40030326        0x2 
 .text          0x40030328      0xca0 ../kernel/lib/CPU_B\libGCC_kernel.a(GCC_Flash_Direct.o)
                0x40030328                FLASH_DRV_F_InitActionCtx
                0x40030388                FLASH_DRV_F_ContinueLastOperation
                0x40030534                FLASH_DRV_F_GetPartAccessSize
                0x400307a0                FLASH_DRV_F_StartNewOperation
                0x40030b46                FLASH_DRV_F_AccessPart
                0x40030c34                FLASH_DRV_F_Suspend
                0x40030c84                FLASH_DRV_F_Resume
                0x40030cd4                FLASH_DRV_F_Erase
                0x40030d86                FLASH_DRV_F_Write
                0x40030e52                FLASH_DRV_F_Read
                0x40030f1e                FLASH_DRV_F_Memset
 .text          0x40030fc8      0xa88 ../kernel/lib/CPU_B\libGCC_kernel.a(GCC_gdf.o)
                0x40031014                GDF_F_FileNameCrcCompute
                0x400310c2                GDF_F_FusesWrite
                0x400311c2                GDF_F_FuseSwBurnArea
                0x40031206                GDF_F_FuseSystemInSafety
                0x4003175a                GDF_F_FuseXirq
                0x400318de                GDF_F_LogInternal
                0x40031948                GDF_F_DumpStack
                0x400319e0                GDF_F_FaultInternal
 .text          0x40031a50      0x8cc ../kernel/lib/CPU_B\libGCC_kernel.a(GCC_gdf_dump_tools.o)
                0x40031a50                GDF_DUMP_TOOLS_F_MemorizeModeBeforeGdf
                0x40031a7a                GDF_DUMP_TOOLS_F_WritePart
                0x40031d6c                GDF_DUMP_TOOLS_F_DumpBuffer
                0x40031e58                GDF_DUMP_TOOLS_F_DumpMemory
                0x40032294                GDF_DUMP_TOOLS_F_FaultFilteringStoreInfo
 .text          0x4003231c      0x4d6 ../kernel/lib/CPU_B\libGCC_kernel.a(GCC_MATH.o)
                0x4003231c                MATH_F_ComputeCRC32CCITT
                0x400323d2                MATH_F_LfsrShiftRight
                0x40032424                MATH_F_LfsrPost
                0x4003244e                MATH_F_LfsrSub
                0x40032478                MATH_F_LfsrAdd
                0x400324e0                MATH_F_ComputeCRC32FSFB2ChanOne
                0x400325da                MATH_F_ComputeCRC16CCITT
                0x400326e6                MATH_F_KeyScramble
 *fill*         0x400327f2        0x2 
 .text          0x400327f4     0x2500 ../kernel/lib/CPU_B\libGCC_kernel.a(GCC_osw.o)
                0x400327f4                OSW_F_MemCreate
                0x4003294e                OSW_F_MemGet
                0x40032b22                OSW_F_MemPut
                0x40032b92                OSW_F_SemCreate
                0x40032bbc                OSW_F_SemPend
                0x40032ce8                OSW_F_SemPost
                0x40032d2c                OSW_F_SemAccept
                0x40032d70                OSW_F_QCreate
                0x40032dc2                OSW_F_QPost
                0x40032e32                OSW_F_QPostFront
                0x40032ea2                OSW_F_QPend
                0x40032fd8                OSW_F_QAccept
                0x40033048                OSW_F_FlagCreate
                0x40033094                OSW_F_FlagPost
                0x40033118                OSW_F_FlagAccept
                0x400331a0                OSW_F_FlagPend
                0x400332ea                OSW_F_TimeDly
                0x4003330a                OSW_F_TickGet
                0x40033318                OSW_F_TempoStart
                0x40033398                OSW_F_TempoReload
                0x400334b8                OSW_F_TempoState
                0x4003355c                OSW_F_TempoRemainingTick
                0x40033690                OSW_F_TempoStop
                0x400336ec                OSW_F_TaskPrioGet
                0x40033734                OSW_F_IsOsStarted
                0x40033758                OSW_F_PrioQCreate
                0x4003383e                OSW_F_PrioQAddLevel
                0x40033b18                OSW_F_ExtractMostPrioMessage
                0x40033c22                OSW_F_PrioQPend
                0x40033dd4                OSW_F_PrioQAccept
                0x40033ed0                OSW_F_PrioQPost
                0x400340e0                OSW_F_PrioQHasPrioMessage
                0x40034196                OSW_F_ListInit
                0x400341f4                OSW_F_ListInsertBefore
                0x400342c0                OSW_F_ListAddToTail
                0x4003438c                OSW_F_ListInsertAfter
                0x4003445c                OSW_F_ListAddToHead
                0x4003452c                OSW_F_ListExtractFromHead
                0x40034622                OSW_F_ListExtractFromTail
                0x4003470c                OSW_F_ListRemove
                0x4003480c                OSW_F_ListGetNext
                0x40034884                OSW_F_FifoInit
                0x40034974                OSW_F_FifoExtract
                0x40034a5c                OSW_F_FifoInsert
                0x40034b7e                OSW_F_QQuery
                0x40034bfc                OSW_F_SemQuery
                0x40034c76                OSW_F_MemQuery
 .text          0x40034cf4     0x1348 ../kernel/lib/CPU_B\libGCC_kernel.a(GCC_print.o)
                0x40034cf4                PRINT_F_HardwareInit
                0x4003510c                PRINT_F_PrintfWithTaintInfo
                0x4003541a                PRINT_F_PrintfInternal
                0x40035470                PRINT_F_Create
                0x4003567c                PRINT_F_Config
                0x40035686                PRINT_F_Start
                0x400356a8                PRINT_F_Task
                0x4003573c                PRINT_F_ReportActiveIntegration
                0x4003576a                PRINT_F_PrintfAuth
                0x40035948                PRINT_F_Report
                0x40035f1c                PRINT_F_Printf
                0x40035f90                DTXT_F_Report
                0x40035fd4                DTXT_F_Printf
 .text          0x4003603c     0x12ea ../kernel/lib/CPU_B\libGCC_kernel.a(GCC_RECORD.o)
                0x4003603c                RECORD_F_CheckIntegrity
                0x400364d6                RECORD_F_EStampGetContents
                0x40036abc                RECORD_F_Task
                0x40036b92                RECORD_F_Start
                0x40036d08                RECORD_F_StMainIdle
                0x40036dec                RECORD_F_StMainEventWrite
                0x40036f64                RECORD_F_StMainBackupLog
                0x400370dc                RECORD_F_StMainFlush
                0x40037230                RECORD_F_Create
                0x400372d6                RECORD_F_GetElecStampStatus
                0x400372e4                RECORD_F_SetElecStampStatus
 *fill*         0x40037326        0x2 
 .text          0x40037328     0x11a8 ../kernel/lib/CPU_B\libGCC_kernel.a(GCC_RECORD_evt.o)
                0x40037328                RECORD_EVT_F_IsBackupNeeded
                0x4003734e                RECORD_EVT_F_LogInit
                0x400373d6                RECORD_EVT_F_LogRun
                0x400374ac                RECORD_EVT_F_BackupInit
                0x4003750a                RECORD_EVT_F_BackupRun
                0x4003753c                RECORD_EVT_F_StEvtLock
                0x4003764a                RECORD_EVT_F_EventDirectWrite
                0x4003770c                RECORD_EVT_F_StEvtWrite
                0x400377f0                RECORD_EVT_F_StEvtBckRead
                0x40037b98                RECORD_EVT_F_StEvtBckErase
                0x40037cb8                RECORD_EVT_F_StEvtBckVersionCrc
                0x40037e08                RECORD_EVT_F_IsEvtLogNeeded
                0x40037e80                RECORD_EVT_F_EventStructureVersionCheck
                0x4003800c                RECORD_F_EventLogFreeSpaceManage
                0x40038212                RECORD_F_EventDirectLog
                0x4003827c                RECORD_F_EventLog
                0x40038422                RECORD_EVT_F_Create
 .text          0x400384d0     0x2444 ../kernel/lib/CPU_B\libGCC_kernel.a(GCC_RECORD_pda.o)
                0x4003851c                RECORD_PDA_F_SwitchFrontAndBackAreaBuffers
                0x4003854a                RECORD_PDA_F_GetAreaIndexFromId
                0x4003860a                RECORD_F_AskFlush
                0x40038706                RECORD_F_AskFlushDirect
                0x40038752                RECORD_F_ReserveArea
                0x40038a0a                RECORD_PDA_F_IsFlushNeeded
                0x40038a46                RECORD_PDA_F_FlushRun
                0x40038a78                RECORD_PDA_F_InitRun
                0x40038aaa                RECORD_PDA_F_StInitCompareFrontAndBack
                0x40038ce8                RECORD_PDA_F_FlushInit
                0x40038d50                RECORD_PDA_F_InitInit
                0x40038dc0                RECORD_PDA_F_StFlushInit
                0x4003923a                RECORD_PDA_F_StFlushEnd
                0x40039580                RECORD_PDA_F_StFlushWriteSecondSector
                0x40039658                RECORD_PDA_F_StFlushWriteFirstSector
                0x4003977c                RECORD_PDA_F_StInitCopyRefSector
                0x400398a4                RECORD_PDA_F_StInitCheckHeaders
                0x40039be0                RECORD_PDA_F_StInitResetAll
                0x40039dda                RECORD_PDA_F_Create
                0x40039e36                RECORD_PDA_F_StInitOk
                0x40039f56                RECORD_PDA_F_StInitHeaderDiffCheckRef
                0x4003a094                RECORD_PDA_F_StInitHeaderEqualCheckSecond
                0x4003a1a4                RECORD_PDA_F_StInitHeaderEqualCheckFirst
                0x4003a2ac                RECORD_F_Write
                0x4003a5dc                RECORD_F_WriteDirect
                0x4003a66c                RECORD_F_Read
 .text          0x4003a914     0x186c ../kernel/lib/CPU_B\libGCC_kernel.a(GCC_RECORD_sector.o)
                0x4003a914                RECORD_SECTOR_F_RunReadSector
                0x4003a946                RECORD_SECTOR_F_RunWriteSector
                0x4003a978                RECORD_SECTOR_F_StRdPrepareNextRead
                0x4003ab26                RECORD_SECTOR_F_StRdStart
                0x4003abce                RECORD_SECTOR_F_InitReadSector
                0x4003ace6                RECORD_SECTOR_F_InitWriteSector
                0x4003add4                RECORD_SECTOR_F_StRdAreaHeader
                0x4003b142                RECORD_SECTOR_F_StRdAreaData
                0x4003b4f4                RECORD_SECTOR_F_StRdEnd
                0x4003b5c8                RECORD_SECTOR_F_StWrSectErase
                0x4003b6ec                RECORD_SECTOR_F_StWrSectStatus
                0x4003b82a                RECORD_SECTOR_F_StWrSectCpt
                0x4003b966                RECORD_SECTOR_F_StWrSectWriteAreaHeaderStatus
                0x4003bc02                RECORD_SECTOR_F_StWrSectWriteAreaHeaderCrc
                0x4003beaa                RECORD_SECTOR_F_StWrSectWriteAreaData
 .text          0x4003c180     0x10a8 ../kernel/lib/CPU_B\libGCC_kernel.a(GCC_RECORD_stat.o)
                0x4003c1cc                RECORD_STAT_F_CreatePareto
                0x4003c276                RECORD_STAT_F_EnablePareto
                0x4003c2ce                RECORD_STAT_F_UpdatePareto
                0x4003c3d8                RECORD_STAT_F_DisablePareto
                0x4003c430                RECORD_STAT_F_InitStatistic
                0x4003c52e                RECORD_STAT_F_EnableStatistic
                0x4003c59c                RECORD_STAT_F_DisableStatistic
                0x4003c60c                RECORD_STAT_F_IsStatisticEnabled
                0x4003c644                RECORD_STAT_F_ResetStatistic
                0x4003c6e4                RECORD_STAT_F_StartStopwatch
                0x4003c77e                RECORD_STAT_F_StopStopwatch
                0x4003c8c4                RECORD_STAT_F_ResetStopwatch
                0x4003c93c                RECORD_STAT_F_StopwatchElapsedTime
                0x4003ca86                RECORD_STAT_F_StoreStatisticValue
                0x4003cc7a                RECORD_STAT_F_GetGlobalMinValue
                0x4003cd00                RECORD_STAT_F_GetGlobalMaxValue
                0x4003cd86                RECORD_STAT_F_GetGlobalNbValues
                0x4003cdf2                RECORD_STAT_F_GetGlobalSumValue
                0x4003ce78                RECORD_STAT_F_GetGlobalAverageValue
                0x4003cf14                RECORD_STAT_F_GetMinValueFromRecords
                0x4003d002                RECORD_STAT_F_GetMaxValueFromRecords
                0x4003d0f0                RECORD_STAT_F_GetAverageValueFromRecords
 .text          0x4003d228      0x738 ../kernel/lib/CPU_B\libGCC_kernel.a(GCC_RECORD_utl.o)
                0x4003d274                RECORD_UTL_F_StChIsFinished
                0x4003d2cc                RECORD_UTL_F_StChChangeState
                0x4003d31e                RECORD_UTL_F_StChRunState
                0x4003d418                RECORD_UTL_F_StChInit
                0x4003d46e                RECORD_UTL_F_LogEnteringState
                0x4003d4e8                RECORD_UTL_F_FlashEndOperationNotif
                0x4003d5fa                RECORD_UTL_F_InitFlashEndOpNotif
                0x4003d69e                RECORD_UTL_F_SpiFlashReadWaitFlag
                0x4003d798                RECORD_UTL_F_SpiFlashWriteWaitFlag
                0x4003d892                RECORD_UTL_F_SpiFlashEraseWaitFlag
 .text          0x4003d960     0x1e1a ../kernel/lib/CPU_B\libGCC_kernel.a(GCC_Schedule.o)
                0x4003d960                SCHED_F_GetFlashingGpioState
                0x4003d9ea                SCHED_F_TickHook
                0x4003f03e                SCHED_F_PreInit
                0x4003f1b4                SCHED_F_CreateAndStart
                0x4003f288                SCHED_P_Task
                0x4003f4d4                SCHED_F_FlashingHalfPeriodSet
                0x4003f4f0                SCHED_F_CommonTimeInit
                0x4003f53c                SCHED_F_CommonTimeGet
                0x4003f596                SCHED_F_CommonTimeReSynchronization
                0x4003f75e                SCHED_F_IsCommonTimeSynchronized
                0x4003f76c                SCHED_F_RunlevelGet
 *fill*         0x4003f77a        0x2 
 .text          0x4003f77c      0x884 ../kernel/lib/CPU_B\libGCC_kernel.a(GCC_Schedule_gta.o)
                0x4003f7d0                SCHED_GTA_F_Init
                0x4003f872                SCHED_GTA_F_Create
                0x4003fa7a                SCHED_GTA_F_WaitForConfig
                0x4003fba2                SCHED_GTA_F_Config
                0x4003fcca                SCHED_GTA_F_WaitForStart
                0x4003fe58                SCHED_GTA_F_Start
                0x4003ff7e                SCHED_GTA_F_StartCompleted
 .text          0x40040000     0x2418 ../kernel/lib/CPU_B\libGCC_kernel.a(GCC_Schedule_launcher.o)
                0x40040000                SCHED_LAUNCHER_F_BootFailedDisableUnusedTasks
                0x4004012a                SCHED_F_GetTaskIdFromPriority
                0x400401bc                SCHED_F_GetPriorityFromTaskId
                0x4004024a                SCHED_F_SetTaskRestrictiveModeOk
                0x40040338                SCHED_F_IsTaskStarted
                0x40040444                SCHED_F_GetNumberNominalTask
                0x40040494                SCHED_LAUNCHER_F_EvaluateCycleWakeUp
                0x40040782                SCHED_LAUNCHER_F_WakeupAllPeriodicTasks
                0x40040976                SCHED_LAUNCHER_F_RunLevelConfig
                0x40040a46                SCHED_LAUNCHER_F_RunLevelStart
                0x40040c4a                SCHED_LAUNCHER_F_RunLevelLaunch
                0x40040ca6                SCHED_LAUNCHER_F_CreateAllTasks
                0x40040d38                SCHED_LAUNCHER_F_CreateWDG
                0x40042102                SCHED_LAUNCHER_F_PrepareStartup
 .text          0x40042418     0x1160 ../kernel/lib/CPU_B\libGCC_kernel.a(GCC_Schedule_utl.o)
                0x40042418                SCHED_F_SetBootFuseState
                0x4004242c                SCHED_F_BootFuseState
                0x4004243a                SCHED_UTL_F_SetBoardMode
                0x4004244e                SCHED_F_GetBoardMode
                0x4004245c                SCHED_UTL_F_SetNetworkLeds
                0x4004247a                SCHED_F_GetLedCan
                0x40042488                SCHED_F_GetLedEth
                0x40042496                SCHED_F_EthLedClear
                0x400424e2                SCHED_F_EthLedToggle
                0x4004252e                SCHED_UTL_F_SetFlashingGpio
                0x400425de                SCHED_F_GetFlashingGpioInter
                0x400425ec                SCHED_F_GetFlashingGpioIntra
                0x400425fa                SCHED_UTL_F_SetMaintenanceTable
                0x4004263c                SCHED_F_GetMaintenanceTable
                0x400426a8                SCHED_UTL_F_SetForceBid
                0x400426dc                SCHED_F_IsBidForced
                0x400426ea                SCHED_F_GetForcedBidValue
                0x40042714                SCHED_UTL_F_UserDataSet
                0x40042768                SCHED_F_UserDataGet
                0x40042790                SCHED_F_UserDataIsProvided
                0x4004279e                SCHED_F_SetReprogSafetyFlagValue
                0x400427b2                SCHED_F_GetReprogSafetyFlagValue
                0x400427c0                SCHED_F_SetReprogAuthoCallBack
                0x400427d4                SCHED_F_GetReprogAuthoCallBack
                0x400427e2                SCHED_UTL_F_GuestMemoryInfoSet
                0x40042828                SCHED_F_GuestKeyMemoryGet
                0x40042856                SCHED_F_GuestParamMemoryGet
                0x400428cc                SCHED_F_GuestConfMemoryGet
                0x40042942                SCHED_F_SetConfigKeyStatus
                0x400429b0                SCHED_UTL_F_GetConfigKeyStatus
                0x400429be                SCHED_F_SetInitialFunctionalMode
                0x40042ab2                SCHED_F_SetFunctionalModeSafeState
                0x40042acc                SCHED_UTL_F_SetFunctionalMode
                0x40042af4                SCHED_F_IsFunctionalModeDefined
                0x40042b02                SCHED_F_GetFunctionalMode
                0x40042b10                SCHED_UTL_F_IsNominalModeReached
                0x40042b1e                SCHED_UTL_F_GetRestrictiveTransitionState
                0x40042b2c                SCHED_F_IsRestrictiveTransition
                0x40042b56                SCHED_F_EndRestrictiveEventReasonLoggedCallback
                0x40042b68                SCHED_F_SwitchRestrictiveMode
                0x40042c74                SCHED_UTL_F_NotifyRestrictiveRequestSent
                0x40042c86                SCHED_UTL_F_NotifyRemoteTransitionState
                0x40042ce8                SCHED_UTL_F_ManageRestrictiveSwitch
                0x4004300e                SCHED_UTL_F_RestrictiveTransitionProtection
                0x4004306e                SCHED_F_IsBoardRestrictive
                0x4004307c                SCHED_F_ResetWhenInRestrictiveMode
                0x4004308e                SCHED_F_GetResetWhenInRestrictiveMode
                0x4004309c                SCHED_F_SwitchRestrictiveModeAndReset
                0x400430c0                SCHED_F_IsResetNeeded
                0x40043350                SCHED_F_RecordSwicthModeCB
                0x40043432                SCHED_F_BootStateSet
                0x40043446                SCHED_F_BootStateGet
                0x40043454                SCHED_F_NbFaultFilteringRebootSet
                0x40043468                SCHED_F_NbFaultFilteringRebootGet
                0x40043476                SCHED_F_ExtractRunningMode
                0x4004351e                SCHED_F_TaskInfoConfigure
 .text          0x40043578        0x0 ../kernel/lib/CPU_B\libGCC_kernel.a(GCC_VCU_Start.o)
 .text          0x40043578     0x4060 ../kernel/lib/CPU_B\libGCC_kernel.a(GCC_SDB.o)
                0x40043578                SDB_F_Init
                0x4004386c                SDB_F_IsSynchronised
                0x40043898                SDB_F_PresenceTableRead
                0x400439a4                SDB_F_PresenceTableFill
                0x40043a6a                SDB_F_NotificationAdd
                0x40043b7e                SDB_F_IsReadyToSendPdo
                0x40043c2c                SDB_F_InputPdoDefaultGet
                0x40043c6c                SDB_F_DatabaseRead
                0x40043ffc                SDB_F_MessageIdSubmit
                0x400441ce                SDB_F_MessageIdRequest
                0x400446d6                SDB_F_DataIdRequest
                0x40044a5c                SDB_F_DataIdSubmit
                0x40044f22                SDB_F_ReceivedDataAdd
                0x40045040                SDB_F_CurrentTransmitDBRead
                0x40045158                SDB_F_NextTimeoutGet
                0x4004525e                SDB_F_MergePdoTable
                0x40045368                SDB_F_IntALifeTimeMgt
                0x40045530                SDB_F_NoficationFlagsPost
                0x40045f34                SDB_F_FunctionalModeMgt
                0x40046176                SDB_F_CheckIntALifeTime
                0x40046ec8                SDB_F_MainProcess
                0x4004704a                SDB_F_Schedule
                0x40047388                SDB_F_PreInitAPI
                0x40047398                SDB_F_MaxLifeTimeStatusGet
 .text          0x400475d8      0xbf8 ../kernel/lib/CPU_B\libGCC_kernel.a(GCC_SDB_api.o)
                0x400475d8                SDB_API_F_PdoTableFromAlignedEqptClear
                0x400478c6                SDB_API_F_ConvertMessIdToPdoTable
                0x40047ce6                SDB_API_F_PdoTableWithDefaultMessageFill
                0x40047d6c                SDB_API_F_InitUpdateMask
                0x40047e1e                SDB_API_F_BlockMessageIdFill
                0x40047f28                SDB_API_F_DbMemBlockGet
                0x40047f9e                SDB_API_F_ReadDbAndKoo2Exchange
                0x40048048                SDB_API_F_DbMemBlockPut
                0x40048138                SDB_API_F_MemoryPartDbCreation
                0x400481a4                SDB_API_F_PreInit
                0x400481be                SDB_API_F_ValidConfig
 .text          0x400481d0      0xc66 ../kernel/lib/CPU_B\libGCC_kernel.a(GCC_SDB_intercpu.o)
                0x400481d0                SDB_INTERCPU_F_ReceivedMsgRelease
                0x400481f0                SDB_INTERCPU_F_BlockFomReceivedMsgGet
                0x40048440                SDB_INTERCPU_F_MsgWait
                0x4004879c                SDB_INTERCPU_F_MsgToSendReinit
                0x400489f4                SDB_INTERCPU_F_MsgSend
                0x40048a3a                SDB_INTERCPU_F_BlockInMsgAppend
 *fill*         0x40048e36        0x2 
 .text          0x40048e38     0x10c6 ../kernel/lib/CPU_B\libGCC_kernel.a(GCC_SDB_ioplug.o)
                0x40048e84                SDB_IOPLUG_F_Init
                0x40048ede                SDB_IOPLUG_F_Reset
                0x40048f60                SDB_IOPLUG_F_InputDefaultTableUpdate
                0x40049180                SDB_F_BooleanInputDefaultGet
                0x4004921c                SDB_IOPLUG_F_InputPdoDefaultGet
                0x400492ac                SDB_IOPLUG_F_SteeringRedundancyProcess
                0x4004944e                SDB_IOPLUG_F_DetectedGenericRedundancy
                0x400497aa                SDB_IOPLUG_F_DetectedBooleanRedundancy
                0x40049c8e                SDB_IOPLUG_F_DetectedRedundancyProcess
                0x40049da2                SDB_IOPLUG_F_ManagePDOTimeUpdateSteering
                0x40049e34                SDB_IOPLUG_F_ManagePDOTimeUpdateDetected
 *fill*         0x40049efe        0x2 
 .text          0x40049f00     0x127c ../kernel/lib/CPU_B\libGCC_kernel.a(GCC_SDB_update.o)
                0x40049f00                SDB_UPDATE_F_DBAccessPrepare
                0x40049f72                SDB_UPDATE_F_UpdatedIOGet
                0x4004a04a                SDB_UPDATE_F_Init
                0x4004a0b0                SDB_UPDATE_F_DbToRestrictiveSet
                0x4004a13a                SDB_UPDATE_F_SteeringCanMerge
                0x4004a3c4                SDB_UPDATE_F_DetectedCanMerge
                0x4004a9b4                SDB_UPDATE_F_RemainingUpdateBlocksAge
                0x4004ab2c                SDB_UPDATE_F_UpdateBlockMerge
                0x4004b13c                SDB_UPDATE_F_PDORestrictStatusGet
 .text          0x4004b17c     0x1244 ../kernel/lib/CPU_B\libGCC_kernel.a(GCC_SDB_updatelist.o)
                0x4004b17c                SDB_UPDATELIST_F_BlockAddPdo
                0x4004b5e2                SDB_UPDATELIST_F_BlockRead
                0x4004b720                SDB_UPDATELIST_F_CRCListGet
                0x4004b8f0                SDB_UPDATELIST_F_BlockCreate
                0x4004bafe                SDB_UPDATELIST_F_SetBlockToRelease
                0x4004bbe6                SDB_UPDATELIST_F_BlockToReleaseClean
                0x4004bf90                SDB_UPDATELIST_F_BlockWrite
                0x4004c22e                SDB_UPDATELIST_F_Init
                0x4004c2a8                SDB_UPDATELIST_F_BlockRelease
 .text          0x4004c3c0     0x1bb6 ../kernel/lib/CPU_B\libGCC_kernel.a(GCC_std.o)
                0x4004c3c0                __clear
                0x4004c762                STD_F_Printk
                0x4004d384                STD_F_VSnprintf
                0x4004d42e                STD_F_Snprintf
                0x4004d4c6                STD_F_Strlen
                0x4004d50a                STD_F_Strncat
                0x4004d5f8                STD_F_Strncpy
                0x4004d72c                STD_F_Strncmp
                0x4004d804                STD_F_Memcpy
                0x4004d9ac                STD_F_StrnLowerCaseSet
                0x4004da52                STD_F_Memset
                0x4004dabe                STD_F_Memcmp
                0x4004db8e                STD_F_Strtoul
                0x4004de9a                STD_F_GenericPause
                0x4004df4c                STD_F_WaitOneMs
 *fill*         0x4004df76        0x2 
 .text          0x4004df78     0x19cc ../kernel/lib/CPU_B\libGCC_kernel.a(GCC_VOTE.o)
                0x4004df78                VOTE_F_Init
                0x4004df98                VOTE_F_GetAndResetStat
                0x4004e76c                VOTE_F_CpuWaitExt
                0x4004e8a2                VOTE_F_ReadExt
                0x4004e9d8                VOTE_F_Send
                0x4004ed5a                VOTE_F_SendToCPU
                0x4004f2da                VOTE_F_CpuSendExt
                0x4004f3e4                VOTE_F_WriteExt
                0x4004f490                VOTE_F_CpuExchangeExt
                0x4004f5aa                VOTE_F_System2oo2CheckExt
                0x4004f676                VOTE_F_CycleEndExt
                0x4004f7f4                VOTE_F_CycleBegin
                0x4004f930                VOTE_F_K2oo2StatGet
 .text          0x4004f944     0x273e ../kernel/lib/CPU_B\libGCC_kernel.a(GCC_VOTE_com.o)
                0x4004fd76                VOTE_F_SendAck
                0x4004fdfc                VOTE_F_CanSend
                0x4004fe3e                VOTE_F_EmissionLoop
                0x40050162                VOTE_F_CheckTimeouts
                0x40051d5a                VOTE_F_ReceptionLoop
                0x40051f2e                VOTE_F_ComInit
 *fill*         0x40052082        0x2 
 .text          0x40052084      0x996 ../kernel/lib/CPU_B\libGCC_kernel.a(GCC_VOTE_tsk.o)
                0x40052084                VOTE_F_ModeRunningState
                0x400520a0                VOTE_TSK_F_GetSubscriptionInfoFromTaskId
                0x400520f0                VOTE_F_SetFragmentationsize
                0x40052186                VOTE_F_Subscribe
                0x4005248e                VOTE_F_Task
                0x400525c4                VOTE_F_Start
                0x400525f4                VOTE_F_Create
                0x4005287a                VOTE_TSK_F_EvaluateNotification
 *fill*         0x40052a1a        0x2 
 .text          0x40052a1c      0x596 ../kernel/lib/CPU_B\libGCC_kernel.a(GCC_wdg.o)
                0x40052a68                WDG_F_GetCPUUsageMax
                0x40052a76                WDG_F_Enable
                0x40052a88                WDG_F_PeriodTableMinGet
                0x40052af8                WDG_F_Load
                0x40052cda                WDG_F_GetRemainingTickToEnableWdg
                0x40052d12                WDG_F_SwWatchdog
                0x40052f1a                WDG_F_Create
 *fill*         0x40052fb2        0x2 
 .text          0x40052fb4     0x6820 ../kernel/lib/CPU_B\libGCC_kernel.a(GCC_viv.o)
                0x40053000                VIV_F_ImageMemoryGet
                0x4005302a                VIV_F_EndFlashAsync
                0x4005309a                VIV_F_FlashGetSectorNbFromAddr
                0x400530ea                VIV_F_GetMemoryType
                0x400531e2                VIV_F_GetSession
                0x400533c8                VIV_F_InitService
                0x40053566                VIV_F_IsFlashSectorAllowed
                0x4005361e                VIV_F_LockSession
                0x400536c8                VIV_F_UnlockSession
                0x40053734                VIV_F_ManageCommandCpuReset
                0x400539ae                VIV_F_ManageCommandGetAllVersion
                0x40053d96                VIV_F_ManageCommandGetVivVersion
                0x40053ea6                VIV_F_ManageCommandEraseSector
                0x4005432c                VIV_F_ManageCommandMemRead
                0x400547f8                VIV_F_ManageCommandMemReadInit
                0x40054b54                VIV_F_ManageCommandStatus
                0x40055202                VIV_F_ManageCommandTrigger
                0x400555f2                VIV_F_ManageCommandWatchpoint
                0x40055a3c                VIV_F_ManageCommandReprog
                0x40055de0                VIV_F_ManageCommandReprogLock
                0x400561f2                VIV_V_GetOldestSession
                0x400562b0                VIV_F_ManageCommandSessionOpen
                0x400565f0                VIV_F_ManageCommandBreakpoint
                0x400568dc                VIV_F_ManageCommandMemWrite
                0x40056d3a                VIV_F_ManageCommandKill
                0x40056fbe                VIV_F_ManageCommandInfo
                0x40057266                VIV_F_ManageCommandResetDump
                0x400574fa                VIV_F_ManageCommandSessionClose
                0x400577d2                VIV_F_ManageCommandMemReadInitRequestCheck
                0x40057d6e                VIV_F_RegisterTriggeredFunction
                0x40057eec                VIV_F_ManageCommandMemReadInitCheckAsyncRead
                0x40058234                VIV_F_EndEraseImageCallback
                0x400582f0                VIV_F_EndWriteImageCallback
                0x400583b4                VIV_F_EndlogCallback
                0x40058462                VIV_F_ManageCommandUpdate
                0x400586dc                VIV_F_ManageCommandVersion
                0x40058888                VIV_F_OpenCases
                0x40058cd8                VIV_F_OpenConnectionVivisection
                0x40058f7e                VIV_F_RegularClose
                0x40058fcc                VIV_F_CommandKillClose
                0x40059028                VIV_F_MemWriteClose
                0x4005906a                VIV_F_EraseSectorClose
                0x40059176                VIV_F_ResetClose
                0x400591ca                VIV_F_BreakpointClose
                0x40059270                VIV_F_WatchpointClose
                0x4005933c                VIV_F_MemReadInitClose
                0x400593b8                VIV_F_TriggerClose
                0x40059494                VIV_F_ResetDumpClose
                0x4005951e                VIV_F_UpdateClose
                0x40059620                VIV_F_CloseConnectionVivisection
 .text          0x400597d4      0x2d0 ../kernel/lib/CPU_B\libGCC_kernel.a(GCC_Drv_CAU_Lib.o)
                0x400597d4                MATH_F_ComputeDES
                0x4005999e                MATH_F_ComputeSHA1
 .text          0x40059aa4      0x6b2 ../kernel/lib/CPU_B\libGCC_kernel.a(GCC_Drv_BID_Lib.o)
                0x40059aa4                Drv_BID_F_GpioExpanderReadReg
                0x40059b7a                Drv_BID_F_InitializeGpioExpander
                0x40059cd8                Drv_BID_F_GpioExpanderWriteReg
                0x40059d8c                Drv_BID_F_GpioExpanderSetAndCheck
                0x40059eb2                Drv_BID_F_BidRead
 *fill*         0x4005a156        0x2 
 .text          0x4005a158      0x2b2 ../kernel/lib/CPU_B\libGCC_kernel.a(GCC_Drv_Boot_Module.o)
                0x4005a158                BOOT_F_Check_Copied_Crc
 *fill*         0x4005a40a        0x2 
 .text          0x4005a40c      0x20a ../kernel/lib/CPU_B\libGCC_kernel.a(GCC_Drv_Boot_Utils.o)
                0x4005a458                Drv_CAN_ETH_F_Disable
                0x4005a478                Drv_Ext_WatchDog_F_Enable
                0x4005a498                Drv_Ext_WatchDog_F_Disable
                0x4005a4b8                Drv_Ext_WatchDog_F_Feed
                0x4005a4d8                Drv_F_IRQ7_Disable
                0x4005a526                Drv_F_IRQ7_Enable
                0x4005a574                Drv_Version_Get
 *fill*         0x4005a616        0x2 
 .text          0x4005a618       0x2e ../kernel/lib/CPU_B\libGCC_kernel.a(GCC_Drv_Cache_Lib.o)
                0x4005a618                Drv_Cache_F_Invalidate
 *fill*         0x4005a646        0x2 
 .text          0x4005a648     0x40de ../kernel/lib/CPU_B\libGCC_kernel.a(GCC_Drv_Can_Lib.o)
                0x4005a648                Drv_CAN_F_CanBusActiveChannelGet
                0x4005a656                Drv_CAN_F_FlexcanTochannel
                0x4005a6a6                Drv_CAN_F_TxInterruptStop
                0x4005a6b0                Drv_CAN_F_TxInterruptStart
                0x4005a6ba                Drv_CAN_F_OSVectSet
                0x4005a742                Drv_CAN_F_BusStateGet
                0x4005a788                Drv_CAN_F_Start
                0x4005a848                Drv_CAN_F_Stop
                0x4005a90a                Drv_CAN_F_HardwareInit
                0x4005ad3c                Drv_CAN_F_PreviousCycleEndCheck
                0x4005aebe                Drv_CAN_F_CanBusStateGet
                0x4005af40                Drv_CAN_F_FrameSend
                0x4005b47a                Drv_CAN_F_ErrorTest
                0x4005b5a8                Drv_CAN_F_BusOffTest
                0x4005b6f0                Drv_CAN_F_IsrCan1BusOff
                0x4005b740                Drv_CAN_F_IsrCan0BusOff
                0x4005b792                Drv_CAN_F_FullBufferProcess
                0x4005be18                Drv_CAN_F_TopHalfISR
                0x4005c694                Drv_CAN_F_SendExtFrame
                0x4005c7f4                Drv_CAN_F_SendExtFrameStartPump
                0x4005c88e                Drv_CAN_F_TxExtInterrupt
                0x4005c990                Drv_CAN_F_SdoFreeTxBufferFind
                0x4005cac4                Drv_CAN_F_PdoFreeTxBufferFind
                0x4005cca0                Drv_CAN_F_WriteFrameRequestViaFifo
                0x4005d034                Drv_CAN_F_WriteFrameRequest
                0x4005d450                Drv_CAN_F_TxPdoInterrupt
                0x4005d6fc                Drv_CAN_F_TxSdoInterrupt
                0x4005d9a8                Drv_CAN_F_Init
                0x4005dbc0                Drv_CAN_F_Flush
                0x4005dd24                Drv_CAN_F_ActiveBusSet
                0x4005dd98                CAN_F_IsrBottomHalfTaskStart
                0x4005dde6                CAN_F_IsrBottomHalfTaskCreate
                0x4005df0a                CAN_F_IsrBottomHalfTask
                0x4005e406                Drv_CAN_F_CheckMBAfterFifo
                0x4005e64a                Drv_CAN_F_KickToSendFifo
 *fill*         0x4005e726        0x2 
 .text          0x4005e728     0x2e06 ../kernel/lib/CPU_B\libGCC_kernel.a(GCC_Drv_Fec_Lib.o)
                0x4005e774                Drv_Fec_F_IsFrameToBeReceived
                0x4005ecd6                Drv_Fec_F_FrameProcessing
                0x4005f1fa                Drv_Fec_F_ReceiveStoreFrame
                0x4005f8ec                Drv_Fec_F_ConflictIpCheck
                0x4005fa78                IPSTACK_F_NumberOfIpConflictDetectedGet
                0x4005fabc                Drv_Fec_F_Disable
                0x4005fb80                Drv_Fec_F_Enable
                0x4005ffb8                Drv_Fec_F_RxHandler
                0x4006001e                Drv_Fec_F_RxHandler1
                0x4006052a                Drv_Fec_F_InitHW
                0x400609fa                Drv_Fec_F_ConflictIPStartFiltering
                0x40060a4a                Drv_Fec_F_ConflictIPAllowStart
                0x40060a9a                IPSTACK_F_OverflowCountGet
                0x40060b34                Drv_Fec_F_CheckFloodTempo
                0x40060c52                IPSTACK_F_NbCrcErrorGet
                0x40060d48                IPSTACK_F_NbCrcOKGet
                0x40060e3e                Drv_Fec_F_Send
                0x4006146c                Drv_Fec_F_PHYSTS_Get
 *fill*         0x4006152e        0x2 
 .text          0x40061530      0xdba ../kernel/lib/CPU_B\libGCC_kernel.a(GCC_Drv_Flash_Parallel_Lib.o)
                0x40061530                Drv_FLASH_PARALLEL_F_Init
                0x400616b2                Drv_FLASH_PARALLEL_F_AccessEraseAddresses
                0x40061716                Drv_FLASH_PARALLEL_F_AccessMaxReadSize
                0x400617b0                Drv_FLASH_PARALLEL_F_AccessMaxWriteSize
                0x4006184a                Drv_FLASH_PARALLEL_F_FlashUnlockByPassModeEnter
                0x400618cc                Drv_FLASH_PARALLEL_F_FlashUnlockByPassModeExit
                0x4006193e                Drv_FLASH_PARALLEL_F_FlashUnlockWordWrite
                0x400619d4                Drv_FLASH_PARALLEL_F_FlashReady
                0x40061b6c                Drv_FLASH_PARALLEL_F_CheckOperationAuth
                0x40061c5a                Drv_FLASH_PARALLEL_F_OperationSuspend
                0x40061d64                Drv_FLASH_PARALLEL_F_OperationResume
                0x40061e22                Drv_FLASH_PARALLEL_F_Erase
                0x40061f4e                Drv_FLASH_PARALLEL_F_Write
                0x400620c4                Drv_FLASH_PARALLEL_F_Read
                0x40062146                Drv_FLASH_PARALLEL_F_Memset
                0x400621f6                Drv_FLASH_PARALLEL_F_OperationStatus
 *fill*         0x400622ea        0x2 
 .text          0x400622ec      0xf40 ../kernel/lib/CPU_B\libGCC_kernel.a(GCC_Drv_Flash_Spi_Lib.o)
                0x400622ec                Drv_FLASH_SPI_F_Write_Enable
                0x40062386                Drv_FLASH_SPI_F_PageEndSize
                0x400623e6                Drv_FLASH_SPI_F_AccessEraseAddresses
                0x40062492                Drv_FLASH_SPI_F_AccessMaxReadSize
                0x400624e4                Drv_FLASH_SPI_F_AccessMaxWriteSize
                0x4006252c                Drv_FLASH_SPI_F_Erase
                0x400626e2                Drv_FLASH_SPI_F_Write
                0x40062938                Drv_FLASH_SPI_F_Read
                0x40062b7a                Drv_FLASH_SPI_F_Memset
                0x40062c50                Drv_FLASH_SPI_F_OperationStatus
                0x40062e12                Drv_FLASH_SPI_F_Init
                0x400630be                Drv_FLASH_SPI_F_Is_Missing
 .text          0x4006322c      0x94c ../kernel/lib/CPU_B\libGCC_kernel.a(GCC_Drv_Gpio.o)
                0x4006322c                GPIO_F_CpuIdGet
                0x40063256                GPIO_F_InitGuest
                0x400635b0                GPIO_F_CSInitGuest
                0x40063710                GPIO_F_Set
                0x40063828                GPIO_F_Toggle
                0x400639d6                GPIO_F_Read
                0x40063a5a                GPIO_F_Clear
 .text          0x40063b78        0x0 ../kernel/lib/CPU_B\libGCC_kernel.a(GCC_Drv_MMU_Lib.o)
 .text          0x40063b78        0x0 ../kernel/lib/CPU_B\libGCC_kernel.a(GCC_Drv_SDRAM_Lib.o)
 .text          0x40063b78      0x636 ../kernel/lib/CPU_B\libGCC_kernel.a(GCC_Drv_Spi_Lib.o)
                0x40063bc4                Drv_SPI_F_Init
                0x40063c2c                Drv_SPI_F_WaitAvailable
                0x40063d2c                Drv_SPI_F_Process
 *fill*         0x400641ae        0x2 
 .text          0x400641b0      0x65e ../kernel/lib/CPU_B\libGCC_kernel.a(GCC_Drv_Timer_Lib.o)
                0x40064284                Drv_Timer_F_Handler_0
                0x400642be                Drv_Timer_F_Handler_1
                0x400642f8                Drv_Timer_F_Handler_2
                0x40064332                Drv_Timer_F_Handler_3
                0x4006436c                Drv_Timer_F_Enable
                0x400643da                Drv_Timer_F_Int_Clear
                0x40064448                Drv_Timer_F_Init
                0x400646c8                Drv_Timer_F_Count_Reset
 *fill*         0x4006480e        0x2 
 .text          0x40064810     0x1a40 ../kernel/lib/CPU_B\libGCC_kernel.a(GCC_Drv_Uart_Vote.o)
                0x4006485c                Drv_Uart_F_EvaluateWriteIndex
                0x40064922                Drv_Uart_F_CheckUartError
                0x40064a24                Drv_Uart_F_TestDmaErrorTxConfig
                0x40064a96                Drv_Uart_F_TestDmaErrorRxConfig
                0x40064c46                Drv_Uart_F_EndOfRx
                0x40064d54                Drv_Uart_F_TxHandler
                0x400650f0                Drv_Uart_F_SendFrame
                0x400657b6                Drv_Uart_F_WaitForStartUART
                0x400659fe                Drv_Uart_F_RxHandler
                0x40065b30                Drv_Uart_F_HardwareInit
 .text          0x40066250       0x70 ../kernel/lib/CPU_B\libGCC_kernel.a(GCC_bsp.o)
                0x40066250                BSP_CPU_ClkFreq
                0x4006628c                BSP_F_OS_Tick_Init
 .text          0x400662c0      0x6f0 ../kernel/lib/CPU_B\libGCC_kernel.a(GCC_exceptions.o)
                0x400662c0                exception_VectorProc
                0x400666fe                OS_exception_handler
 .text          0x400669b0      0x196 ../kernel/lib/CPU_B\libGCC_kernel.a(GCC_os_core.o)
                0x40066a50                OSInit
                0x40066a70                OSIntEnter
                0x40066a80                OSIntExit
                0x40066a90                OSSchedLock
                0x40066aa0                OSSchedUnlock
                0x40066ab0                OSStart
                0x40066ac0                OSStatInit
                0x40066ad8                OS_StrLen
                0x40066b04                OS_StrCopy
 *fill*         0x40066b46        0x2 
 .text          0x40066b48      0x450 ../kernel/lib/CPU_B\libGCC_kernel.a(GCC_os_flag.o)
                0x40066b48                OSFlagAccept
                0x40066c04                OSFlagCreate
                0x40066c74                OSFlagDel
                0x40066d66                OSFlagPend
                0x40066e4e                OSFlagPendGetFlagsRdy
                0x40066e5c                OSFlagPost
                0x40066f18                OSFlagQuery
 .text          0x40066f98      0x54a ../kernel/lib/CPU_B\libGCC_kernel.a(GCC_os_mem.o)
                0x40066f98                OSMemCreate
                0x400670ae                OSMemGet
                0x40067140                OSMemNameGet
                0x400671f0                OSMemNameSet
                0x400672ca                OSMemPut
                0x40067348                OSMemQuery
                0x40067400                OS_MemInit
 *fill*         0x400674e2        0x2 
 .text          0x400674e4      0x616 ../kernel/lib/CPU_B\libGCC_kernel.a(GCC_os_q.o)
                0x400674e4                OSQAccept
                0x40067576                OSQCreate
                0x4006761c                OSQDel
                0x4006773a                OSQFlush
                0x400677a8                OSQPend
                0x40067882                OSQPost
                0x400678f2                OSQPostFront
                0x40067962                OSQPostOpt
                0x40067a66                OSQQuery
 *fill*         0x40067afa        0x2 
 .text          0x40067afc      0x45e ../kernel/lib/CPU_B\libGCC_kernel.a(GCC_os_sem.o)
                0x40067afc                OSSemAccept
                0x40067b54                OSSemCreate
                0x40067bf4                OSSemDel
                0x40067d12                OSSemPend
                0x40067dd2                OSSemPost
                0x40067e44                OSSemQuery
                0x40067ece                OSSemSet
 *fill*         0x40067f5a        0x2 
 .text          0x40067f5c      0xa98 ../kernel/lib/CPU_B\libGCC_kernel.a(GCC_os_task.o)
                0x40067f5c                OSTaskChangePrio
                0x400680a2                OSTaskCreate
                0x4006817e                OSTaskCreateExt
                0x40068296                OSTaskDel
                0x400683aa                OSTaskNameGet
                0x400684e4                OSTaskNameSet
                0x40068650                OSTaskResume
                0x40068710                OSTaskSuspend
                0x400687da                OSTaskStkChk
                0x400688c4                OSTaskQuery
                0x400689b4                OS_TaskNameInit
 .text          0x400689f4       0xfe ../kernel/lib/CPU_B\libGCC_kernel.a(GCC_os_time.o)
                0x400689f4                OSTimeDly
                0x40068a1c                OSTimeDlyResume
                0x40068abe                OSTimeGet
                0x40068acc                OSTimeSet
                0x40068ae2                OSTimeTick
 *fill*         0x40068af2        0x2 
 .text          0x40068af4        0x0 ../kernel/lib/CPU_B\libGCC_kernel.a(GCC_core.o)
 .text          0x40068af4        0x0 ../kernel/lib/CPU_B\libGCC_kernel.a(GCC_coretask.o)
 .text          0x40068af4      0x26a ../kernel/lib/CPU_B\libGCC_kernel.a(GCC_event_group_create.o)
                0x40068cc4                event_group_create
 *fill*         0x40068d5e        0x2 
 .text          0x40068d60      0x258 ../kernel/lib/CPU_B\libGCC_kernel.a(GCC_event_group_delete.o)
                0x40068efc                event_group_delete
 .text          0x40068fb8      0x48c ../kernel/lib/CPU_B\libGCC_kernel.a(GCC_event_group_delete_force.o)
                0x4006934e                event_group_delete_force
 .text          0x40069444      0x126 ../kernel/lib/CPU_B\libGCC_kernel.a(GCC_event_group_info.o)
                0x400694fe                event_group_info
 *fill*         0x4006956a        0x2 
 .text          0x4006956c      0x602 ../kernel/lib/CPU_B\libGCC_kernel.a(GCC_event_notify.o)
                0x400698ba                event_notify
 *fill*         0x40069b6e        0x2 
 .text          0x40069b70       0x7e ../kernel/lib/CPU_B\libGCC_kernel.a(GCC_event_ready_get.o)
                0x40069bbc                event_ready_get
 *fill*         0x40069bee        0x2 
 .text          0x40069bf0      0x2c4 ../kernel/lib/CPU_B\libGCC_kernel.a(GCC_event_try_wait.o)
                0x40069caa                event_try_wait
 .text          0x40069eb4      0x6c0 ../kernel/lib/CPU_B\libGCC_kernel.a(GCC_event_wait.o)
                0x4006a1c0                event_wait
 .text          0x4006a574       0x22 ../kernel/lib/CPU_B\libGCC_kernel.a(GCC_fatal_error_raise.o)
                0x4006a574                fatal_error_raise
 *fill*         0x4006a596        0x2 
 .text          0x4006a598       0x24 ../kernel/lib/CPU_B\libGCC_kernel.a(GCC_irq_resume.o)
                0x4006a5a8                irq_resume
 .text          0x4006a5bc       0x28 ../kernel/lib/CPU_B\libGCC_kernel.a(GCC_irq_suspend.o)
                0x4006a5d8                irq_suspend
 .text          0x4006a5e4       0x10 ../kernel/lib/CPU_B\libGCC_kernel.a(GCC_isr.o)
                0x4006a5e4                isrModuleInit
 .text          0x4006a5f4       0x4c ../kernel/lib/CPU_B\libGCC_kernel.a(GCC_isr_enter.o)
 .text          0x4006a640      0x15e ../kernel/lib/CPU_B\libGCC_kernel.a(GCC_isr_exit.o)
 *fill*         0x4006a79e        0x2 
 .text          0x4006a7a0        0xe ../kernel/lib/CPU_B\libGCC_kernel.a(GCC_isr_level_get.o)
                0x4006a7a0                isr_level_get
 *fill*         0x4006a7ae        0x2 
 .text          0x4006a7b0      0x17e ../kernel/lib/CPU_B\libGCC_kernel.a(GCC_mempart_alloc.o)
                0x4006a86e                mempart_alloc
 *fill*         0x4006a92e        0x2 
 .text          0x4006a930      0x2e2 ../kernel/lib/CPU_B\libGCC_kernel.a(GCC_mempart_create.o)
                0x4006ab28                mempart_create
 *fill*         0x4006ac12        0x2 
 .text          0x4006ac14      0x16c ../kernel/lib/CPU_B\libGCC_kernel.a(GCC_mempart_free.o)
                0x4006acd2                mempart_free
 .text          0x4006ad80      0x192 ../kernel/lib/CPU_B\libGCC_kernel.a(GCC_mempart_info.o)
                0x4006ae3e                mempart_info
 *fill*         0x4006af12        0x2 
 .text          0x4006af14      0x542 ../kernel/lib/CPU_B\libGCC_kernel.a(GCC_message_queue_broadcast.o)
                0x4006b28e                message_queue_broadcast
 *fill*         0x4006b456        0x2 
 .text          0x4006b458      0x2d4 ../kernel/lib/CPU_B\libGCC_kernel.a(GCC_message_queue_create.o)
                0x4006b65c                message_queue_create
 .text          0x4006b72c      0x288 ../kernel/lib/CPU_B\libGCC_kernel.a(GCC_message_queue_delete.o)
                0x4006b8f8                message_queue_delete
 .text          0x4006b9b4      0x508 ../kernel/lib/CPU_B\libGCC_kernel.a(GCC_message_queue_delete_force.o)
                0x4006bdc6                message_queue_delete_force
 .text          0x4006bebc      0x13a ../kernel/lib/CPU_B\libGCC_kernel.a(GCC_message_queue_flush.o)
                0x4006bf7a                message_queue_flush
 *fill*         0x4006bff6        0x2 
 .text          0x4006bff8      0x162 ../kernel/lib/CPU_B\libGCC_kernel.a(GCC_message_queue_info.o)
                0x4006c0b6                message_queue_info
 *fill*         0x4006c15a        0x2 
 .text          0x4006c15c      0x4c8 ../kernel/lib/CPU_B\libGCC_kernel.a(GCC_message_queue_receive.o)
                0x4006c462                message_queue_receive
 .text          0x4006c624      0x480 ../kernel/lib/CPU_B\libGCC_kernel.a(GCC_message_queue_send.o)
                0x4006c986                message_queue_send
 .text          0x4006caa4      0x480 ../kernel/lib/CPU_B\libGCC_kernel.a(GCC_message_queue_send_first.o)
                0x4006ce06                message_queue_send_first
 .text          0x4006cf24      0x1a6 ../kernel/lib/CPU_B\libGCC_kernel.a(GCC_message_queue_try_receive.o)
                0x4006cfe2                message_queue_try_receive
 *fill*         0x4006d0ca        0x2 
 .text          0x4006d0cc       0x40 ../kernel/lib/CPU_B\libGCC_kernel.a(GCC_os_init.o)
                0x4006d0cc                os_init
 .text          0x4006d10c       0x12 ../kernel/lib/CPU_B\libGCC_kernel.a(GCC_os_safety_critical.o)
                0x4006d10c                os_safety_critical
 *fill*         0x4006d11e        0x2 
 .text          0x4006d120       0x3c ../kernel/lib/CPU_B\libGCC_kernel.a(GCC_os_shutdown.o)
                0x4006d13c                os_shutdown
 .text          0x4006d15c       0xe4 ../kernel/lib/CPU_B\libGCC_kernel.a(GCC_os_start.o)
                0x4006d220                os_start
 .text          0x4006d240       0xac ../kernel/lib/CPU_B\libGCC_kernel.a(GCC_sched_lock.o)
                0x4006d28c                sched_lock
 .text          0x4006d2ec      0x1ce ../kernel/lib/CPU_B\libGCC_kernel.a(GCC_sched_unlock.o)
                0x4006d44a                sched_unlock
 *fill*         0x4006d4ba        0x2 
 .text          0x4006d4bc      0x10a ../kernel/lib/CPU_B\libGCC_kernel.a(GCC_semaphore.o)
                0x4006d574                semaphoreModuleInit
 *fill*         0x4006d5c6        0x2 
 .text          0x4006d5c8      0x12e ../kernel/lib/CPU_B\libGCC_kernel.a(GCC_semaphore_count_get.o)
                0x4006d68a                semaphore_count_get
 *fill*         0x4006d6f6        0x2 
 .text          0x4006d6f8      0x176 ../kernel/lib/CPU_B\libGCC_kernel.a(GCC_semaphore_count_set.o)
                0x4006d7d2                semaphore_count_set
 *fill*         0x4006d86e        0x2 
 .text          0x4006d870      0x266 ../kernel/lib/CPU_B\libGCC_kernel.a(GCC_semaphore_create.o)
                0x4006da3c                semaphore_create
 *fill*         0x4006dad6        0x2 
 .text          0x4006dad8      0x28c ../kernel/lib/CPU_B\libGCC_kernel.a(GCC_semaphore_delete.o)
                0x4006dca8                semaphore_delete
 .text          0x4006dd64      0x50c ../kernel/lib/CPU_B\libGCC_kernel.a(GCC_semaphore_delete_force.o)
                0x4006e17a                semaphore_delete_force
 .text          0x4006e270      0x42e ../kernel/lib/CPU_B\libGCC_kernel.a(GCC_semaphore_give.o)
                0x4006e5d6                semaphore_give
 *fill*         0x4006e69e        0x2 
 .text          0x4006e6a0      0x440 ../kernel/lib/CPU_B\libGCC_kernel.a(GCC_semaphore_take.o)
                0x4006e9aa                semaphore_take
 .text          0x4006eae0      0x168 ../kernel/lib/CPU_B\libGCC_kernel.a(GCC_semaphore_try_take.o)
                0x4006eba2                semaphore_try_take
 .text          0x4006ec48       0x10 ../kernel/lib/CPU_B\libGCC_kernel.a(GCC_sys_tick.o)
                0x4006ec48                sysTickModuleInit
 .text          0x4006ec58       0x74 ../kernel/lib/CPU_B\libGCC_kernel.a(GCC_sys_tick_get.o)
                0x4006eca4                sys_tick_get
 .text          0x4006eccc      0x3c8 ../kernel/lib/CPU_B\libGCC_kernel.a(GCC_sys_tick_increment.o)
                0x4006efd4                sys_tick_increment
 .text          0x4006f094       0x72 ../kernel/lib/CPU_B\libGCC_kernel.a(GCC_sys_tick_set.o)
                0x4006f0e0                sys_tick_set
 *fill*         0x4006f106        0x2 
 .text          0x4006f108      0x32e ../kernel/lib/CPU_B\libGCC_kernel.a(GCC_task.o)
                0x4006f39a                taskModuleInit
 *fill*         0x4006f436        0x2 
 .text          0x4006f438       0xda ../kernel/lib/CPU_B\libGCC_kernel.a(GCC_task_check_idle_stack.o)
                0x4006f4b2                task_check_idle_stack
 *fill*         0x4006f512        0x2 
 .text          0x4006f514      0x198 ../kernel/lib/CPU_B\libGCC_kernel.a(GCC_task_check_stack.o)
                0x4006f604                task_check_stack
 .text          0x4006f6ac      0x75e ../kernel/lib/CPU_B\libGCC_kernel.a(GCC_task_create.o)
                0x4006fcaa                task_create
 *fill*         0x4006fe0a        0x2 
 .text          0x4006fe0c      0x28c ../kernel/lib/CPU_B\libGCC_kernel.a(GCC_task_delay.o)
                0x4007003a                task_delay
 .text          0x40070098      0x342 ../kernel/lib/CPU_B\libGCC_kernel.a(GCC_task_delay_cancel.o)
                0x40070324                task_delay_cancel
 *fill*         0x400703da        0x2 
 .text          0x400703dc      0x4fe ../kernel/lib/CPU_B\libGCC_kernel.a(GCC_task_delete.o)
                0x400707f2                task_delete
 *fill*         0x400708da        0x2 
 .text          0x400708dc       0xfc ../kernel/lib/CPU_B\libGCC_kernel.a(GCC_task_get_by_priority.o)
                0x40070928                task_get_by_priority
 .text          0x400709d8      0x146 ../kernel/lib/CPU_B\libGCC_kernel.a(GCC_task_get_priority.o)
                0x40070a9a                task_get_priority
 *fill*         0x40070b1e        0x2 
 .text          0x40070b20      0x18a ../kernel/lib/CPU_B\libGCC_kernel.a(GCC_task_info.o)
                0x40070be2                task_info
 *fill*         0x40070caa        0x2 
 .text          0x40070cac      0x2fc ../kernel/lib/CPU_B\libGCC_kernel.a(GCC_task_resume.o)
                0x40070ed4                task_resume
 .text          0x40070fa8      0x53e ../kernel/lib/CPU_B\libGCC_kernel.a(GCC_task_set_priority.o)
                0x400713fa                task_set_priority
 *fill*         0x400714e6        0x2 
 .text          0x400714e8       0xcc ../kernel/lib/CPU_B\libGCC_kernel.a(GCC_task_statis_init.o)
                0x40071534                task_statis_init
 .text          0x400715b4      0x30a ../kernel/lib/CPU_B\libGCC_kernel.a(GCC_task_suspend.o)
                0x400717f6                task_suspend
 *fill*         0x400718be        0x2 
 .text          0x400718c0      0x4dc ../kernel/lib/CPU_B\libGCC_kernel.a(GCC_os_cpu_c.o)
                0x4007190c                OSVectSet
                0x40071954                OSVectGet
                0x40071996                OS_GetFreeItStackPercentage
                0x40071a02                OSInitHookEnd
                0x40071a0c                OSTCBInitHook
                0x40071a16                OSHptGet
                0x40071b0a                OSHptAdd
                0x40071bae                OSHptSubstract
                0x40071c68                OSHptIsBigger
                0x40071ce4                OSCpuReset
                0x40071d04                OSWriteDebugControlRegister
                0x40071d16                OSIntCtxSwMgt
                0x40071d44                OS_TcbPrioTblCRC
 .text          0x40071d9c     0x28d6 ../kernel/lib/CPU_B\libGCC_kernel.a(GCC_GM_PROSTACK_Ip.o)
                0x40071de8                GM_PROS_IP_F_GetInternalFifo
                0x40071df6                GM_PROS_IP_F_SetTtl
                0x40071e12                GM_PROS_IP_F_GetSubnetInterface
                0x40071f68                GM_PROS_IP_F_ForceGateway
                0x40072042                GM_PROS_IP_F_Drop
                0x400720a0                GM_PROS_IP_F_LocalReceive_FSFB2
                0x40072108                GM_PROS_IP_F_LocalReceive_RSSP1
                0x40072170                GM_PROS_IP_F_LocalReceive_IP1
                0x400721d8                GM_PROS_IP_F_LocalReceive_IP2
                0x40072240                GM_PROS_IP_F_Checksum
                0x4007231c                GM_PROS_IP_F_PrepareIpHeader
                0x4007245e                GM_PROS_IP_F_AddItf
                0x400724f2                GM_PROS_IP_F_AddRule
                0x400726d0                GM_PROS_IP_F_RemoveItf
                0x400728be                GM_PROS_IP_F_CopyFrame
                0x40072936                GM_PROS_IP_F_FreeBuffer
                0x40072ad0                GM_PROS_IP_F_CheckSendInterface
                0x40072baa                GM_PROS_IP_F_SendToInterface
                0x400730f4                GM_PROS_IP_F_Send
                0x4007330e                GM_PROS_IP_F_InitBufferManagement
                0x40073438                GM_PROS_IP_F_Init
                0x40073506                GM_PROS_IP_F_ReserveBuffer
                0x4007366e                GM_PROS_IP_F_ManageFrameFiltering
                0x400738a4                GM_PROS_IP_F_CheckFilter
                0x40073aac                GM_PROS_IP_F_ApplyRule
                0x40073c38                GM_PROS_IP_F_FilteringPostRouting
                0x40073c80                GM_PROS_IP_F_DispatchReceivedFrame
                0x40073d38                GM_PROS_IP_F_Routing
                0x40073eda                GM_PROS_IP_F_EmissionProcess
                0x40073ff8                GM_PROS_IP_F_ReceiveFrame
                0x400744cc                GM_PROS_IP_F_ProcessAllItf
 *fill*         0x40074672        0x2 
 .text          0x40074674     0x5cca ../kernel/lib/CPU_B\libGCC_kernel.a(GCC_GM_PROSTACK_Ip_tsk.o)
                0x400746c0                GM_PROS_IP_TSK_F_GetNonSafetyIp_1
                0x400746f6                GM_PROS_IP_TSK_F_GetNonSafetyIp_2
                0x4007472c                GM_PROS_IP_TSK_F_GetLocalIp_1
                0x40074762                GM_PROS_IP_TSK_F_GetLocalIp_2
                0x40074798                GM_PROS_IP_TSK_F_GetLocalNetMask_1
                0x400747ce                GM_PROS_IP_TSK_F_GetLocalNetMask_2
                0x40074804                GM_PROSTACK_F_UsigRedundedPortCpuAGet
                0x40074810                GM_PROSTACK_F_UsigSinglePortCpuAGet
                0x4007481c                GM_PROSTACK_F_Get_RSSP1_UART_Port
                0x40074828                GM_PROSTACK_F_SnmpPortNormalLinkGet
                0x40074834                GM_PROSTACK_F_SnmpPortRedundedLinkGet
                0x40074840                GM_PROSTACK_F_SnmpTrapPortNormalLinkGet
                0x4007484c                GM_PROSTACK_F_SnmpTrapPortRedundedLinkGet
                0x40074858                GM_PROSTACK_F_IsSameSubnet
                0x4007489c                GM_PROS_IP_F_GetEthernetIndex
                0x40074942                GM_PROSTACK_F_OtherCpuPrivateEthIpAddrGet
                0x40074990                GM_PROS_IP_TSK_F_ForceGatewayCanStepper
                0x40074b3e                GM_PROS_IP_TSK_F_RouteCanUdpOut
                0x40074c3c                GM_PROS_IP_TSK_F_RouteCanUdpIn
                0x40074d8c                GM_PROSTACK_F_InternalFrameDropGet
                0x40074e1a                GM_PROS_IP_TSK_F_IsStandby
                0x40074f86                GM_PROS_IP_TSK_F_GatewayIpGet
                0x4007517a                GM_PROSTACK_F_UsigSinglePortCpuBGet
                0x40075196                GM_PROSTACK_F_UsigRedundedPortCpuBGet
                0x400751ac                GM_PROSTACK_F_Get_RSSP1_PrimaryCpuA_Port
                0x400751c8                GM_PROSTACK_F_Get_RSSP1_PrimaryCpuB_Port
                0x400751e4                GM_PROSTACK_F_Get_RSSP1_SecondaryCpuA_Port
                0x40075200                GM_PROSTACK_F_Get_RSSP1_SecondaryCpuB_Port
                0x4007521c                GM_PROSTACK_F_IsTaskActivated
                0x4007531a                GM_PROSTACK_F_IpTskCreate
                0x400758e6                GM_PROS_IP_TSK_F_ValidConfig
                0x400765f6                GM_PROS_IP_TSK_F_CheckConfDuplicateIP
                0x400768ea                GM_PROS_IP_TSK_F_CheckConfMainStateChart
                0x40076982                GM_PROSTACK_F_IpTskTask
                0x40076da6                GM_PROS_IP_TSK_F_SnatCan
                0x4007706e                GM_PROS_IP_TSK_F_DnatCan
                0x40077456                GM_PROS_IP_TSK_F_SDnatCanPrio
                0x400776a8                GM_PROS_IP_TSK_F_ConfigFilteringFsfb2
                0x40077afe                GM_PROS_IP_TSK_F_ConfigFilteringRSSP1
                0x40077f40                GM_PROS_IP_TSK_F_RouteSnmp
                0x40078016                GM_PROS_IP_TSK_F_ConfigFilteringSnmp
                0x40078378                GM_PROS_IP_TSK_F_ConfigFilteringIPoverCAN
                0x400784f8                GM_PROS_IP_TSK_F_ConfigureFiltering
                0x40078888                GM_PROS_IP_TSK_F_StartAccordingtoConf
                0x4007a0cc                GM_PROS_IP_TSK_F_NotifyConfOK
                0x4007a110                GM_PROSTACK_F_IpTskStart
                0x4007a29a                GM_PROS_IP_TSK_F_RouteItfCan
 *fill*         0x4007a33e        0x2 
 .text          0x4007a340     0x23ec ../kernel/lib/CPU_B\libGCC_kernel.a(GCC_GM_PROSTACK_Udp.o)
                0x4007a38c                GM_PROS_UDP_F_FindSocket
                0x4007a432                GM_PROS_UDP_F_Checksum
                0x4007a576                GM_PROS_UDP_F_CheckChecksum
                0x4007a6c0                GM_PROS_UDP_F_Nat
                0x4007aac4                GM_PROSTACK_F_UdpGetPort
                0x4007ab3a                GM_PROS_UDP_F_Snat
                0x4007abc8                GM_PROS_UDP_F_Dnat
                0x4007ad46                GM_PROSTACK_F_UdpGetFreePort
                0x4007afde                GM_PROSTACK_F_UdpConfigFlagPost
                0x4007b086                GM_PROS_UDP_F_DnatFSFB2
                0x4007b3ae                GM_PROS_UDP_F_StoreRecvFrame
                0x4007b616                GM_PROS_UDP_F_Reception
                0x4007b964                GM_PROSTACK_F_UdpFlush
                0x4007ba50                GM_PROSTACK_F_UdpRecv
                0x4007be36                GM_PROSTACK_F_UdpSend
                0x4007c228                GM_PROSTACK_F_UdpClose
                0x4007c364                GM_PROSTACK_F_UdpOpen
                0x4007c648                GM_PROS_UDP_F_Init
 .text          0x4007c72c      0x56c ../kernel/lib/CPU_B\libGCC_kernel.a(GCC_GM_PROSTACK_Vote.o)
                0x4007c778                GM_PROS_VOTE_F_GetInternalFifo
                0x4007c786                GM_PROS_VOTE_F_Send
                0x4007c8e6                GM_PROS_VOTE_F_ProcessFunc
                0x4007cbc4                GM_PROS_VOTE_F_Init
 .text          0x4007cc98     0x36cc ../kernel/lib/CPU_B\libGCC_kernel.a(GCC_GM_Tftp.o)
                0x4007cce4                GM_TFTP_F_Config
                0x4007ccee                GM_TFTP_F_ReadInt16UInMessage
                0x4007cd5e                GM_TFTP_F_WriteInt16UInBuffer
                0x4007cdcc                GM_TFTP_F_ServiceSubscribe
                0x4007cfdc                GM_TFTP_F_Start
                0x4007d16c                GM_TFTP_F_FreeConnectionGet
                0x4007d25e                GM_TFTP_F_OpenConnection
                0x4007d452                GM_TFTP_F_OpenClientConnection
                0x4007d578                GM_TFTP_F_SendAck
                0x4007d692                GM_TFTP_F_SendRequestToServer
                0x4007d9a6                GM_TFTP_F_ResetConnection
                0x4007db12                GM_TFTP_F_ClientRead
                0x4007dcb4                GM_TFTP_F_ClientWrite
                0x4007de20                GM_TFTP_F_CloseConnection
                0x4007e006                GM_TFTP_F_ManageEndOfTransfer
                0x4007e07e                GM_TFTP_F_SendError
                0x4007e350                GM_TFTP_F_RecvError
                0x4007e41e                GM_TFTP_F_RecvMessage
                0x4007e604                GM_TFTP_F_RecvData
                0x4007e878                GM_TFTP_F_SendData
                0x4007eae8                GM_TFTP_F_RecvAck
                0x4007ed18                GM_TFTP_F_ManageConnection
                0x4007eebe                GM_TFTP_F_ReadConnectionMessage
                0x4007f4f8                GM_TFTP_F_SearchService
                0x4007f65e                GM_TFTP_F_CheckAndUnpackReqMessage
                0x4007f846                GM_TFTP_F_OpenServerConnection
                0x4007fafa                GM_TFTP_F_ReadServerMessage
                0x4007fdd0                GM_TFTP_F_Task
                0x4007ffde                GM_TFTP_F_Create
                0x400801b8                GM_TFTP_F_Retransmission
 .text          0x40080364       0x42 ../kernel/lib/CPU_B\libGCC_kernel.a(GCC_mstep_isr.o)
                0x40080364                MSTEP_ISR_F_GuestHandler
 *fill*         0x400803a6        0x2 
 .text          0x400803a8        0x0 ../kernel/lib/CPU_B\libGCC_kernel.a(GCC_Drv_Sha1_Functions_Asm.o)
 .text          0x400803a8      0x120 ../kernel/lib/CPU_B\libGCC_kernel.a(GCC_Drv_Can_Isr_Asm.o)
                0x400803a8                Drv_CAN_F_Asm_IsrCan0BusOff
                0x400803f8                Drv_CAN_F_Asm_IsrCan1BusOff
                0x40080448                Drv_CAN_F_Asm_IsrCan0Buffer
                0x40080488                Drv_CAN_F_Asm_IsrCan1Buffer
 .text          0x400804c8       0xa0 ../kernel/lib/CPU_B\libGCC_kernel.a(GCC_Drv_Fec_Isr_Asm.o)
                0x400804c8                Drv_Fec_F_Asm_EthRxHandler
                0x40080518                Drv_Fec_F_Asm_EthRxHandler1
 .text          0x40080568      0x140 ../kernel/lib/CPU_B\libGCC_kernel.a(GCC_Drv_Timer_Isr_Asm.o)
                0x40080568                Drv_Timer_F_Asm_Handler_0
                0x400805b8                Drv_Timer_F_Asm_Handler_1
                0x40080608                Drv_Timer_F_Asm_Handler_2
                0x40080658                Drv_Timer_F_Asm_Handler_3
 .text          0x400806a8       0xd0 ../kernel/lib/CPU_B\libGCC_kernel.a(GCC_Drv_Uart_Vote_Isr_Asm.o)
                0x400806a8                Drv_Uart_F_Asm_EndOfTxHandler
                0x400806f8                Drv_Uart_F_Asm_EndOfRxHandler
                0x40080738                Drv_Uart_F_Asm_RxHandler
 .text          0x40080778       0x46 ../kernel/lib/CPU_B\libGCC_kernel.a(GCC_VCU_Exception_Asm.o)
                0x40080778                GDF_ISR_F_Asm_FuseXirq
                0x400807a2                OSAsmExceptionHandler
 *fill*         0x400807be        0x2 
 .text          0x400807c0       0x16 ../kernel/lib/CPU_B\libGCC_kernel.a(GCC_mcf5xxx_lo.o)
                0x400807c0                BOOT_MCFXXXX_F_LoWrCacr1
                0x400807cc                mcf5xxx_wr_sr
 *fill*         0x400807d6        0x2 
 .text          0x400807d8        0x0 ../kernel/lib/CPU_B\libGCC_kernel.a(GCC_entry.o)
 .text          0x400807d8       0x24 ../kernel/lib/CPU_B\libGCC_kernel.a(GCC_os_cpu_a.o)
                0x400807d8                OS_CPU_SR_Save
                0x400807e8                OS_CPU_SR_Restore
                0x400807ec                OSInitVBR
 .text          0x400807fc     0x239c ../kernel/lib/CPU_B\libGCC_kernel.a(GCC_BIT.o)
                0x400807fc                BIT_F_FaultFilteringTimerStart
                0x4008086a                BIT_F_IsFaultFilteringAllowed
                0x400808a6                BIT_F_DistantCpuPowerSupervision
                0x40080968                BIT_F_GetDistantPowerSupplyFailure
                0x40080976                BIT_F_ResetBoard
                0x40080a6c                BIT_F_CheckUnusedMem
                0x40080c1c                BIT_F_PerformAction
                0x400810fa                BIT_F_AbrahamInit
                0x4008118e                BIT_F_AbrahamStep1
                0x400812ae                BIT_F_AbrahamStep2
                0x400813ce                BIT_F_AbrahamStep3
                0x400814ee                BIT_F_AbrahamStep4
                0x4008160e                BIT_F_AbrahamStep5
                0x40081736                BIT_F_AbrahamStep6
                0x4008185e                BIT_F_AbrahamReset
                0x4008192e                BIT_F_AbrahamStep7
                0x40081a56                BIT_F_AbrahamStep8
                0x40081b7e                BIT_F_AbrahamTestBoot
                0x40081d22                BIT_F_AbrahamTestLive
                0x40082238                BIT_F_CheckMemoryLive
                0x40082412                BIT_F_Create
                0x40082516                BIT_F_Config
                0x4008255a                BIT_F_Start
                0x40082600                BIT_F_EndRebootLoggedCallback
                0x40082798                BIT_F_Task
                0x40082b46                BIT_F_IsTaskActivated
 .text          0x40082b98     0x4168 ../kernel/lib/CPU_B\libGCC_kernel.a(GCC_CONF_autho.o)
                0x40082b98                CONF_AUTHO_F_PrintBootFailedInf
                0x40082c18                CONF_AUTHO_F_InitializeAndEnableStatistic
                0x40082c98                CONF_AUTHO_F_StatisticsInitialization
                0x40082cb4                CONF_AUTHO_F_IsBootFailedConditionFulfilled
                0x40082f10                CONF_AUTHO_F_IsNominalConditionFulfilled
                0x40083064                CONF_AUTHO_F_IsDatasetConfValid
                0x4008325e                CONF_AUTHO_F_IsDatasetParamValid
                0x40083412                CONF_AUTHO_F_IsElectronicStampFoolProofingOK
                0x400835da                CONF_F_IsBoardMaster
                0x400835e4                CONF_AUTHO_F_FreeTFTPDataBlockGet
                0x4008364c                CONF_AUTHO_F_AnalyzeEstampStatus
                0x40083704                CONF_AUTHO_F_GetFunctionalModeVoted
                0x400839e4                CONF_F_PrepareBootWithFuseInfo
                0x40083a56                CONF_F_FinalizeBootWithFuseInfo
                0x40083a6e                CONF_AUTHO_F_CreateXXXFile
                0x40083b22                CONF_AUTHO_F_CreateModuleDatasetFiles
                0x40083e4e                CONF_AUTHO_F_AddKeySourceToMyModuleDatasetFiles
                0x4008406c                CONF_AUTHO_F_AddSourcesToModuleDatasetDataFiles
                0x400842f4                CONF_AUTHO_F_NextFileForFootprintCalculation
                0x400845d0                CONF_AUTHO_F_NextAvailableFileForFootprintCalculation
                0x400847b6                CONF_AUTHO_F_FootprintFileWrite
                0x400849f6                CONF_AUTHO_F_FootprintCalculation
                0x40084cda                CONF_AUTHO_F_GetAuthorizationData
                0x40084f74                CONF_AUTHO_F_GetAuthorizationType
                0x40084fe0                CONF_AUTHO_F_CheckAuthorizationFreshness
                0x400850fa                CONF_AUTHO_F_CheckAuthorizationIntegrity
                0x4008528e                CONF_AUTHO_F_GetFootprintVerificationStatusVoted
                0x40085388                CONF_AUTHO_F_CheckAuthorization
                0x400857a2                CONF_AUTHO_F_ModuleDatasetStorageAndStartBistFlashCheckCb
                0x4008584e                CONF_AUTHO_F_StoreFileInFlash
                0x400859e2                CONF_AUTHO_F_StoreModuleDatasetAndStartBistFlashCheck
                0x40085dfc                CONF_AUTHO_F_SetMyModuleDatasetToOutdated
                0x400860ea                CONF_AUTHO_F_CheckModuleDatasetAuthorization
                0x40086240                CONF_AUTHO_F_FootprintComputationReset
                0x40086252                CONF_AUTHO_F_InvalidateModuleDatasetsCache
                0x40086280                CONF_AUTHO_F_SetRunningMode
                0x4008640c                CONF_F_Create
                0x40086730                CONF_F_Config
                0x40086772                CONF_F_Start
                0x40086b38                CONF_F_Task
 .text          0x40086d00     0x41d6 ../kernel/lib/CPU_B\libGCC_kernel.a(GCC_CONF_dataset.o)
                0x40086d00                CONF_DATASET_F_InitModuleAreaMotherTable
                0x4008734e                CONF_DATASET_F_InitDatasetConf
                0x40087638                CONF_DATASET_F_IsBoardIntA
                0x400876aa                CONF_DATASET_F_FuseIfNotBoardIntA
                0x40087728                CONF_DATASET_F_GetModuleBoardCode
                0x40087764                CONF_DATASET_F_GetOverTempThreshold
                0x4008779e                CONF_DATASET_F_GetModuleDataVersion
                0x400877da                CONF_DATASET_F_GetCanFlashingPeriod
                0x4008780e                CONF_DATASET_F_IsFaultFiltering_Active
                0x40087848                CONF_DATASET_F_GetOutputSafeData
                0x40087884                CONF_DATASET_F_GetInputSafeData
                0x400878c0                CONF_DATASET_F_GetGenericRedundancyArray
                0x400878fc                CONF_DATASET_F_GetBooleanRedundancyArray
                0x40087938                CONF_DATASET_F_GetFreezingTimer
                0x400879b4                CONF_DATASET_F_GetPDOStruct
                0x40087a6c                CONF_DATASET_F_GetSafetyID
                0x40087ada                CONF_DATASET_F_GetSntpIp
                0x40087c60                CONF_DATASET_F_GetSnmpIp
                0x40087de6                CONF_DATASET_F_GetFsfb2SinglePort
                0x40087e34                CONF_DATASET_F_GetFsfb2RedoundedPort
                0x40087e82                CONF_DATASET_F_GetRssp1NormPortOfPrimary
                0x40087ed0                CONF_DATASET_F_GetRssp1RedundPortOfPrimary
                0x40087f1e                CONF_DATASET_F_GetRssp1NormPortOfSecondary
                0x40087f6c                CONF_DATASET_F_GetRssp1RedundPortOfSecondary
                0x40087fba                CONF_DATASET_F_GetUnsafetyNormPort
                0x40088008                CONF_DATASET_F_GetUnsafetyRedundPort
                0x40088056                CONF_DATASET_F_GetUsigUevolRedundancyInfo
                0x400880ec                CONF_DATASET_F_GetIpStackInfo
                0x40088bde                CONF_DATASET_F_IsRedundancyStandalone
                0x40088c76                CONF_DATASET_F_GetUsigRedStructByIdx
                0x40088d54                CONF_DATASET_F_GetUsigRedundancyStruct
                0x40088e32                CONF_DATASET_F_GetUsigIdentParamByDynId
                0x40088f2e                CONF_DATASET_F_GetUsigIdentParamByEqId
                0x40089074                CONF_DATASET_F_GetSrttTimeoutByEqId
                0x40089114                CONF_DATASET_F_GetUsigOperation
                0x4008918a                CONF_DATASET_F_GetUsigSafetyIdByIndex
                0x4008928c                CONF_DATASET_F_GetUsigSafetyParamByEqId
                0x4008986e                CONF_DATASET_F_GetReprogIpStackInfo
                0x4008a116                CONF_DATASET_F_GetMessageArray
                0x4008a1a4                CONF_DATASET_F_GetAppliSubArea
                0x4008a22e                CONF_DATASET_F_CheckPdoArray
                0x4008a5ca                CONF_DATASET_F_CheckDatasetConfIntegrity
                0x4008a936                CONF_DATASET_F_GetDatasetConfHeaderSize
                0x4008a940                CONF_DATASET_F_GetDatasetConfRealSize
                0x4008a9e8                CONF_DATASET_F_GetMyDatasetConfRealSize
                0x4008ab1e                CONF_DATASET_F_CheckDatasetParamHeaderIntegrity
                0x4008abd6                CONF_DATASET_F_GetDatasetParamHeaderSize
                0x4008abe0                CONF_DATASET_F_GetDatasetParamRealSize
                0x4008ace2                CONF_DATASET_F_GetMyDatasetParamRealSize
                0x4008ad78                CONF_DATASET_F_GetSectorParamDataVersion
                0x4008adf0                CONF_DATASET_F_CheckDatasetUserData
                0x4008aec8                CONF_DATASET_F_GetDatasetConfIntAMinimumSize
 *fill*         0x4008aed6        0x2 
 .text          0x4008aed8      0x9e0 ../kernel/lib/CPU_B\libGCC_kernel.a(GCC_Schedule_gentask.o)
                0x4008aed8                SCHED_GENTASK_F_TaskCreate
                0x4008b2c0                SCHED_GENTASK_F_TaskConfig
                0x4008b346                SCHED_GENTASK_F_TaskStart
                0x4008b38e                SCHED_GENTASK_F_TaskGenericBody
 .text          0x4008b8b8      0x2de ../kernel/lib/CPU_B\libGCC_kernel.a(GCC_Drv_Can_Isr.o)
                0x4008b8b8                Drv_CAN_F_IsrCan0_Handler
                0x4008ba26                Drv_CAN_F_IsrCan1_Handler
 *fill*         0x4008bb96        0x2 
 .text          0x4008bb98        0x0 ../kernel/lib/CPU_B\libGCC_kernel.a(GCC_os_hooks.o)
 .text          0x4008bb98      0x428 ../kernel/lib/CPU_B\libGCC_kernel.a(GCC_idletaskcreate.o)
                0x4008bf5a                idleTaskEntry
                0x4008bf86                idleTaskCreate
 .text          0x4008bfc0      0x102 ../kernel/lib/CPU_B\libGCC_kernel.a(GCC_event.o)
                0x4008c078                eventModuleInit
 *fill*         0x4008c0c2        0x2 
 .text          0x4008c0c4      0x106 ../kernel/lib/CPU_B\libGCC_kernel.a(GCC_mempart.o)
                0x4008c17c                mempartModuleInit
 *fill*         0x4008c1ca        0x2 
 .text          0x4008c1cc      0x106 ../kernel/lib/CPU_B\libGCC_kernel.a(GCC_message_queue.o)
                0x4008c284                messageQueueModuleInit
 *fill*         0x4008c2d2        0x2 
 .text          0x4008c2d4      0x10a ../kernel/lib/CPU_B\libGCC_kernel.a(GCC_mutex.o)
                0x4008c38c                mutexModuleInit
 *fill*         0x4008c3de        0x2 
 .text          0x4008c3e0     0x21cc ../kernel/lib/CPU_B\libGCC_kernel.a(GCC_GM_PROSTACK_Arp.o)
                0x4008c42c                GM_PROS_ARP_F_SameSubnet
                0x4008c4e2                GM_PROS_ARP_F_ClearEntry
                0x4008c59a                GM_PROS_ARP_F_AddEntry
                0x4008c89e                GM_PROS_ARP_F_AddStaticEntry
                0x4008c8e8                GM_PROS_ARP_F_SendRequest
                0x4008cbf0                GM_PROS_ARP_F_PeriodicCheck
                0x4008ce40                GM_PROS_ARP_F_GratuitousARPRequest
                0x4008d382                GM_PROS_ARP_F_ProbeSend
                0x4008d85c                GM_PROS_ARP_F_ProbeStatus_1
                0x4008d904                GM_PROS_ARP_F_ProbeStatus_2
                0x4008d9ac                GM_PROS_ARP_F_ProbeStoreReply
                0x4008da54                GM_PROS_ARP_F_ProbeReset
                0x4008da96                GM_PROS_ARP_F_Init
                0x4008dba8                GM_PROS_ARP_F_FindEntry
                0x4008ddf0                GM_PROS_ARP_F_Reply
                0x4008e154                GM_PROS_ARP_F_ManageFrame
 .text          0x4008e5ac      0xb4a ../kernel/lib/CPU_B\libGCC_kernel.a(GCC_GM_PROSTACK_Can.o)
                0x4008e5ac                GM_PROS_CAN_F_GetInternalFifo
                0x4008e5ba                GM_PROS_CAN_F_GetCanAddrFromIP
                0x4008e648                GM_PROS_CAN_F_Send
                0x4008ea1e                GM_PROS_CAN_F_ProcessFunc
                0x4008ee64                GM_PROS_CAN_F_Start
                0x4008eea8                GM_PROS_CAN_F_Create
                0x4008ef54                GM_PROSTACK_F_CanAddressCheck
                0x4008efe2                GM_PROS_CAN_F_GetCanPrioFromIP
                0x4008f08c                GM_PROS_CAN_F_GetIPOverCANAddr
                0x4008f09a                GM_PROS_CAN_F_MemBlockIdGet
 *fill*         0x4008f0f6        0x2 
 .text          0x4008f0f8     0x10e0 ../kernel/lib/CPU_B\libGCC_kernel.a(GCC_GM_PROSTACK_Cop.o)
                0x4008f144                GM_PROS_COP_F_ServiceClose
                0x4008f816                GM_PROS_COP_F_IsCanRoutingAuthorized
                0x4008f996                GM_PROS_COP_F_Init
                0x4008fa1e                GM_PROS_COP_F_ManageCommandInfo
                0x4008fb34                GM_PROS_COP_F_ManageOpenCommand
                0x4008fef0                GM_PROS_COP_F_ServiceOpen
 .text          0x400901d8      0xf7c ../kernel/lib/CPU_B\libGCC_kernel.a(GCC_GM_PROSTACK_Eth.o)
                0x40090224                GM_PROS_ETH_F_RepeatFrame
                0x400902ee                GM_PROS_ETH_F_SendIp
                0x40090598                GM_PROS_ETH_F_ManageRepetition
                0x400909b8                GM_PROS_ETH_F_UpdateStat
                0x40090aea                GM_PROS_ETH_F_IpReceptionProcess
                0x40090fc8                GM_PROS_ETH_F_Start
                0x400910d2                GM_PROS_ETH_F_Create
 .text          0x40091154      0x57a ../kernel/lib/CPU_B\libGCC_kernel.a(GCC_GM_PROSTACK_Icmp.o)
                0x400911a0                GM_PROS_ICMP_F_Reception
 *fill*         0x400916ce        0x2 
 .text          0x400916d0      0x9f8 ../kernel/lib/CPU_B\libGCC_kernel.a(GCC_CONF_check.o)
                0x400916d0                CONF_CHECK_F_CheckDataRange
                0x40091732                CONF_CHECK_F_InitAtDefaultValue
                0x4009199c                CONF_CHECK_F_CheckKeyArea
 *(.code)
                0x400920c8                . = ALIGN (0x4)
                0x400920c8                __END_CODE_ROM = .
                0x20094cec                __CODE_SRAM_FLASH_START = (__CODE_FLASH_START + (__END_CODE_ROM - __START_CODE_ROM))

.sram_code      0x81000500      0x728 load address 0x20094cec
                0x81000500                __START_CODE_SRAM = .
 *(.textsram)
 .textsram      0x81000500       0xec ../kernel/lib/CPU_B\libGCC_kernel.a(GCC_wdg.o)
                0x81000500                WDG_F_SWSetFlag
 .textsram      0x810005ec       0x68 ../kernel/lib/CPU_B\libGCC_kernel.a(GCC_Drv_Boot_Module.o)
                0x810005ec                BOOT_F_Clear_Unused_Memory
 .textsram      0x81000654       0x52 ../kernel/lib/CPU_B\libGCC_kernel.a(GCC_isr_enter.o)
                0x81000654                isr_enter
 .textsram      0x810006a6       0x58 ../kernel/lib/CPU_B\libGCC_kernel.a(GCC_isr_exit.o)
                0x810006a6                isr_exit
 *fill*         0x810006fe        0x2 
 .textsram      0x81000700      0x33a ../kernel/lib/CPU_B\libGCC_kernel.a(GCC_Drv_Sha1_Functions_Asm.o)
                0x81000700                Drv_Cau_Sha1_Initialize_Output
                0x81000718                Drv_Cau_Sha1_Hash_N
                0x810008a0                Drv_Cau_Sha1_Update
                0x810008bc                Drv_Cau_Sha1_Hash
 *fill*         0x81000a3a        0x2 
 .textsram      0x81000a3c       0x66 ../kernel/lib/CPU_B\libGCC_kernel.a(GCC_entry.o)
                0x81000a3c                _context_switch
                0x81000a68                _context_restore
                0x81000a80                _shutdown
                0x81000a88                default_handler
 .textsram      0x81000aa2       0x34 ../kernel/lib/CPU_B\libGCC_kernel.a(GCC_os_cpu_a.o)
                0x81000aa2                OSGetSR
                0x81000aa6                _OSIntExitCF
 .textsram      0x81000ad6      0x152 ../kernel/lib/CPU_B\libGCC_kernel.a(GCC_os_hooks.o)
                0x81000ad6                OSTaskIdleHook
                0x81000aec                OSTaskStatHook
                0x81000b02                OSTimeTickHook
                0x81000bcc                Task_Idle_Hook
                0x81000bda                Task_Statis_Hook
                0x81000be8                Time_Tick_Hook
                0x81000bf6                Fatal_Error_Hook
                0x81000c28                . = ALIGN (0x4)
                0x81000c28                __END_CODE_SRAM = .
                0x20000000                . = ADDR (.ext_flash)
                0x20095414                __DATA_SRAM_FLASH_START = (__CODE_SRAM_FLASH_START + (__END_CODE_SRAM - __START_CODE_SRAM))
                0x81000500                __DATA_RAM_START = ADDR (.sram_user)

.initialized_data_sram
                0x81000c28       0xc0 load address 0x20095414
                0x81000c28                __DATA_SRAM_START = .
 *(.dataos)
 .dataos        0x81000c28        0x8 ../kernel/lib/CPU_B\libGCC_kernel.a(GCC_core.o)
                0x81000c28                osState
                0x81000c2c                osCritical
 .dataos        0x81000c30        0x4 ../kernel/lib/CPU_B\libGCC_kernel.a(GCC_isr.o)
                0x81000c30                irqNestLvl
 .dataos        0x81000c34        0x4 ../kernel/lib/CPU_B\libGCC_kernel.a(GCC_sys_tick.o)
                0x81000c34                sysCounter
 *(.sdataos)
 *(.idata_sram)
 .idata_sram    0x81000c38       0x11 ../kernel/lib/CPU_B\libGCC_kernel.a(GCC_VOTE_com.o)
 *fill*         0x81000c49        0x3 
 .idata_sram    0x81000c4c        0x8 ../kernel/lib/CPU_B\libGCC_kernel.a(GCC_Drv_Boot_Module.o)
                0x81000c4e                BOOT_V_IsTransplantable
                0x81000c50                BOOT_V_MemoryTestSignature
 .idata_sram    0x81000c54        0x8 ../kernel/lib/CPU_B\libGCC_kernel.a(GCC_Drv_Fec_Lib.o)
                0x81000c54                IPS_FECDRV_V_TxCounter
 .idata_sram    0x81000c5c        0x4 ../kernel/lib/CPU_B\libGCC_kernel.a(GCC_Drv_Uart_Vote.o)
                0x81000c5c                VOTE_DRV_V_WritingBuff
 .idata_sram    0x81000c60       0x88 ../kernel/lib/CPU_B\libGCC_kernel.a(GCC_BIT.o)
 *(.databoot)
                0x81000ce8                . = ALIGN (0x4)
                0x81000ce8                __NO_TEST_SRAM_INIT_SECTION_START = .
 *(.idata_no_memtest_sram)
                0x81000ce8                . = ALIGN (0x4)
                0x81000ce8                __NO_TEST_SRAM_INIT_SECTION_END = .
                0x81000ce8                __DATA_SRAM_END = .
                0x200954d4                __CONST_SRAM_FLASH_START = (__DATA_SRAM_FLASH_START + (__DATA_SRAM_END - __DATA_SRAM_START))

.initialized_constant_sram
                0x81000ce8        0xc load address 0x200954d4
                0x81000ce8                __CONST_SRAM_START = .
 *(.rodataos)
 .rodataos      0x81000ce8        0xa ../kernel/lib/CPU_B\libGCC_kernel.a(GCC_VCU_Start.o)
                0x81000cf4                . = ALIGN (0x4)
 *fill*         0x81000cf2        0x2 
                0x81000cf4                __CONST_SRAM_END = .
                0x81000cf4                __DATA_END = .
                0x200954e0                __DATA_EXT_FLASH_START = (__CONST_SRAM_FLASH_START + (__CONST_SRAM_END - __CONST_SRAM_START))
                0x44000000                __DATA_EXT_START = ADDR (.ext_sdram_data)

.initialized_data_extram
                0x44000000     0x1988 load address 0x200954e0
                0x44000000                __DATA_EXT_SDRAM_DATA_START = .
 *(.data)
 .data          0x44000000       0x40 ./out/CPU_B/GCC_guest.o
 .data          0x44000040        0x0 ./out/CPU_B/GCC_guest_fuse.o
 .data          0x44000040        0x0 ./out/CPU_B/GCC_guest_isolation.o
 .data          0x44000040        0x0 ./out/CPU_B/GCC_guest_outputport.o
 .data          0x44000040       0x19 ./out/CPU_B/GCC_guest_public.o
                0x44000040                g_LastTest
                0x44000044                g_CycleNO
                0x44000048                g_ISOTCycleNO
                0x4400004c                g_FUSETCycleNO
                0x44000050                g_TFTPCycleNO
                0x44000054                g_InterruptCNT
 *fill*         0x44000059        0x3 
 .data          0x4400005c       0x14 ./out/CPU_B/GCC_guest_readback.o
 .data          0x44000070        0x0 ./out/CPU_B/GCC_crc_result.o
 .data          0x44000070        0x0 ../kernel/lib/CPU_B\libGCC_kernel.a(GCC_VCU_Start_Asm.o)
 .data          0x44000070        0x0 ../kernel/lib/CPU_B\libGCC_kernel.a(GCC_mstep.o)
 .data          0x44000070       0xa1 ../kernel/lib/CPU_B\libGCC_kernel.a(GCC_BIT_fuse.o)
                0x44000070                BIT_FUSE_V_Comp
                0x440000c0                BIT_FUSE_V_CompDiff
 *fill*         0x44000111        0x3 
 .data          0x44000114        0x2 ../kernel/lib/CPU_B\libGCC_kernel.a(GCC_BIT_survey.o)
 *fill*         0x44000116        0x2 
 .data          0x44000118        0x8 ../kernel/lib/CPU_B\libGCC_kernel.a(GCC_can.o)
                0x44000118                CAN_V_MasterStatus
                0x4400011c                CAN_V_TSCount
 .data          0x44000120        0x0 ../kernel/lib/CPU_B\libGCC_kernel.a(GCC_can_ard.o)
 .data          0x44000120        0x0 ../kernel/lib/CPU_B\libGCC_kernel.a(GCC_can_config.o)
 .data          0x44000120        0x0 ../kernel/lib/CPU_B\libGCC_kernel.a(GCC_can_emcy.o)
 .data          0x44000120      0x7a4 ../kernel/lib/CPU_B\libGCC_kernel.a(GCC_can_od.o)
                0x44000120                CAN_OD_V_IdentitySub0
                0x44000121                CAN_OD_V_GenMaintDefaultName
                0x4400014b                CAN_OD_V_genMaintNbSubIdx
                0x4400014c                CAN_OD_V_ODDeviceType
                0x44000150                CAN_OD_V_SyncId
                0x44000154                CAN_OD_V_CyclePeriod
                0x44000158                CAN_OD_V_DeviceName
                0x44000160                CAN_OD_V_TimeStampId
                0x44000164                CAN_OD_V_EmergencyId
                0x44000168                CAN_OD_V_ProducerHeartbeatTime
                0x4400016a                CAN_OD_V_HardwareName
                0x44000170                CAN_OD_V_ChecksumSub0
                0x44000174                CAN_OD_V_GeneralDeviceObj
                0x4400030c                CAN_OD_V_MonitoringDatas
                0x440007a4                CAN_OD_V_ManufacturerSpecificObjects
                0x4400087c                CAN_OD_V_SwitchModeRequestTable
                0x44000894                CAN_OD_V_StepperActivityTable
 .data          0x440008c4        0x0 ../kernel/lib/CPU_B\libGCC_kernel.a(GCC_can_odplug.o)
 .data          0x440008c4        0x2 ../kernel/lib/CPU_B\libGCC_kernel.a(GCC_can_open.o)
 *fill*         0x440008c6        0x2 
 .data          0x440008c8        0x0 ../kernel/lib/CPU_B\libGCC_kernel.a(GCC_can_saddle.o)
 .data          0x440008c8        0x1 ../kernel/lib/CPU_B\libGCC_kernel.a(GCC_can_safety.o)
 *fill*         0x440008c9        0x3 
 .data          0x440008cc        0x0 ../kernel/lib/CPU_B\libGCC_kernel.a(GCC_can_sdo.o)
 .data          0x440008cc        0x0 ../kernel/lib/CPU_B\libGCC_kernel.a(GCC_can_time.o)
 .data          0x440008cc        0x4 ../kernel/lib/CPU_B\libGCC_kernel.a(GCC_CONF.o)
                0x440008cc                CONF_V_ConfKeyStatus
 .data          0x440008d0        0x0 ../kernel/lib/CPU_B\libGCC_kernel.a(GCC_CONF_local.o)
 .data          0x440008d0        0x8 ../kernel/lib/CPU_B\libGCC_kernel.a(GCC_CONF_src.o)
                0x440008d0                CONF_SRC_FLASH_V_LastFlushedFile
 .data          0x440008d8      0x204 ../kernel/lib/CPU_B\libGCC_kernel.a(GCC_FCODE.o)
 .data          0x44000adc       0x48 ../kernel/lib/CPU_B\libGCC_kernel.a(GCC_FILESYS.o)
                0x44000adc                FILESYS_V_FsFileListArray
 .data          0x44000b24        0x0 ../kernel/lib/CPU_B\libGCC_kernel.a(GCC_FILESYS_int.o)
 .data          0x44000b24        0x5 ../kernel/lib/CPU_B\libGCC_kernel.a(GCC_FILESYS_tftp.o)
                0x44000b24                FILESYS_TFTP_V_bModuleDatasetRetrivalAllowed
 *fill*         0x44000b29        0x3 
 .data          0x44000b2c        0x0 ../kernel/lib/CPU_B\libGCC_kernel.a(GCC_Flash.o)
 .data          0x44000b2c        0x0 ../kernel/lib/CPU_B\libGCC_kernel.a(GCC_Flash_Async.o)
 .data          0x44000b2c        0x0 ../kernel/lib/CPU_B\libGCC_kernel.a(GCC_Flash_Direct.o)
 .data          0x44000b2c        0x1 ../kernel/lib/CPU_B\libGCC_kernel.a(GCC_gdf.o)
 *fill*         0x44000b2d        0x3 
 .data          0x44000b30        0x5 ../kernel/lib/CPU_B\libGCC_kernel.a(GCC_gdf_dump_tools.o)
 *fill*         0x44000b35        0x3 
 .data          0x44000b38        0x0 ../kernel/lib/CPU_B\libGCC_kernel.a(GCC_MATH.o)
 .data          0x44000b38        0x0 ../kernel/lib/CPU_B\libGCC_kernel.a(GCC_osw.o)
 .data          0x44000b38        0xc ../kernel/lib/CPU_B\libGCC_kernel.a(GCC_print.o)
                0x44000b38                PRINT_V_bPrintfAuth
                0x44000b3c                PRINT_V_PrintLevel
 .data          0x44000b44        0x0 ../kernel/lib/CPU_B\libGCC_kernel.a(GCC_RECORD.o)
 .data          0x44000b44        0x4 ../kernel/lib/CPU_B\libGCC_kernel.a(GCC_RECORD_evt.o)
 .data          0x44000b48        0x8 ../kernel/lib/CPU_B\libGCC_kernel.a(GCC_RECORD_pda.o)
                0x44000b48                RECORD_PDA_V_RefSectorBaseAddr
 .data          0x44000b50        0x0 ../kernel/lib/CPU_B\libGCC_kernel.a(GCC_RECORD_sector.o)
 .data          0x44000b50        0x0 ../kernel/lib/CPU_B\libGCC_kernel.a(GCC_RECORD_stat.o)
 .data          0x44000b50        0x0 ../kernel/lib/CPU_B\libGCC_kernel.a(GCC_RECORD_utl.o)
 .data          0x44000b50       0x14 ../kernel/lib/CPU_B\libGCC_kernel.a(GCC_Schedule.o)
                0x44000b50                SCHED_V_CommonTime
                0x44000b54                SCHED_V_TickCptVar
 .data          0x44000b64        0x0 ../kernel/lib/CPU_B\libGCC_kernel.a(GCC_Schedule_gta.o)
 .data          0x44000b64        0x1 ../kernel/lib/CPU_B\libGCC_kernel.a(GCC_Schedule_launcher.o)
 *fill*         0x44000b65        0x3 
 .data          0x44000b68        0x9 ../kernel/lib/CPU_B\libGCC_kernel.a(GCC_Schedule_utl.o)
                0x44000b68                SCHED_V_BootFuseState
 *fill*         0x44000b71        0x3 
 .data          0x44000b74        0x0 ../kernel/lib/CPU_B\libGCC_kernel.a(GCC_VCU_Start.o)
 .data          0x44000b74       0x14 ../kernel/lib/CPU_B\libGCC_kernel.a(GCC_SDB.o)
                0x44000b74                SDB_V_FunctionalMode
 .data          0x44000b88        0x0 ../kernel/lib/CPU_B\libGCC_kernel.a(GCC_SDB_api.o)
 .data          0x44000b88        0x0 ../kernel/lib/CPU_B\libGCC_kernel.a(GCC_SDB_intercpu.o)
 .data          0x44000b88        0x0 ../kernel/lib/CPU_B\libGCC_kernel.a(GCC_SDB_ioplug.o)
 .data          0x44000b88       0x80 ../kernel/lib/CPU_B\libGCC_kernel.a(GCC_SDB_update.o)
 .data          0x44000c08        0x0 ../kernel/lib/CPU_B\libGCC_kernel.a(GCC_SDB_updatelist.o)
 .data          0x44000c08        0x0 ../kernel/lib/CPU_B\libGCC_kernel.a(GCC_std.o)
 .data          0x44000c08       0x14 ../kernel/lib/CPU_B\libGCC_kernel.a(GCC_VOTE.o)
 .data          0x44000c1c        0x8 ../kernel/lib/CPU_B\libGCC_kernel.a(GCC_VOTE_com.o)
 .data          0x44000c24        0x0 ../kernel/lib/CPU_B\libGCC_kernel.a(GCC_VOTE_tsk.o)
 .data          0x44000c24        0x0 ../kernel/lib/CPU_B\libGCC_kernel.a(GCC_wdg.o)
 .data          0x44000c24       0xa0 ../kernel/lib/CPU_B\libGCC_kernel.a(GCC_viv.o)
                0x44000c24                VIV_V_MemoryTypes
 .data          0x44000cc4        0x0 ../kernel/lib/CPU_B\libGCC_kernel.a(GCC_Drv_CAU_Lib.o)
 .data          0x44000cc4        0xe ../kernel/lib/CPU_B\libGCC_kernel.a(GCC_Drv_BID_Lib.o)
 *fill*         0x44000cd2        0x2 
 .data          0x44000cd4        0x0 ../kernel/lib/CPU_B\libGCC_kernel.a(GCC_Drv_Boot_Module.o)
 .data          0x44000cd4        0x0 ../kernel/lib/CPU_B\libGCC_kernel.a(GCC_Drv_Boot_Utils.o)
 .data          0x44000cd4        0x0 ../kernel/lib/CPU_B\libGCC_kernel.a(GCC_Drv_Cache_Lib.o)
 .data          0x44000cd4       0x28 ../kernel/lib/CPU_B\libGCC_kernel.a(GCC_Drv_Can_Lib.o)
                0x44000cd4                CAN_DRIVER_V_IsFirstSync
                0x44000cd8                CAN_DRIVER_V_RunningMode
                0x44000cdc                CAN_DRIVER_V_BusState
                0x44000ce4                CAN_DRIVER_V_ChannelStatus
 .data          0x44000cfc        0x4 ../kernel/lib/CPU_B\libGCC_kernel.a(GCC_Drv_Fec_Lib.o)
                0x44000cfc                IPS_FECDRV_V_TransceiverModel
 .data          0x44000d00        0x0 ../kernel/lib/CPU_B\libGCC_kernel.a(GCC_Drv_Flash_Parallel_Lib.o)
 .data          0x44000d00        0x0 ../kernel/lib/CPU_B\libGCC_kernel.a(GCC_Drv_Flash_Spi_Lib.o)
 .data          0x44000d00      0x220 ../kernel/lib/CPU_B\libGCC_kernel.a(GCC_Drv_Gpio.o)
                0x44000d00                VCU_GPIO_V_GPIOMapping
                0x44000e10                VCU_GPIO_V_Mapping
 .data          0x44000f20        0x0 ../kernel/lib/CPU_B\libGCC_kernel.a(GCC_Drv_MMU_Lib.o)
 .data          0x44000f20        0x0 ../kernel/lib/CPU_B\libGCC_kernel.a(GCC_Drv_SDRAM_Lib.o)
 .data          0x44000f20        0x0 ../kernel/lib/CPU_B\libGCC_kernel.a(GCC_Drv_Spi_Lib.o)
 .data          0x44000f20       0x1c ../kernel/lib/CPU_B\libGCC_kernel.a(GCC_Drv_Timer_Lib.o)
 .data          0x44000f3c        0x8 ../kernel/lib/CPU_B\libGCC_kernel.a(GCC_Drv_Uart_Vote.o)
 .data          0x44000f44        0x0 ../kernel/lib/CPU_B\libGCC_kernel.a(GCC_bsp.o)
 .data          0x44000f44        0x0 ../kernel/lib/CPU_B\libGCC_kernel.a(GCC_exceptions.o)
 .data          0x44000f44        0x0 ../kernel/lib/CPU_B\libGCC_kernel.a(GCC_os_core.o)
 .data          0x44000f44        0x0 ../kernel/lib/CPU_B\libGCC_kernel.a(GCC_os_flag.o)
 .data          0x44000f44        0x0 ../kernel/lib/CPU_B\libGCC_kernel.a(GCC_os_mem.o)
 .data          0x44000f44        0x0 ../kernel/lib/CPU_B\libGCC_kernel.a(GCC_os_q.o)
 .data          0x44000f44        0x0 ../kernel/lib/CPU_B\libGCC_kernel.a(GCC_os_sem.o)
 .data          0x44000f44        0x0 ../kernel/lib/CPU_B\libGCC_kernel.a(GCC_os_task.o)
 .data          0x44000f44        0x0 ../kernel/lib/CPU_B\libGCC_kernel.a(GCC_os_time.o)
 .data          0x44000f44        0x0 ../kernel/lib/CPU_B\libGCC_kernel.a(GCC_core.o)
 .data          0x44000f44        0x0 ../kernel/lib/CPU_B\libGCC_kernel.a(GCC_coretask.o)
 .data          0x44000f44        0x0 ../kernel/lib/CPU_B\libGCC_kernel.a(GCC_event_group_create.o)
 .data          0x44000f44        0x0 ../kernel/lib/CPU_B\libGCC_kernel.a(GCC_event_group_delete.o)
 .data          0x44000f44        0x0 ../kernel/lib/CPU_B\libGCC_kernel.a(GCC_event_group_delete_force.o)
 .data          0x44000f44        0x0 ../kernel/lib/CPU_B\libGCC_kernel.a(GCC_event_group_info.o)
 .data          0x44000f44        0x0 ../kernel/lib/CPU_B\libGCC_kernel.a(GCC_event_notify.o)
 .data          0x44000f44        0x0 ../kernel/lib/CPU_B\libGCC_kernel.a(GCC_event_ready_get.o)
 .data          0x44000f44        0x0 ../kernel/lib/CPU_B\libGCC_kernel.a(GCC_event_try_wait.o)
 .data          0x44000f44        0x0 ../kernel/lib/CPU_B\libGCC_kernel.a(GCC_event_wait.o)
 .data          0x44000f44        0x0 ../kernel/lib/CPU_B\libGCC_kernel.a(GCC_fatal_error_raise.o)
 .data          0x44000f44        0x0 ../kernel/lib/CPU_B\libGCC_kernel.a(GCC_irq_resume.o)
 .data          0x44000f44        0x0 ../kernel/lib/CPU_B\libGCC_kernel.a(GCC_irq_suspend.o)
 .data          0x44000f44        0x0 ../kernel/lib/CPU_B\libGCC_kernel.a(GCC_isr.o)
 .data          0x44000f44        0x0 ../kernel/lib/CPU_B\libGCC_kernel.a(GCC_isr_enter.o)
 .data          0x44000f44        0x0 ../kernel/lib/CPU_B\libGCC_kernel.a(GCC_isr_exit.o)
 .data          0x44000f44        0x0 ../kernel/lib/CPU_B\libGCC_kernel.a(GCC_isr_level_get.o)
 .data          0x44000f44        0x0 ../kernel/lib/CPU_B\libGCC_kernel.a(GCC_mempart_alloc.o)
 .data          0x44000f44        0x0 ../kernel/lib/CPU_B\libGCC_kernel.a(GCC_mempart_create.o)
 .data          0x44000f44        0x0 ../kernel/lib/CPU_B\libGCC_kernel.a(GCC_mempart_free.o)
 .data          0x44000f44        0x0 ../kernel/lib/CPU_B\libGCC_kernel.a(GCC_mempart_info.o)
 .data          0x44000f44        0x0 ../kernel/lib/CPU_B\libGCC_kernel.a(GCC_message_queue_broadcast.o)
 .data          0x44000f44        0x0 ../kernel/lib/CPU_B\libGCC_kernel.a(GCC_message_queue_create.o)
 .data          0x44000f44        0x0 ../kernel/lib/CPU_B\libGCC_kernel.a(GCC_message_queue_delete.o)
 .data          0x44000f44        0x0 ../kernel/lib/CPU_B\libGCC_kernel.a(GCC_message_queue_delete_force.o)
 .data          0x44000f44        0x0 ../kernel/lib/CPU_B\libGCC_kernel.a(GCC_message_queue_flush.o)
 .data          0x44000f44        0x0 ../kernel/lib/CPU_B\libGCC_kernel.a(GCC_message_queue_info.o)
 .data          0x44000f44        0x0 ../kernel/lib/CPU_B\libGCC_kernel.a(GCC_message_queue_receive.o)
 .data          0x44000f44        0x0 ../kernel/lib/CPU_B\libGCC_kernel.a(GCC_message_queue_send.o)
 .data          0x44000f44        0x0 ../kernel/lib/CPU_B\libGCC_kernel.a(GCC_message_queue_send_first.o)
 .data          0x44000f44        0x0 ../kernel/lib/CPU_B\libGCC_kernel.a(GCC_message_queue_try_receive.o)
 .data          0x44000f44        0x0 ../kernel/lib/CPU_B\libGCC_kernel.a(GCC_os_init.o)
 .data          0x44000f44        0x0 ../kernel/lib/CPU_B\libGCC_kernel.a(GCC_os_safety_critical.o)
 .data          0x44000f44        0x0 ../kernel/lib/CPU_B\libGCC_kernel.a(GCC_os_shutdown.o)
 .data          0x44000f44        0x0 ../kernel/lib/CPU_B\libGCC_kernel.a(GCC_os_start.o)
 .data          0x44000f44        0x0 ../kernel/lib/CPU_B\libGCC_kernel.a(GCC_sched_lock.o)
 .data          0x44000f44        0x0 ../kernel/lib/CPU_B\libGCC_kernel.a(GCC_sched_unlock.o)
 .data          0x44000f44        0x0 ../kernel/lib/CPU_B\libGCC_kernel.a(GCC_semaphore.o)
 .data          0x44000f44        0x0 ../kernel/lib/CPU_B\libGCC_kernel.a(GCC_semaphore_count_get.o)
 .data          0x44000f44        0x0 ../kernel/lib/CPU_B\libGCC_kernel.a(GCC_semaphore_count_set.o)
 .data          0x44000f44        0x0 ../kernel/lib/CPU_B\libGCC_kernel.a(GCC_semaphore_create.o)
 .data          0x44000f44        0x0 ../kernel/lib/CPU_B\libGCC_kernel.a(GCC_semaphore_delete.o)
 .data          0x44000f44        0x0 ../kernel/lib/CPU_B\libGCC_kernel.a(GCC_semaphore_delete_force.o)
 .data          0x44000f44        0x0 ../kernel/lib/CPU_B\libGCC_kernel.a(GCC_semaphore_give.o)
 .data          0x44000f44        0x0 ../kernel/lib/CPU_B\libGCC_kernel.a(GCC_semaphore_take.o)
 .data          0x44000f44        0x0 ../kernel/lib/CPU_B\libGCC_kernel.a(GCC_semaphore_try_take.o)
 .data          0x44000f44        0x0 ../kernel/lib/CPU_B\libGCC_kernel.a(GCC_sys_tick.o)
 .data          0x44000f44        0x0 ../kernel/lib/CPU_B\libGCC_kernel.a(GCC_sys_tick_get.o)
 .data          0x44000f44        0x0 ../kernel/lib/CPU_B\libGCC_kernel.a(GCC_sys_tick_increment.o)
 .data          0x44000f44        0x0 ../kernel/lib/CPU_B\libGCC_kernel.a(GCC_sys_tick_set.o)
 .data          0x44000f44        0x0 ../kernel/lib/CPU_B\libGCC_kernel.a(GCC_task.o)
 .data          0x44000f44        0x0 ../kernel/lib/CPU_B\libGCC_kernel.a(GCC_task_check_idle_stack.o)
 .data          0x44000f44        0x0 ../kernel/lib/CPU_B\libGCC_kernel.a(GCC_task_check_stack.o)
 .data          0x44000f44        0x0 ../kernel/lib/CPU_B\libGCC_kernel.a(GCC_task_create.o)
 .data          0x44000f44        0x0 ../kernel/lib/CPU_B\libGCC_kernel.a(GCC_task_delay.o)
 .data          0x44000f44        0x0 ../kernel/lib/CPU_B\libGCC_kernel.a(GCC_task_delay_cancel.o)
 .data          0x44000f44        0x0 ../kernel/lib/CPU_B\libGCC_kernel.a(GCC_task_delete.o)
 .data          0x44000f44        0x0 ../kernel/lib/CPU_B\libGCC_kernel.a(GCC_task_get_by_priority.o)
 .data          0x44000f44        0x0 ../kernel/lib/CPU_B\libGCC_kernel.a(GCC_task_get_priority.o)
 .data          0x44000f44        0x0 ../kernel/lib/CPU_B\libGCC_kernel.a(GCC_task_info.o)
 .data          0x44000f44        0x0 ../kernel/lib/CPU_B\libGCC_kernel.a(GCC_task_resume.o)
 .data          0x44000f44        0x0 ../kernel/lib/CPU_B\libGCC_kernel.a(GCC_task_set_priority.o)
 .data          0x44000f44        0x0 ../kernel/lib/CPU_B\libGCC_kernel.a(GCC_task_statis_init.o)
 .data          0x44000f44        0x0 ../kernel/lib/CPU_B\libGCC_kernel.a(GCC_task_suspend.o)
 .data          0x44000f44        0x0 ../kernel/lib/CPU_B\libGCC_kernel.a(GCC_os_cpu_c.o)
 .data          0x44000f44        0x0 ../kernel/lib/CPU_B\libGCC_kernel.a(GCC_GM_PROSTACK_Ip.o)
 .data          0x44000f44       0x44 ../kernel/lib/CPU_B\libGCC_kernel.a(GCC_GM_PROSTACK_Ip_tsk.o)
                0x44000f44                GM_PROS_IP_TSK_V_EthernetItf_1
                0x44000f58                GM_PROS_IP_TSK_V_EthernetItf_2
 .data          0x44000f88        0x0 ../kernel/lib/CPU_B\libGCC_kernel.a(GCC_GM_PROSTACK_Udp.o)
 .data          0x44000f88        0x0 ../kernel/lib/CPU_B\libGCC_kernel.a(GCC_GM_PROSTACK_Vote.o)
 .data          0x44000f88        0x0 ../kernel/lib/CPU_B\libGCC_kernel.a(GCC_GM_Tftp.o)
 .data          0x44000f88        0x0 ../kernel/lib/CPU_B\libGCC_kernel.a(GCC_mstep_isr.o)
 *fill*         0x44000f88        0x8 
 .data          0x44000f90       0x30 ../kernel/lib/CPU_B\libGCC_kernel.a(GCC_Drv_Sha1_Functions_Asm.o)
 .data          0x44000fc0        0x0 ../kernel/lib/CPU_B\libGCC_kernel.a(GCC_Drv_Can_Isr_Asm.o)
 .data          0x44000fc0        0x0 ../kernel/lib/CPU_B\libGCC_kernel.a(GCC_Drv_Fec_Isr_Asm.o)
 .data          0x44000fc0        0x0 ../kernel/lib/CPU_B\libGCC_kernel.a(GCC_Drv_Timer_Isr_Asm.o)
 .data          0x44000fc0        0x0 ../kernel/lib/CPU_B\libGCC_kernel.a(GCC_Drv_Uart_Vote_Isr_Asm.o)
 .data          0x44000fc0        0x0 ../kernel/lib/CPU_B\libGCC_kernel.a(GCC_VCU_Exception_Asm.o)
 .data          0x44000fc0        0x0 ../kernel/lib/CPU_B\libGCC_kernel.a(GCC_mcf5xxx_lo.o)
 .data          0x44000fc0        0x0 ../kernel/lib/CPU_B\libGCC_kernel.a(GCC_entry.o)
 .data          0x44000fc0        0x0 ../kernel/lib/CPU_B\libGCC_kernel.a(GCC_os_cpu_a.o)
 .data          0x44000fc0        0x4 ../kernel/lib/CPU_B\libGCC_kernel.a(GCC_BIT.o)
 .data          0x44000fc4       0xd5 ../kernel/lib/CPU_B\libGCC_kernel.a(GCC_CONF_autho.o)
                0x44000fc4                CONF_AUTHO_V_bIsQuickBoot
                0x44000fc5                CONF_AUTHO_V_bIsFirstFootprintCalculation
 *fill*         0x44001099        0x3 
 .data          0x4400109c      0x7bc ../kernel/lib/CPU_B\libGCC_kernel.a(GCC_CONF_dataset.o)
 .data          0x44001858        0x0 ../kernel/lib/CPU_B\libGCC_kernel.a(GCC_Schedule_gentask.o)
 .data          0x44001858        0x0 ../kernel/lib/CPU_B\libGCC_kernel.a(GCC_Drv_Can_Isr.o)
 .data          0x44001858        0x0 ../kernel/lib/CPU_B\libGCC_kernel.a(GCC_os_hooks.o)
 .data          0x44001858        0x0 ../kernel/lib/CPU_B\libGCC_kernel.a(GCC_idletaskcreate.o)
 .data          0x44001858        0x0 ../kernel/lib/CPU_B\libGCC_kernel.a(GCC_event.o)
 .data          0x44001858        0x0 ../kernel/lib/CPU_B\libGCC_kernel.a(GCC_mempart.o)
 .data          0x44001858        0x0 ../kernel/lib/CPU_B\libGCC_kernel.a(GCC_message_queue.o)
 .data          0x44001858        0x0 ../kernel/lib/CPU_B\libGCC_kernel.a(GCC_mutex.o)
 .data          0x44001858        0x0 ../kernel/lib/CPU_B\libGCC_kernel.a(GCC_GM_PROSTACK_Arp.o)
 .data          0x44001858        0x0 ../kernel/lib/CPU_B\libGCC_kernel.a(GCC_GM_PROSTACK_Can.o)
 .data          0x44001858        0x0 ../kernel/lib/CPU_B\libGCC_kernel.a(GCC_GM_PROSTACK_Cop.o)
 .data          0x44001858        0x0 ../kernel/lib/CPU_B\libGCC_kernel.a(GCC_GM_PROSTACK_Eth.o)
 .data          0x44001858        0x0 ../kernel/lib/CPU_B\libGCC_kernel.a(GCC_GM_PROSTACK_Icmp.o)
 .data          0x44001858        0x0 ../kernel/lib/CPU_B\libGCC_kernel.a(GCC_CONF_check.o)
 *(.sdata)
                0x44001858                . = ALIGN (0x4)
                0x44001858                __DCA_INIT_SECTION_START = .
 *(.idata_dca)
 .idata_dca     0x44001858       0x1a ../kernel/lib/CPU_B\libGCC_kernel.a(GCC_can.o)
                0x44001858                CAN_V_InfoKeyBoardType
                0x4400185c                CAN_V_InternalState
                0x44001860                CAN_V_MyBoardModuleID
                0x44001861                CAN_V_MyCpuNodeID
                0x44001864                CAN_V_Led
                0x44001868                CAN_V_FlashingGpio
                0x4400186c                CAN_V_HBOffset
 .idata_dca     0x44001872        0x1 ../kernel/lib/CPU_B\libGCC_kernel.a(GCC_can_ard.o)
 *fill*         0x44001873        0x1 
 .idata_dca     0x44001874       0x16 ../kernel/lib/CPU_B\libGCC_kernel.a(GCC_can_config.o)
                0x44001874                CAN_CONF_V_MinRxCobID
                0x44001878                CAN_CONF_V_MaxRxCobID
                0x4400187c                CAN_CONF_V_MinStandbyCobID
                0x44001880                CAN_CONF_V_MaxStandbyCobID
                0x44001884                CAN_CONF_V_FlashingPeriod
                0x44001888                CAN_CONF_V_isConfReady
 .idata_dca     0x4400188a        0x3 ../kernel/lib/CPU_B\libGCC_kernel.a(GCC_can_od.o)
                0x4400188a                CAN_OD_V_IsODTableInitDone
                0x4400188b                CAN_OD_V_RackNumber
                0x4400188c                CAN_OD_V_SlotNumber
 .idata_dca     0x4400188d        0x1 ../kernel/lib/CPU_B\libGCC_kernel.a(GCC_can_open.o)
                0x4400188d                CAN_OPEN_V_MyNodeId
 *fill*         0x4400188e        0x2 
 .idata_dca     0x44001890       0x34 ../kernel/lib/CPU_B\libGCC_kernel.a(GCC_can_sdo.o)
                0x44001890                CAN_SDO_V_AbortErrorCodes
 .idata_dca     0x440018c4        0x4 ../kernel/lib/CPU_B\libGCC_kernel.a(GCC_can_time.o)
 .idata_dca     0x440018c8        0x6 ../kernel/lib/CPU_B\libGCC_kernel.a(GCC_CONF_local.o)
                0x440018c8                CONF_LOCAL_V_ReconfIpAreaId
                0x440018cc                CONF_LOCAL_V_bLastIpConfigurationAvailable
                0x440018cd                CONF_LOCAL_V_Bid
 *fill*         0x440018ce        0x2 
 .idata_dca     0x440018d0        0x5 ../kernel/lib/CPU_B\libGCC_kernel.a(GCC_Flash_Async.o)
                0x440018d0                FLASH_ASYNC_V_pFlagGrp
                0x440018d4                FLASH_ASYNC_V_NbSubscribedDevice
 *fill*         0x440018d5        0x3 
 .idata_dca     0x440018d8        0x5 ../kernel/lib/CPU_B\libGCC_kernel.a(GCC_RECORD_pda.o)
                0x440018d8                RECORD_PDA_V_NbReservedArea
                0x440018dc                RECORD_PDA_V_bReadyForReserve
 *fill*         0x440018dd        0x1 
 .idata_dca     0x440018de        0x4 ../kernel/lib/CPU_B\libGCC_kernel.a(GCC_Schedule.o)
                0x440018de                SCHED_V_CommonTimeEnable
                0x440018e0                SCHED_V_FlashingHalfPeriod
 *fill*         0x440018e2        0x2 
 .idata_dca     0x440018e4       0x24 ../kernel/lib/CPU_B\libGCC_kernel.a(GCC_Schedule_utl.o)
                0x440018e8                SCHED_UTL_V_FlashingGpioInterBoard
                0x440018ec                SCHED_UTL_V_FlashingGpioIntraBoard
                0x440018f2                SCHED_UTL_V_GuestAppProvideUserData
                0x440018f4                SCHED_V_ReprogSafetyValue
                0x440018f8                SCHED_V_ReprogCallback
 .idata_dca     0x44001908       0x50 ../kernel/lib/CPU_B\libGCC_kernel.a(GCC_VOTE_tsk.o)
 .idata_dca     0x44001958       0x28 ../kernel/lib/CPU_B\libGCC_kernel.a(GCC_GM_PROSTACK_Ip_tsk.o)
 .idata_dca     0x44001980        0x8 ../kernel/lib/CPU_B\libGCC_kernel.a(GCC_GM_PROSTACK_Arp.o)
                0x44001980                GM_PROS_ARP_V_pMacAddress_1
                0x44001984                GM_PROS_ARP_V_pMacAddress_2
                0x44001988                . = ALIGN (0x4)
                0x44001988                __DCA_INIT_SECTION_END = .
                0x44001988                . = ALIGN (0x4)
                0x44001988                __NO_TEST_INIT_SECTION_START = .
 *(.idata_no_memtest)
                0x44001988                . = ALIGN (0x4)
                0x44001988                __NO_TEST_INIT_SECTION_END = .
                0x44001988                __DATA_EXT_SDRAM_DATA_END = .
                0x20096e68                __CONST_EXT_FLASH_START = (__DATA_EXT_FLASH_START + (__DATA_EXT_SDRAM_DATA_END - __DATA_EXT_SDRAM_DATA_START))

.initialized_constant_extram
                0x400920c8     0x79cc load address 0x20096e68
                0x400920c8                __CONST_EXT_SDRAM_CODE_START = .
 *(.rodata)
 .rodata        0x400920c8      0x565 ./out/CPU_B/GCC_guest.o
 .rodata        0x4009262d       0xdd ./out/CPU_B/GCC_guest_fuse.o
 .rodata        0x4009270a      0x133 ./out/CPU_B/GCC_guest_isolation.o
 .rodata        0x4009283d      0x168 ./out/CPU_B/GCC_guest_outputport.o
 .rodata        0x400929a5      0x428 ./out/CPU_B/GCC_guest_public.o
 .rodata        0x40092dcd       0xca ./out/CPU_B/GCC_guest_readback.o
 .rodata        0x40092e97       0x2d ../kernel/lib/CPU_B\libGCC_kernel.a(GCC_mstep.o)
 .rodata        0x40092ec4       0x58 ../kernel/lib/CPU_B\libGCC_kernel.a(GCC_BIT_fuse.o)
 .rodata        0x40092f1c       0x18 ../kernel/lib/CPU_B\libGCC_kernel.a(GCC_BIT_survey.o)
 .rodata        0x40092f34       0x55 ../kernel/lib/CPU_B\libGCC_kernel.a(GCC_can.o)
 .rodata        0x40092f89       0x30 ../kernel/lib/CPU_B\libGCC_kernel.a(GCC_can_ard.o)
 .rodata        0x40092fb9       0x18 ../kernel/lib/CPU_B\libGCC_kernel.a(GCC_can_config.o)
 .rodata        0x40092fd1       0x4b ../kernel/lib/CPU_B\libGCC_kernel.a(GCC_can_emcy.o)
 .rodata        0x4009301c       0x93 ../kernel/lib/CPU_B\libGCC_kernel.a(GCC_can_od.o)
 .rodata        0x400930af       0x35 ../kernel/lib/CPU_B\libGCC_kernel.a(GCC_can_odplug.o)
 .rodata        0x400930e4      0x249 ../kernel/lib/CPU_B\libGCC_kernel.a(GCC_can_open.o)
 .rodata        0x4009332d       0xaa ../kernel/lib/CPU_B\libGCC_kernel.a(GCC_can_saddle.o)
 .rodata        0x400933d7       0xae ../kernel/lib/CPU_B\libGCC_kernel.a(GCC_can_safety.o)
 .rodata        0x40093485      0x4fa ../kernel/lib/CPU_B\libGCC_kernel.a(GCC_can_sdo.o)
 .rodata        0x4009397f       0x16 ../kernel/lib/CPU_B\libGCC_kernel.a(GCC_can_time.o)
 .rodata        0x40093995       0x30 ../kernel/lib/CPU_B\libGCC_kernel.a(GCC_CONF.o)
 .rodata        0x400939c5       0xd9 ../kernel/lib/CPU_B\libGCC_kernel.a(GCC_CONF_local.o)
 .rodata        0x40093a9e       0x5a ../kernel/lib/CPU_B\libGCC_kernel.a(GCC_CONF_src.o)
 .rodata        0x40093af8       0x4a ../kernel/lib/CPU_B\libGCC_kernel.a(GCC_FCODE.o)
 .rodata        0x40093b42      0x2f9 ../kernel/lib/CPU_B\libGCC_kernel.a(GCC_FILESYS.o)
 .rodata        0x40093e3b       0x66 ../kernel/lib/CPU_B\libGCC_kernel.a(GCC_FILESYS_int.o)
 .rodata        0x40093ea1      0x352 ../kernel/lib/CPU_B\libGCC_kernel.a(GCC_FILESYS_tftp.o)
 .rodata        0x400941f3       0x15 ../kernel/lib/CPU_B\libGCC_kernel.a(GCC_Flash.o)
 .rodata        0x40094208       0x1b ../kernel/lib/CPU_B\libGCC_kernel.a(GCC_Flash_Async.o)
 .rodata        0x40094223       0x1c ../kernel/lib/CPU_B\libGCC_kernel.a(GCC_Flash_Direct.o)
 .rodata        0x4009423f       0x8d ../kernel/lib/CPU_B\libGCC_kernel.a(GCC_gdf.o)
 .rodata        0x400942cc       0x8a ../kernel/lib/CPU_B\libGCC_kernel.a(GCC_gdf_dump_tools.o)
 *fill*         0x40094356        0x2 
 .rodata        0x40094358      0x81c ../kernel/lib/CPU_B\libGCC_kernel.a(GCC_MATH.o)
 .rodata        0x40094b74       0x11 ../kernel/lib/CPU_B\libGCC_kernel.a(GCC_osw.o)
 .rodata        0x40094b85       0x41 ../kernel/lib/CPU_B\libGCC_kernel.a(GCC_print.o)
 .rodata        0x40094bc6       0xa7 ../kernel/lib/CPU_B\libGCC_kernel.a(GCC_RECORD.o)
 .rodata        0x40094c6d       0xee ../kernel/lib/CPU_B\libGCC_kernel.a(GCC_RECORD_evt.o)
 .rodata        0x40094d5b       0x1b ../kernel/lib/CPU_B\libGCC_kernel.a(GCC_RECORD_pda.o)
 .rodata        0x40094d76       0xf6 ../kernel/lib/CPU_B\libGCC_kernel.a(GCC_RECORD_sector.o)
 .rodata        0x40094e6c       0x1c ../kernel/lib/CPU_B\libGCC_kernel.a(GCC_RECORD_stat.o)
 .rodata        0x40094e88       0x55 ../kernel/lib/CPU_B\libGCC_kernel.a(GCC_RECORD_utl.o)
 *fill*         0x40094edd        0x3 
 .rodata        0x40094ee0      0x899 ../kernel/lib/CPU_B\libGCC_kernel.a(GCC_Schedule.o)
                0x40094ee0                MSTEP_C_CONFIGKernelTaskReprogInfo
                0x400951b0                MSTEP_C_CONFIGKernelTaskInfo
 .rodata        0x40095779       0x1c ../kernel/lib/CPU_B\libGCC_kernel.a(GCC_Schedule_gta.o)
 .rodata        0x40095795       0xaa ../kernel/lib/CPU_B\libGCC_kernel.a(GCC_Schedule_launcher.o)
 .rodata        0x4009583f       0x82 ../kernel/lib/CPU_B\libGCC_kernel.a(GCC_Schedule_utl.o)
 .rodata        0x400958c1      0x123 ../kernel/lib/CPU_B\libGCC_kernel.a(GCC_SDB.o)
 .rodata        0x400959e4       0x15 ../kernel/lib/CPU_B\libGCC_kernel.a(GCC_SDB_api.o)
 .rodata        0x400959f9       0x1a ../kernel/lib/CPU_B\libGCC_kernel.a(GCC_SDB_intercpu.o)
 .rodata        0x40095a13       0x18 ../kernel/lib/CPU_B\libGCC_kernel.a(GCC_SDB_ioplug.o)
 .rodata        0x40095a2b       0x36 ../kernel/lib/CPU_B\libGCC_kernel.a(GCC_SDB_update.o)
 .rodata        0x40095a61       0x1c ../kernel/lib/CPU_B\libGCC_kernel.a(GCC_SDB_updatelist.o)
 .rodata        0x40095a7d       0x11 ../kernel/lib/CPU_B\libGCC_kernel.a(GCC_std.o)
 .rodata        0x40095a8e       0x13 ../kernel/lib/CPU_B\libGCC_kernel.a(GCC_VOTE.o)
 .rodata        0x40095aa1      0x17f ../kernel/lib/CPU_B\libGCC_kernel.a(GCC_VOTE_com.o)
 .rodata        0x40095c20       0x8c ../kernel/lib/CPU_B\libGCC_kernel.a(GCC_VOTE_tsk.o)
 .rodata        0x40095cac       0x11 ../kernel/lib/CPU_B\libGCC_kernel.a(GCC_wdg.o)
 .rodata        0x40095cbd      0xb53 ../kernel/lib/CPU_B\libGCC_kernel.a(GCC_viv.o)
 .rodata        0x40096810       0x25 ../kernel/lib/CPU_B\libGCC_kernel.a(GCC_Drv_CAU_Lib.o)
 .rodata        0x40096835       0x5b ../kernel/lib/CPU_B\libGCC_kernel.a(GCC_Drv_BID_Lib.o)
 .rodata        0x40096890       0x21 ../kernel/lib/CPU_B\libGCC_kernel.a(GCC_Drv_Boot_Module.o)
 .rodata        0x400968b1       0x27 ../kernel/lib/CPU_B\libGCC_kernel.a(GCC_Drv_Boot_Utils.o)
 .rodata        0x400968d8      0x3eb ../kernel/lib/CPU_B\libGCC_kernel.a(GCC_Drv_Can_Lib.o)
 .rodata        0x40096cc3      0x2be ../kernel/lib/CPU_B\libGCC_kernel.a(GCC_Drv_Fec_Lib.o)
 .rodata        0x40096f81       0x28 ../kernel/lib/CPU_B\libGCC_kernel.a(GCC_Drv_Flash_Parallel_Lib.o)
 .rodata        0x40096fa9       0x23 ../kernel/lib/CPU_B\libGCC_kernel.a(GCC_Drv_Flash_Spi_Lib.o)
 .rodata        0x40096fcc       0x92 ../kernel/lib/CPU_B\libGCC_kernel.a(GCC_Drv_Gpio.o)
 .rodata        0x4009705e       0x1d ../kernel/lib/CPU_B\libGCC_kernel.a(GCC_Drv_Spi_Lib.o)
 .rodata        0x4009707b       0x1f ../kernel/lib/CPU_B\libGCC_kernel.a(GCC_Drv_Timer_Lib.o)
 .rodata        0x4009709a       0x1f ../kernel/lib/CPU_B\libGCC_kernel.a(GCC_Drv_Uart_Vote.o)
 .rodata        0x400970b9      0x410 ../kernel/lib/CPU_B\libGCC_kernel.a(GCC_exceptions.o)
 .rodata        0x400974c9       0x14 ../kernel/lib/CPU_B\libGCC_kernel.a(GCC_os_task.o)
 .rodata        0x400974dd       0x1d ../kernel/lib/CPU_B\libGCC_kernel.a(GCC_os_cpu_c.o)
 .rodata        0x400974fa      0x3a2 ../kernel/lib/CPU_B\libGCC_kernel.a(GCC_GM_PROSTACK_Ip.o)
 .rodata        0x4009789c      0x837 ../kernel/lib/CPU_B\libGCC_kernel.a(GCC_GM_PROSTACK_Ip_tsk.o)
 .rodata        0x400980d3      0x417 ../kernel/lib/CPU_B\libGCC_kernel.a(GCC_GM_PROSTACK_Udp.o)
 .rodata        0x400984ea       0x23 ../kernel/lib/CPU_B\libGCC_kernel.a(GCC_GM_PROSTACK_Vote.o)
 .rodata        0x4009850d      0x4b3 ../kernel/lib/CPU_B\libGCC_kernel.a(GCC_GM_Tftp.o)
 .rodata        0x400989c0      0x111 ../kernel/lib/CPU_B\libGCC_kernel.a(GCC_BIT.o)
                0x400989c0                BIT_C_AbahamTestPatternArray
 .rodata        0x40098ad1      0x2c7 ../kernel/lib/CPU_B\libGCC_kernel.a(GCC_CONF_autho.o)
 .rodata        0x40098d98      0x2a5 ../kernel/lib/CPU_B\libGCC_kernel.a(GCC_CONF_dataset.o)
 .rodata        0x4009903d       0x63 ../kernel/lib/CPU_B\libGCC_kernel.a(GCC_Schedule_gentask.o)
 .rodata        0x400990a0       0x1c ../kernel/lib/CPU_B\libGCC_kernel.a(GCC_os_hooks.o)
 .rodata        0x400990bc       0x22 ../kernel/lib/CPU_B\libGCC_kernel.a(GCC_GM_PROSTACK_Arp.o)
 .rodata        0x400990de       0x6f ../kernel/lib/CPU_B\libGCC_kernel.a(GCC_GM_PROSTACK_Can.o)
 .rodata        0x4009914d      0x52e ../kernel/lib/CPU_B\libGCC_kernel.a(GCC_GM_PROSTACK_Cop.o)
 .rodata        0x4009967b      0x1a0 ../kernel/lib/CPU_B\libGCC_kernel.a(GCC_GM_PROSTACK_Eth.o)
 .rodata        0x4009981b      0x132 ../kernel/lib/CPU_B\libGCC_kernel.a(GCC_GM_PROSTACK_Icmp.o)
 .rodata        0x4009994d      0x146 ../kernel/lib/CPU_B\libGCC_kernel.a(GCC_CONF_check.o)
                0x40099a94                . = ALIGN (0x4)
 *fill*         0x40099a93        0x1 
                0x40099a94                __CONST_EXT_SDRAM_CODE_END = .
                0x40099a94                __DATA_EXT_END = .

.uninitialized_data_sram
                0x81000cf4     0x59b0 load address 0x200954e0
                0x81000cf4                __BSS_START = .
 *(.bssos)
 .bssos         0x81000cf4      0x224 ../kernel/lib/CPU_B\libGCC_kernel.a(GCC_exceptions.o)
                0x81000cf4                OSCPU_V_PreviousSP
                0x81000cf8                OSCPU_V_Stack
                0x81000ed8                OSCPU_V_ContextTable
 .bssos         0x81000f18       0x88 ../kernel/lib/CPU_B\libGCC_kernel.a(GCC_coretask.o)
                0x81000f18                prioTcbTbl
                0x81000f94                currentTcb
                0x81000f98                sysReadyQueue
 .bssos         0x81000fa0      0xe50 ../kernel/lib/CPU_B\libGCC_kernel.a(GCC_semaphore.o)
                0x81000fa0                semaphoreObjTbl
                0x81001dd8                semaphoreObjManager
 .bssos         0x81001df0     0x1688 ../kernel/lib/CPU_B\libGCC_kernel.a(GCC_task.o)
                0x81001df0                taskObjTbl
                0x81002c48                taskObjManager
                0x81002c60                tcbChain
                0x81002c6c                idleCtrMax
                0x81002c70                statRdy
                0x81002c74                cpuUsage
 .bssos         0x81003478      0x88c ../kernel/lib/CPU_B\libGCC_kernel.a(GCC_idletaskcreate.o)
                0x81003478                idleTaskCount
                0x8100347c                idleTcb
 .bssos         0x81003d04      0x3d8 ../kernel/lib/CPU_B\libGCC_kernel.a(GCC_event.o)
                0x81003d04                eventGroupObjTbl
                0x810040c4                eventGroupObjManager
 .bssos         0x810040dc      0x450 ../kernel/lib/CPU_B\libGCC_kernel.a(GCC_mempart.o)
                0x810040dc                mempartObjTbl
                0x81004514                mempartObjManager
 .bssos         0x8100452c      0xf18 ../kernel/lib/CPU_B\libGCC_kernel.a(GCC_message_queue.o)
                0x8100452c                mqueueObjTbl
                0x8100542c                mqueueObjManager
 .bssos         0x81005444     0x1260 ../kernel/lib/CPU_B\libGCC_kernel.a(GCC_mutex.o)
                0x81005444                mutexObjTbl
                0x8100668c                mutexObjManager
 *(.sbssos)
                0x810066a4                __BSS_MIDDLE = .

.uninitialized_data_sram_force
                0x810066a4     0x86e4 load address 0x2009ae90
                0x810066a4                __BSS_FORCE_SRAM_START = .
 *(.udata_sram)
 .udata_sram    0x810066a4     0x16b0 ../kernel/lib/CPU_B\libGCC_kernel.a(GCC_can.o)
 .udata_sram    0x81007d54     0x1630 ../kernel/lib/CPU_B\libGCC_kernel.a(GCC_can_safety.o)
 .udata_sram    0x81009384      0xaf0 ../kernel/lib/CPU_B\libGCC_kernel.a(GCC_Flash.o)
 .udata_sram    0x81009e74        0xc ../kernel/lib/CPU_B\libGCC_kernel.a(GCC_gdf.o)
                0x81009e74                GDF_V_LastEvent
 .udata_sram    0x81009e80      0xaf0 ../kernel/lib/CPU_B\libGCC_kernel.a(GCC_RECORD.o)
 .udata_sram    0x8100a970        0x2 ../kernel/lib/CPU_B\libGCC_kernel.a(GCC_VOTE_com.o)
 *fill*         0x8100a972        0x2 
 .udata_sram    0x8100a974      0xe70 ../kernel/lib/CPU_B\libGCC_kernel.a(GCC_VOTE_tsk.o)
                0x8100a974                VOTE_TSK_V_MsgFifoHigh
                0x8100a9b4                VOTE_TSK_V_MsgFifoStd
                0x8100aab4                VOTE_TSK_V_MsgFifoGuest
                0x8100abb4                VOTE_TSK_V_MsgFifoIpstack
                0x8100acb4                VOTE_TSK_V_MsgFifoLog
 .udata_sram    0x8100b7e4       0xba ../kernel/lib/CPU_B\libGCC_kernel.a(GCC_wdg.o)
 *fill*         0x8100b89e        0x2 
 .udata_sram    0x8100b8a0     0x13c0 ../kernel/lib/CPU_B\libGCC_kernel.a(GCC_Drv_Can_Lib.o)
 .udata_sram    0x8100cc60        0x8 ../kernel/lib/CPU_B\libGCC_kernel.a(GCC_Drv_Fec_Lib.o)
                0x8100cc60                IPS_FECDRV_V_RxCounter
 .udata_sram    0x8100cc68       0x30 ../kernel/lib/CPU_B\libGCC_kernel.a(GCC_Drv_Uart_Vote.o)
                0x8100cc68                VOTE_DRV_V_BuffIndexByte
                0x8100cc78                VOTE_DRV_V_HardwareConf
 .udata_sram    0x8100cc98      0xaf0 ../kernel/lib/CPU_B\libGCC_kernel.a(GCC_GM_PROSTACK_Ip_tsk.o)
 .udata_sram    0x8100d788      0xb10 ../kernel/lib/CPU_B\libGCC_kernel.a(GCC_BIT.o)
                0x8100e298                . = ALIGN (0x4)
                0x8100e298                __NO_TEST_SRAM_UNINIT_SECTION_START = .
 *(.udata_no_memtest_sram)
 .udata_no_memtest_sram
                0x8100e298      0xaf0 ../kernel/lib/CPU_B\libGCC_kernel.a(GCC_os_cpu_c.o)
                0x8100e298                OSCPU_V_ItStack
                0x8100ed88                . = ALIGN (0x4)
                0x8100ed88                __NO_TEST_SRAM_UNINIT_SECTION_END = .
                0x8100ed88                __BSS_END = .
                0x8100ed88                ___HEAP_START = .
                0x8100ed88                . = (. + 0x0)
                0x8100ed88                ___HEAP_END = .
                0x8100ed88                . = ALIGN (0x4)

.uninitialized_data_stack_boot
                0x8100fc00      0x400
                0x8100fc00                ___SP_END = .
 *(.bootstack)
 .bootstack     0x8100fc00      0x400 ../kernel/lib/CPU_B\libGCC_kernel.a(GCC_Drv_Boot_Module.o)
                0x8100fc00                BOOT_V_Stack
                0x81010000                ___SP_INIT = .
                0x81010000                __BSS_FORCE_SRAM_END = .

.uninitialized_data_extram
                0x44001988   0x31af80 load address 0x20096e68
                0x44001988                __BSS_EXT_SDRAM_DATA_START = .
 *(.bss)
 .bss           0x44001988    0x63078 ./out/CPU_B/GCC_guest.o
                0x44001988                boardType
                0x4400198c                TB_Receive_Data
                0x4400199c                Receive_Data
                0x440019a0                TB_readIOdBData
                0x44001ba0                TB_writeIOdBData
                0x44001da0                MSTEP_TFTP_V_pFlagGroup
 .bss           0x44064a00        0x8 ./out/CPU_B/GCC_guest_fuse.o
 .bss           0x44064a08        0x8 ./out/CPU_B/GCC_guest_isolation.o
 .bss           0x44064a10       0x41 ./out/CPU_B/GCC_guest_outputport.o
                0x44064a10                g_OPTRESLTCNT
                0x44064a30                g_OPTRESLTCNTTEMP
 *fill*         0x44064a51        0x3 
 .bss           0x44064a54     0x2c90 ./out/CPU_B/GCC_guest_public.o
                0x44064a54                g_ISOInvoke
                0x44064a55                ISOLATION_STATE
                0x44064a56                TRACKSIDE_POWER_MISSING
                0x44064a57                TRACKSIDE_POWER_OVERAGE
                0x44064a58                FUSE_POWER_MISSING
                0x44064a59                g_RITInvoke
                0x44064a5a                g_RITStart
                0x44064a5b                g_ISOTInvoke
                0x44064a5c                g_ISOTStart
                0x44064a5d                g_ISOTFlag
                0x44064a5e                g_TFTPBUFFULL
                0x44064a5f                g_RITflag
                0x44064a60                g_TFTPERRBUFFULL
                0x44064a64                g_RunState
                0x44064a68                g_StartTest
                0x44064a6a                g_TestStore
                0x44064a6c                RITestStep
                0x44064a6d                RITestPortID
                0x44064a6e                ISOTestStep
                0x44064a6f                FUSETestStep
                0x44064a70                WriteOffset
                0x44064a74                WriteFCodeOffset
                0x44064a78                g_ParaAddr
                0x44064a7c                g_TFTPBUF
                0x44065698                g_TFTPBUF_HAND
                0x440656a3                g_TFTPERRBUF
                0x44065ed8                g_ReadIOdBData
                0x44065eda                Snakebody
                0x440660dc                g_CFGAddr
                0x440660e0                g_Sem
                0x440660f0                g_Usr_Cfg_A
                0x44066100                g_Usr_Cfg_B
                0x44066110                GUEST_TEST_V_brokenSafetyFlags
                0x44066150                VitalStamp
 .bss           0x440676e4        0x1 ./out/CPU_B/GCC_guest_readback.o
 *fill*         0x440676e5        0x3 
 .bss           0x440676e8        0x0 ./out/CPU_B/GCC_crc_result.o
 .bss           0x440676e8        0x0 ../kernel/lib/CPU_B\libGCC_kernel.a(GCC_VCU_Start_Asm.o)
 .bss           0x440676e8       0x10 ../kernel/lib/CPU_B\libGCC_kernel.a(GCC_mstep.o)
                0x440676e8                MSTEP_V_pIsrFuncGuest
 .bss           0x440676f8      0x11c ../kernel/lib/CPU_B\libGCC_kernel.a(GCC_BIT_fuse.o)
                0x440676f8                BIT_FUSE_V_SafetyFlagBreakOther
                0x440676f9                BIT_FUSE_V_bFlashAsyncRunning
                0x440676fc                BIT_FUSE_V_SafetyFlagsChkWdLocked
                0x4406774c                BIT_FUSE_V_SafetyFlagsChkWd
                0x4406779c                BIT_FUSE_V_ToggleState
                0x440677a0                BIT_FUSE_V_DirectToggleState
 .bss           0x44067814      0x2b2 ../kernel/lib/CPU_B\libGCC_kernel.a(GCC_BIT_survey.o)
                0x44067814                BIT_SURVEY_V_OSTcbPrioCrc
                0x44067818                BIT_SURVEY_V_pActionsStatistics
                0x4406781c                BIT_SURVEY_V_BuildCrcs
                0x44067854                BIT_SURVEY_V_TasksStackLevel
                0x44067873                BIT_SURVEY_V_TaskTable
                0x44067894                BIT_SURVEY_V_TickCurrent
                0x44067910                BIT_SURVEY_V_TickStored
                0x4406798c                BIT_SURVEY_V_TickMax
                0x44067a08                BIT_SURVEY_V_FlashInfo
                0x44067a0c                BIT_SURVEY_V_VectorTableInfo
                0x44067a18                BIT_SURVEY_V_DcaInfo
                0x44067a2c                BIT_SURVEY_V_NbTasksCreated
 *fill*         0x44067ac6        0x2 
 .bss           0x44067ac8      0x208 ../kernel/lib/CPU_B\libGCC_kernel.a(GCC_can.o)
                0x44067ac8                CAN_V_pMgtFifo
                0x44067acc                CAN_V_pMemMgtFifo
                0x44067ad0                CAN_V_pFlagGroup
                0x44067ad4                CAN_V_HBCyclePeriodNb
                0x44067ad8                CAN_V_MediumManagementCounter
 .bss           0x44067cd0    0x166d4 ../kernel/lib/CPU_B\libGCC_kernel.a(GCC_can_ard.o)
                0x44067cd0                CAN_ARD_V_MemBlkCanArdPareto
 .bss           0x4407e3a4        0x0 ../kernel/lib/CPU_B\libGCC_kernel.a(GCC_can_config.o)
 .bss           0x4407e3a4       0xd0 ../kernel/lib/CPU_B\libGCC_kernel.a(GCC_can_emcy.o)
 .bss           0x4407e474     0x21a0 ../kernel/lib/CPU_B\libGCC_kernel.a(GCC_can_od.o)
                0x4407e474                CAN_OD_V_ErrorTable
                0x4407ec64                CAN_OD_V_isEvolMaintDatasSet
                0x4407ec65                CAN_OD_V_isConfigDatasSet
                0x4407ec68                CAN_OD_V_NbBootup
                0x4407ec6c                CAN_OD_V_NbHoursSinceFirstBoot
                0x4407ec70                CAN_OD_V_ManufacturerSerialNumber
                0x4407ec84                CAN_OD_V_GenMaintDefaultValue
                0x4407ec88                CAN_OD_V_FailureCode
                0x4407ec8c                CAN_OD_V_FailureTime
                0x4407ec94                CAN_OD_V_FailureContext
                0x4407ecf8                CAN_OD_V_EthCrcKO
                0x4407ecfc                CAN_OD_V_RmgMaxDiffDelay
                0x4407ed00                CAN_OD_V_RmgA13RxNrmlNtwk
                0x4407ed04                CAN_OD_V_RmgA13RxRedNtwk
                0x4407ed08                CAN_OD_V_RmgEthFloodNb
                0x4407ed0c                CAN_OD_V_RmgMaxPropDelayNrmlNtwk
                0x4407ed10                CAN_OD_V_RmgMaxPropDelayRedNtwk
                0x4407ed14                CAN_OD_V_RmgMaxDeltaSeqNumberNrmlNtwk
                0x4407ed18                CAN_OD_V_RmgMaxDeltaSeqNumberRedNtwk
                0x4407ed1c                CAN_OD_V_IsolationRestoreRequest
                0x4407ed20                CAN_OD_V_FaultFilteringNumber
                0x4407ed24                CAN_OD_V_RslinkNb
                0x4407ed28                CAN_OD_V_RsOverFlow
                0x4407ed2c                CAN_OD_V_RsHeaderErr
                0x4407ed30                CAN_OD_V_RsInfo
                0x4407eda8                CAN_OD_V_ODErrorRegister
                0x4407eda9                CAN_OD_V_NumberOfErrors
                0x4407edaa                CAN_OD_V_HardwareVersion
                0x4407edb9                CAN_OD_V_SoftwareVersion
                0x4407edc8                CAN_OD_V_VendorID
                0x4407edcc                CAN_OD_V_ProductCode
                0x4407edd0                CAN_OD_V_RevisionNumber
                0x4407edd4                CAN_OD_V_SerialNumber
                0x4407edd8                CAN_OD_V_SoftwareChecksum
                0x4407eddc                CAN_OD_V_ModuleDatasetFootprint
                0x4407ede0                CAN_OD_V_ConfDataVersion
                0x4407ede5                CAN_OD_V_ParamDataVersion
                0x4407edec                CAN_OD_V_SwitchModeRequest
                0x4407edf0                CAN_OD_V_NormalActivity
                0x4407edf1                CAN_OD_V_StandbyActivity
                0x4407edf4                CAN_OD_V_ErrorField
 .bss           0x44080614       0xc9 ../kernel/lib/CPU_B\libGCC_kernel.a(GCC_can_odplug.o)
                0x44080614                CAN_ODPLUG_V_Rule
                0x440806dc                CAN_ODPLUG_V_RuleCounter
 *fill*         0x440806dd        0x3 
 .bss           0x440806e0     0x17b0 ../kernel/lib/CPU_B\libGCC_kernel.a(GCC_can_open.o)
                0x440806e0                CAN_OPEN_V_ODVersion
                0x44080714                CAN_OPEN_V_IPoverCANVersion
                0x44080748                CAN_OPEN_V_MyState
                0x44080758                CAN_OPEN_V_StatsPresenceNode
                0x44080768                CAN_OPEN_V_IsMediumActive
                0x4408076a                CAN_OPEN_V_IsModulePresent
                0x440807d4                CAN_OPEN_V_NodesState
                0x44081b54                CAN_OPEN_V_ModulesDivergenceNb
 .bss           0x44081e90       0x18 ../kernel/lib/CPU_B\libGCC_kernel.a(GCC_can_saddle.o)
 .bss           0x44081ea8      0x764 ../kernel/lib/CPU_B\libGCC_kernel.a(GCC_can_safety.o)
                0x44081ea8                CAN_SAFETY_V_TaskInfo
                0x44081eb8                CAN_SAFETY_V_pVitalFifo
                0x44081ebc                CAN_SAFETY_V_pMemVitalFifo
                0x44081ec0                CAN_SAFETY_V_MasterBoardType
                0x44081ec4                CAN_SAFETY_V_StatsNbOfPdoReceived
                0x44081ecc                CAN_SAFETY_V_NodesSafetyLayerError
                0x4408206c                CAN_SAFETY_V_CobIdToPdoIdRx
                0x4408222b                CAN_SAFETY_V_CobIdToPdoIdTx
                0x440823ec                CAN_SAFETY_V_SafetyDiffersPrintsTimer
                0x440823fc                CAN_SAFETY_V_SyncCurrentNumberRecv
 .bss           0x4408260c      0x308 ../kernel/lib/CPU_B\libGCC_kernel.a(GCC_can_sdo.o)
                0x4408260c                CAN_SDO_V_STDClientId
                0x44082610                CAN_SDO_V_ServerID
                0x44082612                CAN_SDO_V_Index
                0x44082614                CAN_SDO_V_SubIndex
                0x44082615                CAN_SDO_V_ToggleBit
                0x44082618                CAN_SDO_V_LengthRemaining
                0x4408261c                CAN_SDO_V_LengthSent
                0x44082620                CAN_SDO_V_LengthReceived
                0x44082624                CAN_SDO_V_BufferReceived
                0x440826cc                CAN_SDO_V_ObjectType
                0x440826d0                CAN_SDO_V_BufferDataToSend
                0x44082778                CAN_SDO_V_Error
                0x4408277c                CAN_SDO_V_CurrentBlkInfo
                0x440827fb                CAN_SDO_V_LastSegmentReceived
                0x440827fc                CAN_SDO_V_BlkTransferInProgress
                0x440827fd                CAN_SDO_V_BlkSize
                0x440827fe                CAN_SDO_V_NumberOfEmptyBytes
                0x440827ff                CAN_SDO_V_CRCSupported
                0x44082800                CAN_SDO_V_ChannelTempo
                0x44082810                CAN_SDO_V_ChannelUsed
                0x44082814                CAN_SDO_V_Client
 .bss           0x44082914       0x30 ../kernel/lib/CPU_B\libGCC_kernel.a(GCC_can_time.o)
                0x44082914                CAN_TIME_V_HBCyclePeriodNb
                0x44082918                CAN_TIME_V_CanTime
 .bss           0x44082944       0x58 ../kernel/lib/CPU_B\libGCC_kernel.a(GCC_CONF.o)
                0x44082944                CONF_V_NbConfValidFunc
                0x44082948                CONF_V_ConfValidFuncArray
                0x44082970                CONF_V_ConfOkCbRegistered
                0x44082974                CONF_V_ConfOkCbArray
 .bss           0x4408299c     0x1920 ../kernel/lib/CPU_B\libGCC_kernel.a(GCC_CONF_local.o)
                0x4408299c                CONF_LOCAL_V_InternalMemoryAreaForFiles
                0x440829ac                CONF_LOCAL_V_CacheMemoryAreaMyConf
                0x440829bc                CONF_LOCAL_V_CacheMemoryAreaReprog
                0x440829cc                CONF_LOCAL_V_CacheMemoryAreaMyParam
                0x440829dc                CONF_LOCAL_V_CacheMemoryAreaDCALocalFile
                0x440829ec                CONF_LOCAL_V_MyParamFileDescriptor
                0x44082a4c                CONF_LOCAL_V_ModuleDatasetParamFileDescriptor
                0x44083dcc                CONF_LOCAL_V_IsTransplantable
                0x44083dd0                CONF_LOCAL_V_pMemTFTPInstance
                0x44083dd4                CONF_LOCAL_V_NvmemAreaStat
                0x44083dd8                CONF_LOCAL_V_UnusedParametersNb
                0x44083ddc                CONF_LOCAL_V_NvmemStatInfo
 .bss           0x440842bc     0x44a6 ../kernel/lib/CPU_B\libGCC_kernel.a(GCC_CONF_src.o)
                0x440842bc                CONF_SRC_BID_V_SourceDesc
                0x44084330                CONF_SRC_BID_V_bidSourceFileDesc
                0x44084340                CONF_SRC_FLASH_V_SourceDesc
                0x440886f8                CONF_SRC_FLASH_V_FileToExtractList
                0x44088700                CONF_SRC_FLASH_V_FileToFlushList
                0x44088708                CONF_SRC_FLASH_V_ReadAsyncCtx
                0x4408871c                CONF_SRC_FLASH_V_WriteAsyncCtx
 *fill*         0x44088762        0x2 
 .bss           0x44088764     0x3a78 ../kernel/lib/CPU_B\libGCC_kernel.a(GCC_FCODE.o)
                0x44088764                FCODE_V_lruDefaultState
 .bss           0x4408c1dc      0xe38 ../kernel/lib/CPU_B\libGCC_kernel.a(GCC_FILESYS.o)
                0x4408c1dc                FILESYS_V_OudatedFileList
                0x4408c1e4                FILESYS_V_NothingToDoFileList
                0x4408c1ec                FILESYS_V_RefillingFileList
                0x4408c1f4                FILESYS_V_SourceTaskList
                0x4408c1fc                FILESYS_V_ResetCacheActionList
                0x4408c204                FILESYS_V_ResetCacheActionListFree
                0x4408c20c                FILESYS_V_FlushingFileList
                0x4408c214                FILESYS_V_FlushingFileListFree
                0x4408c21c                FILESYS_V_MonitoredFileArray
                0x4408c23c                FILESYS_V_MonitoredFileRegistered
                0x4408c240                FILESYS_V_SourcePeriodicTaskNb
                0x4408c244                FILESYS_V_SourceArray
 .bss           0x4408d014        0x0 ../kernel/lib/CPU_B\libGCC_kernel.a(GCC_FILESYS_int.o)
 .bss           0x4408d014      0x475 ../kernel/lib/CPU_B\libGCC_kernel.a(GCC_FILESYS_tftp.o)
                0x4408d014                FILESYS_TFTP_SRC_V_SourceDesc
                0x4408d088                FILESYS_TFTP_SRC_V_HandledSourceFile
                0x4408d2b8                FILESYS_TFTP_SRC_V_pFlagGroupStatus
                0x4408d2bc                FILESYS_TFTP_SRC_V_pFlagGroupRead
                0x4408d2c0                FILESYS_TFTP_V_Session
                0x4408d350                FILESYS_TFTP_V_Detail
                0x4408d428                FILESYS_TFTP_V_ModuleDatasetRetrievingTimer
                0x4408d438                FILESYS_TFTP_SRC_V_TFTP_Timer
 *fill*         0x4408d489        0x3 
 .bss           0x4408d48c        0x0 ../kernel/lib/CPU_B\libGCC_kernel.a(GCC_Flash.o)
 .bss           0x4408d48c       0xb8 ../kernel/lib/CPU_B\libGCC_kernel.a(GCC_Flash_Async.o)
                0x4408d48c                FLASH_ASYNC_V_FlashDevArray
 .bss           0x4408d544        0x0 ../kernel/lib/CPU_B\libGCC_kernel.a(GCC_Flash_Direct.o)
 .bss           0x4408d544        0x1 ../kernel/lib/CPU_B\libGCC_kernel.a(GCC_gdf.o)
 *fill*         0x4408d545        0x3 
 .bss           0x4408d548       0x1c ../kernel/lib/CPU_B\libGCC_kernel.a(GCC_gdf_dump_tools.o)
 .bss           0x4408d564        0x0 ../kernel/lib/CPU_B\libGCC_kernel.a(GCC_MATH.o)
 .bss           0x4408d564      0xf58 ../kernel/lib/CPU_B\libGCC_kernel.a(GCC_osw.o)
                0x4408d564                OSW_V_MemPartTable
 .bss           0x4408e4bc     0x57e4 ../kernel/lib/CPU_B\libGCC_kernel.a(GCC_print.o)
                0x4408e4bc                PRINT_V_Started
                0x4408e4bd                PRINT_V_bPrintfTainted
                0x4408e4be                PRINT_V_bUartInitialized
                0x4408e4c0                PRINT_V_Statistic
                0x4408e4c4                PRINT_V_TaskInfo
                0x4408e4d4                PRINT_V_LogMsgMemBlock
                0x4408e4d8                PRINT_V_pFlagGrpNotif
 .bss           0x44093ca0       0x18 ../kernel/lib/CPU_B\libGCC_kernel.a(GCC_RECORD.o)
                0x44093ca0                RECORD_V_bIsEStampCopyDone
                0x44093ca4                RECORD_V_pFlagGroup
                0x44093ca8                RECORD_V_ElecStampStatus
                0x44093cac                RECORD_V_MainStateChart
 .bss           0x44093cb8      0x42c ../kernel/lib/CPU_B\libGCC_kernel.a(GCC_RECORD_evt.o)
                0x44093cb8                RECORD_EVT_V_IndexOfNextDefault
                0x44093cbc                RECORD_EVT_V_bIsIndexOfDefaultOK
                0x44093cc0                RECORD_EVT_V_DefaultPool
                0x44093cc4                RECORD_EVT_V_pFifo
                0x44093cc8                RECORD_EVT_V_BackupLogStateChart
                0x44093cd4                RECORD_EVT_V_EventStateChart
                0x44093ce0                RECORD_EVT_V_BackupInfo
                0x44093ce4                RECORD_EVT_V_LogInfo
                0x44093ce8                RECORD_EVT_V_pEventInfo
 .bss           0x440940e4      0x51b ../kernel/lib/CPU_B\libGCC_kernel.a(GCC_RECORD_pda.o)
                0x440940e4                RECORD_PDA_V_FrontBackBufferInfo
                0x44094518                RECORD_PDA_V_FlushTempo
                0x44094528                RECORD_PDA_V_FlushStateChart
                0x44094534                RECORD_PDA_V_InitStateChart
                0x44094540                RECORD_PDA_V_FlushInfo
                0x44094548                RECORD_PDA_V_InitInfo
                0x44094550                RECORD_PDA_V_Counter
                0x44094554                RECORD_PDA_V_ReadSecondSectorHeader
                0x4409455c                RECORD_PDA_T_DumpBuffer
 *fill*         0x440945ff        0x1 
 .bss           0x44094600      0x114 ../kernel/lib/CPU_B\libGCC_kernel.a(GCC_RECORD_sector.o)
                0x44094600                RECORD_SECTOR_V_ReadSectorStateChart
                0x4409460c                RECORD_SECTOR_V_WriteSectorStateChart
                0x44094618                RECORD_SECTOR_V_CurrentReadHeader
                0x44094628                RECORD_SECTOR_V_BaseAreaAddress
                0x4409462c                RECORD_SECTOR_V_ReadInfo
                0x44094648                RECORD_SECTOR_V_WriteInfo
                0x44094664                RECORD_SECTOR_V_bAreaReadError
                0x44094668                RECORD_SECTOR_V_IndexReadArea
 .bss           0x44094714        0x0 ../kernel/lib/CPU_B\libGCC_kernel.a(GCC_RECORD_stat.o)
 .bss           0x44094714       0xec ../kernel/lib/CPU_B\libGCC_kernel.a(GCC_RECORD_utl.o)
 .bss           0x44094800      0xa24 ../kernel/lib/CPU_B\libGCC_kernel.a(GCC_Schedule.o)
                0x44094800                SCHED_V_bIsCommonTimeSynchronized
                0x44094801                SCHED_V_bReady
                0x44094804                SCHED_V_CurrentRunLevel
                0x44094808                SCHED_V_CommonTimeOp
 .bss           0x44095224        0x8 ../kernel/lib/CPU_B\libGCC_kernel.a(GCC_Schedule_gta.o)
 .bss           0x4409522c      0x510 ../kernel/lib/CPU_B\libGCC_kernel.a(GCC_Schedule_launcher.o)
 .bss           0x4409573c       0x38 ../kernel/lib/CPU_B\libGCC_kernel.a(GCC_Schedule_utl.o)
                0x4409573c                SCHED_V_bRestrictiveEventReasonLogged
                0x44095740                SCHED_V_BootState
                0x44095744                SCHED_V_NbFaultFilteringReboot
 .bss           0x44095774        0x0 ../kernel/lib/CPU_B\libGCC_kernel.a(GCC_VCU_Start.o)
 .bss           0x44095774     0x1510 ../kernel/lib/CPU_B\libGCC_kernel.a(GCC_SDB.o)
                0x44095774                SDB_V_SteeringCan
                0x440957d4                SDB_V_DetectedCan
                0x44095834                SDB_V_Data
                0x44095b44                SDB_V_NbNotification
                0x44095b48                SDB_V_NotificationArray
                0x44095c24                SDB_V_PdoDetected
                0x44095cfc                SDB_V_PdoSteering
                0x44095dd4                SDB_V_InternalState
                0x44095dd8                SDB_V_TxModeState
                0x44095ddc                SDB_V_Stats
                0x440968dc                SDB_V_SchedulingTempo
                0x440968ec                SDB_V_IntALifeTimeMgt
                0x44096964                SDB_V_SyncProcessingStartTime
                0x44096968                SDB_V_SRTTLifeTimeMgt
                0x4409697c                SDB_V_PDOForgiveCnt
 .bss           0x44096c84     0x1894 ../kernel/lib/CPU_B\libGCC_kernel.a(GCC_SDB_api.o)
                0x44096c84                SDB_API_V_ReadDbMemPart
                0x44096c88                SDB_API_V_UpdateMask
 .bss           0x44098518      0x4a8 ../kernel/lib/CPU_B\libGCC_kernel.a(GCC_SDB_intercpu.o)
                0x44098518                SDB_INTERCPU_V_ReceivedMsg
                0x4409876c                SDB_INTERCPU_V_MsgToSend
 .bss           0x440989c0      0x2e0 ../kernel/lib/CPU_B\libGCC_kernel.a(GCC_SDB_ioplug.o)
                0x440989c0                SDB_V_Ioplug_InputDefaultTable
                0x44098bc4                SDB_IOPLUG_V_PdoTime
 .bss           0x44098ca0      0x5a3 ../kernel/lib/CPU_B\libGCC_kernel.a(GCC_SDB_update.o)
                0x44098ca0                SDB_UPDATE_V_ProtectedData
                0x44099218                SDB_UPDATE_V_PDOSetRestrict
 *fill*         0x44099243        0x1 
 .bss           0x44099244     0x8218 ../kernel/lib/CPU_B\libGCC_kernel.a(GCC_SDB_updatelist.o)
                0x44099244                SDB_UPDATELIST_V_UpdateList
 .bss           0x440a145c        0x0 ../kernel/lib/CPU_B\libGCC_kernel.a(GCC_std.o)
 .bss           0x440a145c      0xe0c ../kernel/lib/CPU_B\libGCC_kernel.a(GCC_VOTE.o)
 .bss           0x440a2268      0x7b4 ../kernel/lib/CPU_B\libGCC_kernel.a(GCC_VOTE_com.o)
                0x440a2268                VOTE_COM_V_K2oo2TimeoutStorage
 .bss           0x440a2a1c      0x270 ../kernel/lib/CPU_B\libGCC_kernel.a(GCC_VOTE_tsk.o)
                0x440a2a1c                VOTE_TSK_V_TaskInfo
                0x440a2a2c                VOTE_TSK_V_Statistic
                0x440a2a38                VOTE_V_ModeIsRunning
                0x440a2a3c                VOTE_V_Management
                0x440a2a44                VOTE_V_pPrioQueueIn
 .bss           0x440a2c8c      0x4e4 ../kernel/lib/CPU_B\libGCC_kernel.a(GCC_wdg.o)
 .bss           0x440a3170   0x21074b ../kernel/lib/CPU_B\libGCC_kernel.a(GCC_viv.o)
                0x440a3170                VIV_V_pMyImageBuffer
                0x442a3170                posInMyImage
                0x442a3174                VIV_V_Sessions
                0x442b3834                VIV_V_Info
                0x442b3838                VIV_V_DebugInfo
                0x442b3840                VIV_V_TriggeredFunctions
                0x442b3890                VIV_V_ProtocolVersions
                0x442b38b6                VIV_V_ResetPending
                0x442b38b7                EndWriteImageFlag
 *fill*         0x442b38bb        0x1 
 .bss           0x442b38bc      0x800 ../kernel/lib/CPU_B\libGCC_kernel.a(GCC_Drv_CAU_Lib.o)
 .bss           0x442b40bc        0x6 ../kernel/lib/CPU_B\libGCC_kernel.a(GCC_Drv_BID_Lib.o)
 *fill*         0x442b40c2        0x2 
 .bss           0x442b40c4        0x0 ../kernel/lib/CPU_B\libGCC_kernel.a(GCC_Drv_Boot_Module.o)
 .bss           0x442b40c4        0x0 ../kernel/lib/CPU_B\libGCC_kernel.a(GCC_Drv_Boot_Utils.o)
 .bss           0x442b40c4        0x0 ../kernel/lib/CPU_B\libGCC_kernel.a(GCC_Drv_Cache_Lib.o)
 .bss           0x442b40c4     0x2d98 ../kernel/lib/CPU_B\libGCC_kernel.a(GCC_Drv_Can_Lib.o)
                0x442b40c4                CAN_V_pMemCanISR
                0x442b40c8                CAN_DRIVER_V_TxFrameMem
                0x442b40cc                CAN_DRIVER_V_Stats
                0x442b4104                CAN_V_IsrBottomHalfTaskInfo
                0x442b4114                CAN_DRIVER_V_ActiveChannel
                0x442b4118                CAN_DRIVER_BufferInfosQueue
                0x442b411c                CAN_DRIVER_V_SendFrameSem
                0x442b4120                CAN_DRIVER_V_IsBufferFree
                0x442b4128                CAN_DRIVER_V_PdoSendingQueue
                0x442b4130                CAN_DRIVER_V_SdoSendingQueue
 .bss           0x442b6e5c       0xa6 ../kernel/lib/CPU_B\libGCC_kernel.a(GCC_Drv_Fec_Lib.o)
                0x442b6e5c                IPS_FECDRV_V_Flood_Tempo
                0x442b6e7c                IPS_FECDRV_V_ConflictIPAllowTempo
                0x442b6e8c                IPS_FECDRV_V_ConflictIPFilteringTempo
                0x442b6e9c                IPS_FECDRV_V_NbIt
                0x442b6ea4                IPS_FECDRV_V_NbMess
                0x442b6eac                IPS_FECDRV_V_TxDesc
                0x442b6eb4                IPS_FECDRV_V_RxDesc
                0x442b6ebc                IPS_FECDRV_V_CurrentRx
                0x442b6ec4                IPS_FECDRV_V_CurrentTx
                0x442b6ecc                IPS_FECDRV_V_ConflictIPInProgress
                0x442b6ed0                IPS_FECDRV_V_ConflictIPDescription
                0x442b6ee0                IPS_FECDRV_V_ConflictIpNumberKernel
                0x442b6ee4                IPS_FECDRV_V_ConflictIpNumber
 *fill*         0x442b6f02        0x2 
 .bss           0x442b6f04      0x4a4 ../kernel/lib/CPU_B\libGCC_kernel.a(GCC_Drv_Flash_Parallel_Lib.o)
 .bss           0x442b73a8      0x510 ../kernel/lib/CPU_B\libGCC_kernel.a(GCC_Drv_Flash_Spi_Lib.o)
 .bss           0x442b78b8        0xc ../kernel/lib/CPU_B\libGCC_kernel.a(GCC_Drv_Gpio.o)
                0x442b78b8                GPIO_V_ChipSelectDefinition
                0x442b78bc                GPIO_V_GPIODefinition
                0x442b78c0                VCU_GPIO_V_GPIODefinition
 .bss           0x442b78c4        0x0 ../kernel/lib/CPU_B\libGCC_kernel.a(GCC_Drv_MMU_Lib.o)
 .bss           0x442b78c4        0x0 ../kernel/lib/CPU_B\libGCC_kernel.a(GCC_Drv_SDRAM_Lib.o)
 .bss           0x442b78c4      0xecd ../kernel/lib/CPU_B\libGCC_kernel.a(GCC_Drv_Spi_Lib.o)
                0x442b78c4                Drv_SPI_V_SpyAccessArray
                0x442b8784                Drv_SPI_V_CurrentSpyIndex
                0x442b8788                Drv_SPI_V_Is_Initialized
                0x442b878c                Drv_SPI_V_Sem
                0x442b8790                Drv_SPI_V_Is_Running
 *fill*         0x442b8791        0x3 
 .bss           0x442b8794       0x10 ../kernel/lib/CPU_B\libGCC_kernel.a(GCC_Drv_Timer_Lib.o)
 .bss           0x442b87a4       0x40 ../kernel/lib/CPU_B\libGCC_kernel.a(GCC_Drv_Uart_Vote.o)
                0x442b87a4                VOTE_DRV_V_DmaChainConfig
                0x442b87ac                VOTE_DRV_V_Statistic
 .bss           0x442b87e4        0x0 ../kernel/lib/CPU_B\libGCC_kernel.a(GCC_bsp.o)
 .bss           0x442b87e4        0x0 ../kernel/lib/CPU_B\libGCC_kernel.a(GCC_exceptions.o)
 .bss           0x442b87e4     0x165c ../kernel/lib/CPU_B\libGCC_kernel.a(GCC_os_core.o)
                0x442b87e4                OSEventFreeList
                0x442b87e8                OSEventTbl
 .bss           0x442b9e40        0x0 ../kernel/lib/CPU_B\libGCC_kernel.a(GCC_os_flag.o)
 .bss           0x442b9e40      0x4b4 ../kernel/lib/CPU_B\libGCC_kernel.a(GCC_os_mem.o)
 .bss           0x442ba2f4        0x0 ../kernel/lib/CPU_B\libGCC_kernel.a(GCC_os_q.o)
 .bss           0x442ba2f4        0x0 ../kernel/lib/CPU_B\libGCC_kernel.a(GCC_os_sem.o)
 .bss           0x442ba2f4      0x3e0 ../kernel/lib/CPU_B\libGCC_kernel.a(GCC_os_task.o)
 .bss           0x442ba6d4        0x0 ../kernel/lib/CPU_B\libGCC_kernel.a(GCC_os_time.o)
 .bss           0x442ba6d4        0x0 ../kernel/lib/CPU_B\libGCC_kernel.a(GCC_core.o)
 .bss           0x442ba6d4        0x0 ../kernel/lib/CPU_B\libGCC_kernel.a(GCC_coretask.o)
 .bss           0x442ba6d4        0x0 ../kernel/lib/CPU_B\libGCC_kernel.a(GCC_event_group_create.o)
 .bss           0x442ba6d4        0x0 ../kernel/lib/CPU_B\libGCC_kernel.a(GCC_event_group_delete.o)
 .bss           0x442ba6d4        0x0 ../kernel/lib/CPU_B\libGCC_kernel.a(GCC_event_group_delete_force.o)
 .bss           0x442ba6d4        0x0 ../kernel/lib/CPU_B\libGCC_kernel.a(GCC_event_group_info.o)
 .bss           0x442ba6d4        0x0 ../kernel/lib/CPU_B\libGCC_kernel.a(GCC_event_notify.o)
 .bss           0x442ba6d4        0x0 ../kernel/lib/CPU_B\libGCC_kernel.a(GCC_event_ready_get.o)
 .bss           0x442ba6d4        0x0 ../kernel/lib/CPU_B\libGCC_kernel.a(GCC_event_try_wait.o)
 .bss           0x442ba6d4        0x0 ../kernel/lib/CPU_B\libGCC_kernel.a(GCC_event_wait.o)
 .bss           0x442ba6d4        0x0 ../kernel/lib/CPU_B\libGCC_kernel.a(GCC_fatal_error_raise.o)
 .bss           0x442ba6d4        0x0 ../kernel/lib/CPU_B\libGCC_kernel.a(GCC_irq_resume.o)
 .bss           0x442ba6d4        0x0 ../kernel/lib/CPU_B\libGCC_kernel.a(GCC_irq_suspend.o)
 .bss           0x442ba6d4        0x0 ../kernel/lib/CPU_B\libGCC_kernel.a(GCC_isr.o)
 .bss           0x442ba6d4        0x0 ../kernel/lib/CPU_B\libGCC_kernel.a(GCC_isr_enter.o)
 .bss           0x442ba6d4        0x0 ../kernel/lib/CPU_B\libGCC_kernel.a(GCC_isr_exit.o)
 .bss           0x442ba6d4        0x0 ../kernel/lib/CPU_B\libGCC_kernel.a(GCC_isr_level_get.o)
 .bss           0x442ba6d4        0x0 ../kernel/lib/CPU_B\libGCC_kernel.a(GCC_mempart_alloc.o)
 .bss           0x442ba6d4        0x0 ../kernel/lib/CPU_B\libGCC_kernel.a(GCC_mempart_create.o)
 .bss           0x442ba6d4        0x0 ../kernel/lib/CPU_B\libGCC_kernel.a(GCC_mempart_free.o)
 .bss           0x442ba6d4        0x0 ../kernel/lib/CPU_B\libGCC_kernel.a(GCC_mempart_info.o)
 .bss           0x442ba6d4        0x0 ../kernel/lib/CPU_B\libGCC_kernel.a(GCC_message_queue_broadcast.o)
 .bss           0x442ba6d4        0x0 ../kernel/lib/CPU_B\libGCC_kernel.a(GCC_message_queue_create.o)
 .bss           0x442ba6d4        0x0 ../kernel/lib/CPU_B\libGCC_kernel.a(GCC_message_queue_delete.o)
 .bss           0x442ba6d4        0x0 ../kernel/lib/CPU_B\libGCC_kernel.a(GCC_message_queue_delete_force.o)
 .bss           0x442ba6d4        0x0 ../kernel/lib/CPU_B\libGCC_kernel.a(GCC_message_queue_flush.o)
 .bss           0x442ba6d4        0x0 ../kernel/lib/CPU_B\libGCC_kernel.a(GCC_message_queue_info.o)
 .bss           0x442ba6d4        0x0 ../kernel/lib/CPU_B\libGCC_kernel.a(GCC_message_queue_receive.o)
 .bss           0x442ba6d4        0x0 ../kernel/lib/CPU_B\libGCC_kernel.a(GCC_message_queue_send.o)
 .bss           0x442ba6d4        0x0 ../kernel/lib/CPU_B\libGCC_kernel.a(GCC_message_queue_send_first.o)
 .bss           0x442ba6d4        0x0 ../kernel/lib/CPU_B\libGCC_kernel.a(GCC_message_queue_try_receive.o)
 .bss           0x442ba6d4        0x0 ../kernel/lib/CPU_B\libGCC_kernel.a(GCC_os_init.o)
 .bss           0x442ba6d4        0x0 ../kernel/lib/CPU_B\libGCC_kernel.a(GCC_os_safety_critical.o)
 .bss           0x442ba6d4        0x0 ../kernel/lib/CPU_B\libGCC_kernel.a(GCC_os_shutdown.o)
 .bss           0x442ba6d4        0x0 ../kernel/lib/CPU_B\libGCC_kernel.a(GCC_os_start.o)
 .bss           0x442ba6d4        0x0 ../kernel/lib/CPU_B\libGCC_kernel.a(GCC_sched_lock.o)
 .bss           0x442ba6d4        0x0 ../kernel/lib/CPU_B\libGCC_kernel.a(GCC_sched_unlock.o)
 .bss           0x442ba6d4        0x0 ../kernel/lib/CPU_B\libGCC_kernel.a(GCC_semaphore.o)
 .bss           0x442ba6d4        0x0 ../kernel/lib/CPU_B\libGCC_kernel.a(GCC_semaphore_count_get.o)
 .bss           0x442ba6d4        0x0 ../kernel/lib/CPU_B\libGCC_kernel.a(GCC_semaphore_count_set.o)
 .bss           0x442ba6d4        0x0 ../kernel/lib/CPU_B\libGCC_kernel.a(GCC_semaphore_create.o)
 .bss           0x442ba6d4        0x0 ../kernel/lib/CPU_B\libGCC_kernel.a(GCC_semaphore_delete.o)
 .bss           0x442ba6d4        0x0 ../kernel/lib/CPU_B\libGCC_kernel.a(GCC_semaphore_delete_force.o)
 .bss           0x442ba6d4        0x0 ../kernel/lib/CPU_B\libGCC_kernel.a(GCC_semaphore_give.o)
 .bss           0x442ba6d4        0x0 ../kernel/lib/CPU_B\libGCC_kernel.a(GCC_semaphore_take.o)
 .bss           0x442ba6d4        0x0 ../kernel/lib/CPU_B\libGCC_kernel.a(GCC_semaphore_try_take.o)
 .bss           0x442ba6d4        0x0 ../kernel/lib/CPU_B\libGCC_kernel.a(GCC_sys_tick.o)
 .bss           0x442ba6d4        0x0 ../kernel/lib/CPU_B\libGCC_kernel.a(GCC_sys_tick_get.o)
 .bss           0x442ba6d4        0x0 ../kernel/lib/CPU_B\libGCC_kernel.a(GCC_sys_tick_increment.o)
 .bss           0x442ba6d4        0x0 ../kernel/lib/CPU_B\libGCC_kernel.a(GCC_sys_tick_set.o)
 .bss           0x442ba6d4        0x0 ../kernel/lib/CPU_B\libGCC_kernel.a(GCC_task.o)
 .bss           0x442ba6d4        0x0 ../kernel/lib/CPU_B\libGCC_kernel.a(GCC_task_check_idle_stack.o)
 .bss           0x442ba6d4        0x0 ../kernel/lib/CPU_B\libGCC_kernel.a(GCC_task_check_stack.o)
 .bss           0x442ba6d4        0x0 ../kernel/lib/CPU_B\libGCC_kernel.a(GCC_task_create.o)
 .bss           0x442ba6d4        0x0 ../kernel/lib/CPU_B\libGCC_kernel.a(GCC_task_delay.o)
 .bss           0x442ba6d4        0x0 ../kernel/lib/CPU_B\libGCC_kernel.a(GCC_task_delay_cancel.o)
 .bss           0x442ba6d4        0x0 ../kernel/lib/CPU_B\libGCC_kernel.a(GCC_task_delete.o)
 .bss           0x442ba6d4        0x0 ../kernel/lib/CPU_B\libGCC_kernel.a(GCC_task_get_by_priority.o)
 .bss           0x442ba6d4        0x0 ../kernel/lib/CPU_B\libGCC_kernel.a(GCC_task_get_priority.o)
 .bss           0x442ba6d4        0x0 ../kernel/lib/CPU_B\libGCC_kernel.a(GCC_task_info.o)
 .bss           0x442ba6d4        0x0 ../kernel/lib/CPU_B\libGCC_kernel.a(GCC_task_resume.o)
 .bss           0x442ba6d4        0x0 ../kernel/lib/CPU_B\libGCC_kernel.a(GCC_task_set_priority.o)
 .bss           0x442ba6d4        0x0 ../kernel/lib/CPU_B\libGCC_kernel.a(GCC_task_statis_init.o)
 .bss           0x442ba6d4        0x0 ../kernel/lib/CPU_B\libGCC_kernel.a(GCC_task_suspend.o)
 .bss           0x442ba6d4        0x0 ../kernel/lib/CPU_B\libGCC_kernel.a(GCC_os_cpu_c.o)
 .bss           0x442ba6d4    0x383f0 ../kernel/lib/CPU_B\libGCC_kernel.a(GCC_GM_PROSTACK_Ip.o)
                0x442ba6d4                GM_PROSTACK_V_Statistic
                0x442ba748                GM_PROS_IP_V_MemBlkIpPareto
 .bss           0x442f2ac4      0xd00 ../kernel/lib/CPU_B\libGCC_kernel.a(GCC_GM_PROSTACK_Ip_tsk.o)
 .bss           0x442f37c4      0x584 ../kernel/lib/CPU_B\libGCC_kernel.a(GCC_GM_PROSTACK_Udp.o)
                0x442f37c4                GM_PROS_UDP_V_pSynchroSem
                0x442f37c8                GM_PROS_UDP_V_Table
 .bss           0x442f3d48      0x68c ../kernel/lib/CPU_B\libGCC_kernel.a(GCC_GM_PROSTACK_Vote.o)
 .bss           0x442f43d4     0x60b8 ../kernel/lib/CPU_B\libGCC_kernel.a(GCC_GM_Tftp.o)
                0x442f43d4                GM_TFTP_V_TaskInfo
                0x442f43e4                GM_TFTP_V_ServerFifo
                0x442f43f0                GM_TFTP_V_ReqSocketUDP
                0x442f43fc                GM_TFTP_V_pUdpFlagGroup
                0x442f4400                GM_TFTP_T_IndexLastService
                0x442f4404                GM_TFTP_V_SubscribedService
                0x442f44c4                GM_TFTP_V_ConnectionArray
 .bss           0x442fa48c        0x0 ../kernel/lib/CPU_B\libGCC_kernel.a(GCC_mstep_isr.o)
 .bss           0x442fa48c        0x0 ../kernel/lib/CPU_B\libGCC_kernel.a(GCC_Drv_Sha1_Functions_Asm.o)
 .bss           0x442fa48c        0x0 ../kernel/lib/CPU_B\libGCC_kernel.a(GCC_Drv_Can_Isr_Asm.o)
 .bss           0x442fa48c        0x0 ../kernel/lib/CPU_B\libGCC_kernel.a(GCC_Drv_Fec_Isr_Asm.o)
 .bss           0x442fa48c        0x0 ../kernel/lib/CPU_B\libGCC_kernel.a(GCC_Drv_Timer_Isr_Asm.o)
 .bss           0x442fa48c        0x0 ../kernel/lib/CPU_B\libGCC_kernel.a(GCC_Drv_Uart_Vote_Isr_Asm.o)
 .bss           0x442fa48c        0x0 ../kernel/lib/CPU_B\libGCC_kernel.a(GCC_VCU_Exception_Asm.o)
 .bss           0x442fa48c        0x0 ../kernel/lib/CPU_B\libGCC_kernel.a(GCC_mcf5xxx_lo.o)
 .bss           0x442fa48c        0x0 ../kernel/lib/CPU_B\libGCC_kernel.a(GCC_entry.o)
 .bss           0x442fa48c        0x0 ../kernel/lib/CPU_B\libGCC_kernel.a(GCC_os_cpu_a.o)
 .bss           0x442fa48c      0x194 ../kernel/lib/CPU_B\libGCC_kernel.a(GCC_BIT.o)
                0x442fa48c                BIT_V_ProcessingStatistics
                0x442fa4b4                BIT_V_TaskInfo
                0x442fa4c4                BIT_V_TaskTempo
                0x442fa4d4                BIT_V_cbitTempo
                0x442fa4e4                BIT_V_cflashbitTempo
                0x442fa4f4                BIT_V_FaultFilteringTempo
                0x442fa504                BIT_V_DistantPowerSupplyFailureCounter
                0x442fa506                BIT_V_bFaultFilteringAllowed
                0x442fa508                BIT_V_cbitFlags
 .bss           0x442fa620    0x1e8f0 ../kernel/lib/CPU_B\libGCC_kernel.a(GCC_CONF_autho.o)
                0x442fa620                CONF_AUTHO_V_TaskInfo
                0x442fa630                CONF_AUTHO_V_NbMyDatasetKeySrcAdded
                0x442fa634                CONF_AUTHO_V_MyFolderId
                0x442fa638                CONF_AUTHO_V_BootFailedInfo
                0x442fa63c                CONF_AUTHO_V_bIsFirstModuleDatasetAuthorizationReceived
                0x442fa640                CONF_AUTHO_V_pMemTFTPInstance
                0x442fa644                CONF_AUTHO_V_InitializationModeTimer
                0x442fa654                CONF_AUTHO_V_LastFileOfMyDataset
                0x442fa658                CONF_AUTHO_V_InternalMemoryAreaForFiles
                0x442fa668                CONF_AUTHO_V_CacheMemoryAreaForModuleDatasets
                0x442fa678                CONF_AUTHO_V_CacheMemoryAreaForFootprintsAndAuthorizations
                0x442fa688                CONF_AUTHO_V_FootprintFileDesc
                0x442fad08                CONF_AUTHO_V_AuthorizationCounter
                0x442fad0c                CONF_AUTHO_V_StatFootprintChunkTimeStat
 .bss           0x44318f10        0xa ../kernel/lib/CPU_B\libGCC_kernel.a(GCC_CONF_dataset.o)
 *fill*         0x44318f1a        0x2 
 .bss           0x44318f1c      0x504 ../kernel/lib/CPU_B\libGCC_kernel.a(GCC_Schedule_gentask.o)
 .bss           0x44319420        0x0 ../kernel/lib/CPU_B\libGCC_kernel.a(GCC_Drv_Can_Isr.o)
 .bss           0x44319420        0x0 ../kernel/lib/CPU_B\libGCC_kernel.a(GCC_os_hooks.o)
 .bss           0x44319420        0x0 ../kernel/lib/CPU_B\libGCC_kernel.a(GCC_idletaskcreate.o)
 .bss           0x44319420        0x0 ../kernel/lib/CPU_B\libGCC_kernel.a(GCC_event.o)
 .bss           0x44319420        0x0 ../kernel/lib/CPU_B\libGCC_kernel.a(GCC_mempart.o)
 .bss           0x44319420        0x0 ../kernel/lib/CPU_B\libGCC_kernel.a(GCC_message_queue.o)
 .bss           0x44319420        0x0 ../kernel/lib/CPU_B\libGCC_kernel.a(GCC_mutex.o)
 .bss           0x44319420     0x12d4 ../kernel/lib/CPU_B\libGCC_kernel.a(GCC_GM_PROSTACK_Arp.o)
                0x44319420                GM_PROS_ARP_V_ArpTable
                0x4431a6e0                GM_PROS_ARP_V_ProbingStatus_1
                0x4431a6e4                GM_PROS_ARP_V_ProbingStatus_2
                0x4431a6e8                GM_PROS_ARP_V_ProbingHWAddress_1
                0x4431a6ee                GM_PROS_ARP_V_ProbingHWAddress_2
 .bss           0x4431a6f4      0x6a8 ../kernel/lib/CPU_B\libGCC_kernel.a(GCC_GM_PROSTACK_Can.o)
                0x4431a6f4                GM_PROS_IP_CAN_V_Stat
 .bss           0x4431ad9c     0x19f1 ../kernel/lib/CPU_B\libGCC_kernel.a(GCC_GM_PROSTACK_Cop.o)
                0x4431ad9c                GM_PROS_COP_V_NodeIdInfoArray
                0x4431c5fc                GM_PROS_COP_V_CtxArray
 *fill*         0x4431c78d        0x3 
 .bss           0x4431c790      0x178 ../kernel/lib/CPU_B\libGCC_kernel.a(GCC_GM_PROSTACK_Eth.o)
                0x4431c790                GM_PROS_ETH_V_ReapeatTable
 .bss           0x4431c908        0x0 ../kernel/lib/CPU_B\libGCC_kernel.a(GCC_GM_PROSTACK_Icmp.o)
 .bss           0x4431c908        0x0 ../kernel/lib/CPU_B\libGCC_kernel.a(GCC_CONF_check.o)
 *(COMMON)
 *(.sbss)
 *(SCOMMON)
                0x4431c908                . = ALIGN (0x4)
                0x4431c908                __BSS_EXT_SDRAM_DATA_MIDDLE = .

.uninitialized_data_extram_dca
                0x4431c908    0xa1ab0 load address 0x203b1de8
                0x4431c908                __DCA_UNINIT_SECTION_START = .
 *(.udata_dca)
 .udata_dca     0x4431c908    0xa0000 ./out/CPU_B/GCC_guest.o
 .udata_dca     0x443bc908       0x10 ../kernel/lib/CPU_B\libGCC_kernel.a(GCC_can.o)
                0x443bc908                CAN_V_TaskInfo
 .udata_dca     0x443bc918        0x1 ../kernel/lib/CPU_B\libGCC_kernel.a(GCC_can_ard.o)
 .udata_dca     0x443bc919        0xa ../kernel/lib/CPU_B\libGCC_kernel.a(GCC_can_config.o)
                0x443bc919                CAN_CONF_V_DefaultConf
 *fill*         0x443bc923        0x1 
 .udata_dca     0x443bc924       0x20 ../kernel/lib/CPU_B\libGCC_kernel.a(GCC_can_od.o)
                0x443bc924                CAN_OD_V_ComObject
 .udata_dca     0x443bc944       0x54 ../kernel/lib/CPU_B\libGCC_kernel.a(GCC_can_saddle.o)
 .udata_dca     0x443bc998      0x6b8 ../kernel/lib/CPU_B\libGCC_kernel.a(GCC_CONF_local.o)
                0x443bc998                CONF_LOCAL_V_ElectronicStampFileDescriptor
                0x443bc9b8                CONF_LOCAL_V_pMyConfBuffer
                0x443bc9bc                CONF_LOCAL_V_LastIpConfiguration
                0x443bca14                CONF_LOCAL_V_ReprogConfIpFile
 .udata_dca     0x443bd050       0x70 ../kernel/lib/CPU_B\libGCC_kernel.a(GCC_FILESYS_int.o)
                0x443bd050                FILESYS_INT_SRC_V_CopySourceDesc
 .udata_dca     0x443bd0c0      0x258 ../kernel/lib/CPU_B\libGCC_kernel.a(GCC_RECORD_pda.o)
                0x443bd0c0                RECORD_PDA_V_ReserveAreaCstInfo
 .udata_dca     0x443bd318      0x944 ../kernel/lib/CPU_B\libGCC_kernel.a(GCC_Schedule_launcher.o)
 .udata_dca     0x443bdc5c       0xe0 ../kernel/lib/CPU_B\libGCC_kernel.a(GCC_Schedule_utl.o)
                0x443bdc74                SCHED_UTL_V_UserData
 .udata_dca     0x443bdd3c      0x32c ../kernel/lib/CPU_B\libGCC_kernel.a(GCC_VOTE_tsk.o)
                0x443bdd3c                VOTE_V_SubscribeInfo
 .udata_dca     0x443be068       0x28 ../kernel/lib/CPU_B\libGCC_kernel.a(GCC_Drv_Fec_Lib.o)
                0x443be068                IPS_FECDRV_V_Management
 .udata_dca     0x443be090      0x28c ../kernel/lib/CPU_B\libGCC_kernel.a(GCC_GM_PROSTACK_Ip.o)
                0x443be090                GM_PROS_IP_V_ParamIp
                0x443be314                GM_PROS_IP_V_ParamMem
 .udata_dca     0x443be31c       0x5e ../kernel/lib/CPU_B\libGCC_kernel.a(GCC_GM_PROSTACK_Ip_tsk.o)
                0x443be31c                GM_PROS_IP_TSK_V_Management
 *fill*         0x443be37a        0x2 
 .udata_dca     0x443be37c        0xc ../kernel/lib/CPU_B\libGCC_kernel.a(GCC_GM_PROSTACK_Vote.o)
                0x443be37c                GM_PROS_VOTE_V_Param
 .udata_dca     0x443be388       0x14 ../kernel/lib/CPU_B\libGCC_kernel.a(GCC_GM_PROSTACK_Can.o)
                0x443be388                IPC_CAN_V_Ip
                0x443be38c                IPC_CAN_V_SubNet
                0x443be390                GM_PROS_CAN_V_Param
 .udata_dca     0x443be39c       0x1c ../kernel/lib/CPU_B\libGCC_kernel.a(GCC_GM_PROSTACK_Eth.o)
                0x443be39c                GM_PROS_ETH_V_Param
                0x443be3b8                . = ALIGN (0x4)
                0x443be3b8                __DCA_UNINIT_SECTION_END = .

.uninitialized_data_extram_no_memtest
                0x443be3b8    0x335c8 load address 0x20453898
                0x443be3b8                __NO_TEST_UNINIT_SECTION_START = .
 *(.udata_no_memtest)
 .udata_no_memtest
                0x443be3b8      0x248 ../kernel/lib/CPU_B\libGCC_kernel.a(GCC_print.o)
 .udata_no_memtest
                0x443be600      0x248 ../kernel/lib/CPU_B\libGCC_kernel.a(GCC_VOTE_com.o)
 .udata_no_memtest
                0x443be848    0x20980 ../kernel/lib/CPU_B\libGCC_kernel.a(GCC_VOTE_tsk.o)
                0x443be848                VOTE_TSK_V_MsgPoolHigh
                0x443c0d88                VOTE_TSK_V_MsgPoolStd
                0x443ca288                VOTE_TSK_V_MsgPoolGuest
                0x443d3788                VOTE_TSK_V_MsgPoolIpstack
                0x443dcc88                VOTE_TSK_V_MsgPoolLog
 .udata_no_memtest
                0x443df1c8    0x10330 ../kernel/lib/CPU_B\libGCC_kernel.a(GCC_Drv_Fec_Lib.o)
 .udata_no_memtest
                0x443ef4f8     0x2484 ../kernel/lib/CPU_B\libGCC_kernel.a(GCC_Drv_Uart_Vote.o)
                0x443ef4f8                VOTE_DRV_V_Buffer
 .udata_no_memtest
                0x443f197c        0x4 ../kernel/lib/CPU_B\libGCC_kernel.a(GCC_BIT.o)
                0x443f197c                BIT_V_LocalLiveMemTestSignature
                0x443f1980                . = ALIGN (0x4)
                0x443f1980                __NO_TEST_UNINIT_SECTION_END = .
                0x443f1980                __BSS_EXT_SDRAM_DATA_END = .
                0x81000000                __VECTOR_RAM = ADDR (.vector_ram)
                0x81000400                __VECTOR_RAM_END = (__VECTOR_RAM + 0x400)
                0x00000000                __SDRAM = 0x0
                0x81000000                __SRAM = ADDR (.sram)
                0x81000000                ___SRAM = __SRAM
                0x44000000                __EXT_SDRAM_DATA = ADDR (.ext_sdram_data)
                0x40000000                __EXT_SDRAM_CODE = ADDR (.ext_sdram_code)
                0x81000500                __SRAM_CODE = ADDR (.sram_code)
                0x20000000                __EXT_FLASH = ADDR (.ext_flash)
                0x20000000                ___EXT_FLASH = __EXT_FLASH
                0x2009e834                __EXT_FLASH_END_USE = (__CONST_EXT_FLASH_START + (__CONST_EXT_SDRAM_CODE_END - __CONST_EXT_SDRAM_CODE_START))
                0x2009e834                ___EXT_FLASH_END_USE = __EXT_FLASH_END_USE
                0x81010000                __SP_INIT = ___SP_INIT
                0x20320000                __EXT_FLASH_ES = ADDR (.ext_flash_ES)
                0x81000000                __SRAM = ___SRAM
                0x8100fc00                __SP_END = ___SP_END
START GROUP
LOAD ../kernel/lib/CPU_B\libGCC_kernel.a
END GROUP
OUTPUT(./out/CPU_B/VCU_GCC_CPU_B_ROM_GUEST_NOETH.elf elf32-m68k)

.debug_info     0x00000000    0x833d4
 .debug_info    0x00000000     0x1748 ./out/CPU_B/GCC_guest.o
 .debug_info    0x00001748      0x653 ./out/CPU_B/GCC_guest_fuse.o
 .debug_info    0x00001d9b      0x6d4 ./out/CPU_B/GCC_guest_isolation.o
 .debug_info    0x0000246f      0x996 ./out/CPU_B/GCC_guest_outputport.o
 .debug_info    0x00002e05     0x1712 ./out/CPU_B/GCC_guest_public.o
 .debug_info    0x00004517      0x885 ./out/CPU_B/GCC_guest_readback.o
 .debug_info    0x00004d9c       0x7a ../kernel/lib/CPU_B\libGCC_kernel.a(GCC_VCU_Start_Asm.o)
 .debug_info    0x00004e16     0x2864 ../kernel/lib/CPU_B\libGCC_kernel.a(GCC_mstep.o)
 .debug_info    0x0000767a      0xb87 ../kernel/lib/CPU_B\libGCC_kernel.a(GCC_BIT_fuse.o)
 .debug_info    0x00008201     0x114a ../kernel/lib/CPU_B\libGCC_kernel.a(GCC_BIT_survey.o)
 .debug_info    0x0000934b     0x1acd ../kernel/lib/CPU_B\libGCC_kernel.a(GCC_can.o)
 .debug_info    0x0000ae18     0x1090 ../kernel/lib/CPU_B\libGCC_kernel.a(GCC_can_ard.o)
 .debug_info    0x0000bea8      0xd9e ../kernel/lib/CPU_B\libGCC_kernel.a(GCC_can_config.o)
 .debug_info    0x0000cc46      0x55b ../kernel/lib/CPU_B\libGCC_kernel.a(GCC_can_emcy.o)
 .debug_info    0x0000d1a1     0x1b84 ../kernel/lib/CPU_B\libGCC_kernel.a(GCC_can_od.o)
 .debug_info    0x0000ed25      0x5e6 ../kernel/lib/CPU_B\libGCC_kernel.a(GCC_can_odplug.o)
 .debug_info    0x0000f30b     0x14f3 ../kernel/lib/CPU_B\libGCC_kernel.a(GCC_can_open.o)
 .debug_info    0x000107fe      0x7fa ../kernel/lib/CPU_B\libGCC_kernel.a(GCC_can_saddle.o)
 .debug_info    0x00010ff8     0x1952 ../kernel/lib/CPU_B\libGCC_kernel.a(GCC_can_safety.o)
 .debug_info    0x0001294a     0x209c ../kernel/lib/CPU_B\libGCC_kernel.a(GCC_can_sdo.o)
 .debug_info    0x000149e6      0x718 ../kernel/lib/CPU_B\libGCC_kernel.a(GCC_can_time.o)
 .debug_info    0x000150fe      0xf2b ../kernel/lib/CPU_B\libGCC_kernel.a(GCC_CONF.o)
 .debug_info    0x00016029     0x38cb ../kernel/lib/CPU_B\libGCC_kernel.a(GCC_CONF_local.o)
 .debug_info    0x000198f4     0x1f9d ../kernel/lib/CPU_B\libGCC_kernel.a(GCC_CONF_src.o)
 .debug_info    0x0001b891      0x694 ../kernel/lib/CPU_B\libGCC_kernel.a(GCC_FCODE.o)
 .debug_info    0x0001bf25     0x2b91 ../kernel/lib/CPU_B\libGCC_kernel.a(GCC_FILESYS.o)
 .debug_info    0x0001eab6     0x1141 ../kernel/lib/CPU_B\libGCC_kernel.a(GCC_FILESYS_int.o)
 .debug_info    0x0001fbf7     0x1e4d ../kernel/lib/CPU_B\libGCC_kernel.a(GCC_FILESYS_tftp.o)
 .debug_info    0x00021a44      0x86b ../kernel/lib/CPU_B\libGCC_kernel.a(GCC_Flash.o)
 .debug_info    0x000222af     0x106e ../kernel/lib/CPU_B\libGCC_kernel.a(GCC_Flash_Async.o)
 .debug_info    0x0002331d      0x9ac ../kernel/lib/CPU_B\libGCC_kernel.a(GCC_Flash_Direct.o)
 .debug_info    0x00023cc9      0xd98 ../kernel/lib/CPU_B\libGCC_kernel.a(GCC_gdf.o)
 .debug_info    0x00024a61      0x7d3 ../kernel/lib/CPU_B\libGCC_kernel.a(GCC_gdf_dump_tools.o)
 .debug_info    0x00025234      0x466 ../kernel/lib/CPU_B\libGCC_kernel.a(GCC_MATH.o)
 .debug_info    0x0002569a     0x1c23 ../kernel/lib/CPU_B\libGCC_kernel.a(GCC_osw.o)
 .debug_info    0x000272bd      0xf20 ../kernel/lib/CPU_B\libGCC_kernel.a(GCC_print.o)
 .debug_info    0x000281dd      0x7b3 ../kernel/lib/CPU_B\libGCC_kernel.a(GCC_RECORD.o)
 .debug_info    0x00028990      0xca0 ../kernel/lib/CPU_B\libGCC_kernel.a(GCC_RECORD_evt.o)
 .debug_info    0x00029630      0xf61 ../kernel/lib/CPU_B\libGCC_kernel.a(GCC_RECORD_pda.o)
 .debug_info    0x0002a591      0xbf4 ../kernel/lib/CPU_B\libGCC_kernel.a(GCC_RECORD_sector.o)
 .debug_info    0x0002b185     0x125c ../kernel/lib/CPU_B\libGCC_kernel.a(GCC_RECORD_stat.o)
 .debug_info    0x0002c3e1      0x796 ../kernel/lib/CPU_B\libGCC_kernel.a(GCC_RECORD_utl.o)
 .debug_info    0x0002cb77     0x1e76 ../kernel/lib/CPU_B\libGCC_kernel.a(GCC_Schedule.o)
 .debug_info    0x0002e9ed      0x670 ../kernel/lib/CPU_B\libGCC_kernel.a(GCC_Schedule_gta.o)
 .debug_info    0x0002f05d     0x1087 ../kernel/lib/CPU_B\libGCC_kernel.a(GCC_Schedule_launcher.o)
 .debug_info    0x000300e4     0x137c ../kernel/lib/CPU_B\libGCC_kernel.a(GCC_Schedule_utl.o)
 .debug_info    0x00031460      0x38b ../kernel/lib/CPU_B\libGCC_kernel.a(GCC_VCU_Start.o)
 .debug_info    0x000317eb     0x250d ../kernel/lib/CPU_B\libGCC_kernel.a(GCC_SDB.o)
 .debug_info    0x00033cf8      0xf7c ../kernel/lib/CPU_B\libGCC_kernel.a(GCC_SDB_api.o)
 .debug_info    0x00034c74      0x746 ../kernel/lib/CPU_B\libGCC_kernel.a(GCC_SDB_intercpu.o)
 .debug_info    0x000353ba      0xf5b ../kernel/lib/CPU_B\libGCC_kernel.a(GCC_SDB_ioplug.o)
 .debug_info    0x00036315      0xf65 ../kernel/lib/CPU_B\libGCC_kernel.a(GCC_SDB_update.o)
 .debug_info    0x0003727a      0x809 ../kernel/lib/CPU_B\libGCC_kernel.a(GCC_SDB_updatelist.o)
 .debug_info    0x00037a83      0xce8 ../kernel/lib/CPU_B\libGCC_kernel.a(GCC_std.o)
 .debug_info    0x0003876b     0x126b ../kernel/lib/CPU_B\libGCC_kernel.a(GCC_VOTE.o)
 .debug_info    0x000399d6     0x1761 ../kernel/lib/CPU_B\libGCC_kernel.a(GCC_VOTE_com.o)
 .debug_info    0x0003b137      0xe34 ../kernel/lib/CPU_B\libGCC_kernel.a(GCC_VOTE_tsk.o)
 .debug_info    0x0003bf6b     0x134b ../kernel/lib/CPU_B\libGCC_kernel.a(GCC_wdg.o)
 .debug_info    0x0003d2b6     0x29e6 ../kernel/lib/CPU_B\libGCC_kernel.a(GCC_viv.o)
 .debug_info    0x0003fc9c      0x47e ../kernel/lib/CPU_B\libGCC_kernel.a(GCC_Drv_CAU_Lib.o)
 .debug_info    0x0004011a     0x12cf ../kernel/lib/CPU_B\libGCC_kernel.a(GCC_Drv_BID_Lib.o)
 .debug_info    0x000413e9      0xb39 ../kernel/lib/CPU_B\libGCC_kernel.a(GCC_Drv_Boot_Module.o)
 .debug_info    0x00041f22      0x695 ../kernel/lib/CPU_B\libGCC_kernel.a(GCC_Drv_Boot_Utils.o)
 .debug_info    0x000425b7      0x380 ../kernel/lib/CPU_B\libGCC_kernel.a(GCC_Drv_Cache_Lib.o)
 .debug_info    0x00042937     0x1edc ../kernel/lib/CPU_B\libGCC_kernel.a(GCC_Drv_Can_Lib.o)
 .debug_info    0x00044813     0x1a0d ../kernel/lib/CPU_B\libGCC_kernel.a(GCC_Drv_Fec_Lib.o)
 .debug_info    0x00046220      0xef0 ../kernel/lib/CPU_B\libGCC_kernel.a(GCC_Drv_Flash_Parallel_Lib.o)
 .debug_info    0x00047110      0xd2d ../kernel/lib/CPU_B\libGCC_kernel.a(GCC_Drv_Flash_Spi_Lib.o)
 .debug_info    0x00047e3d      0x94b ../kernel/lib/CPU_B\libGCC_kernel.a(GCC_Drv_Gpio.o)
 .debug_info    0x00048788      0x14f ../kernel/lib/CPU_B\libGCC_kernel.a(GCC_Drv_MMU_Lib.o)
 .debug_info    0x000488d7       0xde ../kernel/lib/CPU_B\libGCC_kernel.a(GCC_Drv_SDRAM_Lib.o)
 .debug_info    0x000489b5      0x602 ../kernel/lib/CPU_B\libGCC_kernel.a(GCC_Drv_Spi_Lib.o)
 .debug_info    0x00048fb7      0x5ee ../kernel/lib/CPU_B\libGCC_kernel.a(GCC_Drv_Timer_Lib.o)
 .debug_info    0x000495a5      0xbed ../kernel/lib/CPU_B\libGCC_kernel.a(GCC_Drv_Uart_Vote.o)
 .debug_info    0x0004a192      0x371 ../kernel/lib/CPU_B\libGCC_kernel.a(GCC_bsp.o)
 .debug_info    0x0004a503      0x522 ../kernel/lib/CPU_B\libGCC_kernel.a(GCC_exceptions.o)
 .debug_info    0x0004aa25      0x4be ../kernel/lib/CPU_B\libGCC_kernel.a(GCC_os_core.o)
 .debug_info    0x0004aee3      0x682 ../kernel/lib/CPU_B\libGCC_kernel.a(GCC_os_flag.o)
 .debug_info    0x0004b565      0x74b ../kernel/lib/CPU_B\libGCC_kernel.a(GCC_os_mem.o)
 .debug_info    0x0004bcb0      0x7d0 ../kernel/lib/CPU_B\libGCC_kernel.a(GCC_os_q.o)
 .debug_info    0x0004c480      0x666 ../kernel/lib/CPU_B\libGCC_kernel.a(GCC_os_sem.o)
 .debug_info    0x0004cae6      0xb84 ../kernel/lib/CPU_B\libGCC_kernel.a(GCC_os_task.o)
 .debug_info    0x0004d66a      0x3e3 ../kernel/lib/CPU_B\libGCC_kernel.a(GCC_os_time.o)
 .debug_info    0x0004da4d       0xe2 ../kernel/lib/CPU_B\libGCC_kernel.a(GCC_core.o)
 .debug_info    0x0004db2f      0x4fb ../kernel/lib/CPU_B\libGCC_kernel.a(GCC_coretask.o)
 .debug_info    0x0004e02a      0x889 ../kernel/lib/CPU_B\libGCC_kernel.a(GCC_event_group_create.o)
 .debug_info    0x0004e8b3      0x853 ../kernel/lib/CPU_B\libGCC_kernel.a(GCC_event_group_delete.o)
 .debug_info    0x0004f106      0x9ce ../kernel/lib/CPU_B\libGCC_kernel.a(GCC_event_group_delete_force.o)
 .debug_info    0x0004fad4      0x774 ../kernel/lib/CPU_B\libGCC_kernel.a(GCC_event_group_info.o)
 .debug_info    0x00050248      0x9f3 ../kernel/lib/CPU_B\libGCC_kernel.a(GCC_event_notify.o)
 .debug_info    0x00050c3b      0x68c ../kernel/lib/CPU_B\libGCC_kernel.a(GCC_event_ready_get.o)
 .debug_info    0x000512c7      0x7a8 ../kernel/lib/CPU_B\libGCC_kernel.a(GCC_event_try_wait.o)
 .debug_info    0x00051a6f      0x994 ../kernel/lib/CPU_B\libGCC_kernel.a(GCC_event_wait.o)
 .debug_info    0x00052403       0x94 ../kernel/lib/CPU_B\libGCC_kernel.a(GCC_fatal_error_raise.o)
 .debug_info    0x00052497       0x7b ../kernel/lib/CPU_B\libGCC_kernel.a(GCC_irq_resume.o)
 .debug_info    0x00052512       0x70 ../kernel/lib/CPU_B\libGCC_kernel.a(GCC_irq_suspend.o)
 .debug_info    0x00052582      0x55e ../kernel/lib/CPU_B\libGCC_kernel.a(GCC_isr.o)
 .debug_info    0x00052ae0      0x5f9 ../kernel/lib/CPU_B\libGCC_kernel.a(GCC_isr_enter.o)
 .debug_info    0x000530d9      0x6cd ../kernel/lib/CPU_B\libGCC_kernel.a(GCC_isr_exit.o)
 .debug_info    0x000537a6       0x4d ../kernel/lib/CPU_B\libGCC_kernel.a(GCC_isr_level_get.o)
 .debug_info    0x000537f3      0x777 ../kernel/lib/CPU_B\libGCC_kernel.a(GCC_mempart_alloc.o)
 .debug_info    0x00053f6a      0x8ce ../kernel/lib/CPU_B\libGCC_kernel.a(GCC_mempart_create.o)
 .debug_info    0x00054838      0x763 ../kernel/lib/CPU_B\libGCC_kernel.a(GCC_mempart_free.o)
 .debug_info    0x00054f9b      0x7c5 ../kernel/lib/CPU_B\libGCC_kernel.a(GCC_mempart_info.o)
 .debug_info    0x00055760      0x9b2 ../kernel/lib/CPU_B\libGCC_kernel.a(GCC_message_queue_broadcast.o)
 .debug_info    0x00056112      0x8d9 ../kernel/lib/CPU_B\libGCC_kernel.a(GCC_message_queue_create.o)
 .debug_info    0x000569eb      0x8b9 ../kernel/lib/CPU_B\libGCC_kernel.a(GCC_message_queue_delete.o)
 .debug_info    0x000572a4      0xa31 ../kernel/lib/CPU_B\libGCC_kernel.a(GCC_message_queue_delete_force.o)
 .debug_info    0x00057cd5      0x78c ../kernel/lib/CPU_B\libGCC_kernel.a(GCC_message_queue_flush.o)
 .debug_info    0x00058461      0x7d8 ../kernel/lib/CPU_B\libGCC_kernel.a(GCC_message_queue_info.o)
 .debug_info    0x00058c39      0x945 ../kernel/lib/CPU_B\libGCC_kernel.a(GCC_message_queue_receive.o)
 .debug_info    0x0005957e      0x96f ../kernel/lib/CPU_B\libGCC_kernel.a(GCC_message_queue_send.o)
 .debug_info    0x00059eed      0x96f ../kernel/lib/CPU_B\libGCC_kernel.a(GCC_message_queue_send_first.o)
 .debug_info    0x0005a85c      0x79a ../kernel/lib/CPU_B\libGCC_kernel.a(GCC_message_queue_try_receive.o)
 .debug_info    0x0005aff6       0xe1 ../kernel/lib/CPU_B\libGCC_kernel.a(GCC_os_init.o)
 .debug_info    0x0005b0d7       0xe1 ../kernel/lib/CPU_B\libGCC_kernel.a(GCC_os_safety_critical.o)
 .debug_info    0x0005b1b8      0x5ab ../kernel/lib/CPU_B\libGCC_kernel.a(GCC_os_shutdown.o)
 .debug_info    0x0005b763      0x60d ../kernel/lib/CPU_B\libGCC_kernel.a(GCC_os_start.o)
 .debug_info    0x0005bd70      0x5f9 ../kernel/lib/CPU_B\libGCC_kernel.a(GCC_sched_lock.o)
 .debug_info    0x0005c369      0x6cd ../kernel/lib/CPU_B\libGCC_kernel.a(GCC_sched_unlock.o)
 .debug_info    0x0005ca36      0x6d5 ../kernel/lib/CPU_B\libGCC_kernel.a(GCC_semaphore.o)
 .debug_info    0x0005d10b      0x74e ../kernel/lib/CPU_B\libGCC_kernel.a(GCC_semaphore_count_get.o)
 .debug_info    0x0005d859      0x775 ../kernel/lib/CPU_B\libGCC_kernel.a(GCC_semaphore_count_set.o)
 .debug_info    0x0005dfce      0x871 ../kernel/lib/CPU_B\libGCC_kernel.a(GCC_semaphore_create.o)
 .debug_info    0x0005e83f      0x86d ../kernel/lib/CPU_B\libGCC_kernel.a(GCC_semaphore_delete.o)
 .debug_info    0x0005f0ac      0x9e5 ../kernel/lib/CPU_B\libGCC_kernel.a(GCC_semaphore_delete_force.o)
 .debug_info    0x0005fa91      0x915 ../kernel/lib/CPU_B\libGCC_kernel.a(GCC_semaphore_give.o)
 .debug_info    0x000603a6      0x8eb ../kernel/lib/CPU_B\libGCC_kernel.a(GCC_semaphore_take.o)
 .debug_info    0x00060c91      0x75c ../kernel/lib/CPU_B\libGCC_kernel.a(GCC_semaphore_try_take.o)
 .debug_info    0x000613ed      0x5f2 ../kernel/lib/CPU_B\libGCC_kernel.a(GCC_sys_tick.o)
 .debug_info    0x000619df      0x689 ../kernel/lib/CPU_B\libGCC_kernel.a(GCC_sys_tick_get.o)
 .debug_info    0x00062068      0x86f ../kernel/lib/CPU_B\libGCC_kernel.a(GCC_sys_tick_increment.o)
 .debug_info    0x000628d7      0x685 ../kernel/lib/CPU_B\libGCC_kernel.a(GCC_sys_tick_set.o)
 .debug_info    0x00062f5c      0x89f ../kernel/lib/CPU_B\libGCC_kernel.a(GCC_task.o)
 .debug_info    0x000637fb      0x72f ../kernel/lib/CPU_B\libGCC_kernel.a(GCC_task_check_idle_stack.o)
 .debug_info    0x00063f2a      0x7bf ../kernel/lib/CPU_B\libGCC_kernel.a(GCC_task_check_stack.o)
 .debug_info    0x000646e9      0xbfa ../kernel/lib/CPU_B\libGCC_kernel.a(GCC_task_create.o)
 .debug_info    0x000652e3      0x7ea ../kernel/lib/CPU_B\libGCC_kernel.a(GCC_task_delay.o)
 .debug_info    0x00065acd      0x868 ../kernel/lib/CPU_B\libGCC_kernel.a(GCC_task_delay_cancel.o)
 .debug_info    0x00066335      0x98f ../kernel/lib/CPU_B\libGCC_kernel.a(GCC_task_delete.o)
 .debug_info    0x00066cc4      0x6b2 ../kernel/lib/CPU_B\libGCC_kernel.a(GCC_task_get_by_priority.o)
 .debug_info    0x00067376      0x743 ../kernel/lib/CPU_B\libGCC_kernel.a(GCC_task_get_priority.o)
 .debug_info    0x00067ab9      0x793 ../kernel/lib/CPU_B\libGCC_kernel.a(GCC_task_info.o)
 .debug_info    0x0006824c      0x841 ../kernel/lib/CPU_B\libGCC_kernel.a(GCC_task_resume.o)
 .debug_info    0x00068a8d      0x972 ../kernel/lib/CPU_B\libGCC_kernel.a(GCC_task_set_priority.o)
 .debug_info    0x000693ff      0x694 ../kernel/lib/CPU_B\libGCC_kernel.a(GCC_task_statis_init.o)
 .debug_info    0x00069a93      0x841 ../kernel/lib/CPU_B\libGCC_kernel.a(GCC_task_suspend.o)
 .debug_info    0x0006a2d4      0xd41 ../kernel/lib/CPU_B\libGCC_kernel.a(GCC_os_cpu_c.o)
 .debug_info    0x0006b015     0x19e3 ../kernel/lib/CPU_B\libGCC_kernel.a(GCC_GM_PROSTACK_Ip.o)
 .debug_info    0x0006c9f8     0x214c ../kernel/lib/CPU_B\libGCC_kernel.a(GCC_GM_PROSTACK_Ip_tsk.o)
 .debug_info    0x0006eb44     0x1739 ../kernel/lib/CPU_B\libGCC_kernel.a(GCC_GM_PROSTACK_Udp.o)
 .debug_info    0x0007027d      0xdb0 ../kernel/lib/CPU_B\libGCC_kernel.a(GCC_GM_PROSTACK_Vote.o)
 .debug_info    0x0007102d     0x1792 ../kernel/lib/CPU_B\libGCC_kernel.a(GCC_GM_Tftp.o)
 .debug_info    0x000727bf       0x72 ../kernel/lib/CPU_B\libGCC_kernel.a(GCC_mstep_isr.o)
 .debug_info    0x00072831       0x8b ../kernel/lib/CPU_B\libGCC_kernel.a(GCC_Drv_Sha1_Functions_Asm.o)
 .debug_info    0x000728bc       0x7c ../kernel/lib/CPU_B\libGCC_kernel.a(GCC_Drv_Can_Isr_Asm.o)
 .debug_info    0x00072938       0x7c ../kernel/lib/CPU_B\libGCC_kernel.a(GCC_Drv_Fec_Isr_Asm.o)
 .debug_info    0x000729b4       0x7e ../kernel/lib/CPU_B\libGCC_kernel.a(GCC_Drv_Timer_Isr_Asm.o)
 .debug_info    0x00072a32       0x82 ../kernel/lib/CPU_B\libGCC_kernel.a(GCC_Drv_Uart_Vote_Isr_Asm.o)
 .debug_info    0x00072ab4       0x7a ../kernel/lib/CPU_B\libGCC_kernel.a(GCC_VCU_Exception_Asm.o)
 .debug_info    0x00072b2e       0x73 ../kernel/lib/CPU_B\libGCC_kernel.a(GCC_mcf5xxx_lo.o)
 .debug_info    0x00072ba1       0x8d ../kernel/lib/CPU_B\libGCC_kernel.a(GCC_entry.o)
 .debug_info    0x00072c2e       0x74 ../kernel/lib/CPU_B\libGCC_kernel.a(GCC_os_cpu_a.o)
 .debug_info    0x00072ca2     0x1e53 ../kernel/lib/CPU_B\libGCC_kernel.a(GCC_BIT.o)
 .debug_info    0x00074af5     0x330c ../kernel/lib/CPU_B\libGCC_kernel.a(GCC_CONF_autho.o)
 .debug_info    0x00077e01     0x25a1 ../kernel/lib/CPU_B\libGCC_kernel.a(GCC_CONF_dataset.o)
 .debug_info    0x0007a3a2      0xa09 ../kernel/lib/CPU_B\libGCC_kernel.a(GCC_Schedule_gentask.o)
 .debug_info    0x0007adab      0x3a0 ../kernel/lib/CPU_B\libGCC_kernel.a(GCC_Drv_Can_Isr.o)
 .debug_info    0x0007b14b      0x7e1 ../kernel/lib/CPU_B\libGCC_kernel.a(GCC_os_hooks.o)
 .debug_info    0x0007b92c      0x8ac ../kernel/lib/CPU_B\libGCC_kernel.a(GCC_idletaskcreate.o)
 .debug_info    0x0007c1d8      0x6d5 ../kernel/lib/CPU_B\libGCC_kernel.a(GCC_event.o)
 .debug_info    0x0007c8ad      0x6ea ../kernel/lib/CPU_B\libGCC_kernel.a(GCC_mempart.o)
 .debug_info    0x0007cf97      0x721 ../kernel/lib/CPU_B\libGCC_kernel.a(GCC_message_queue.o)
 .debug_info    0x0007d6b8      0x6ed ../kernel/lib/CPU_B\libGCC_kernel.a(GCC_mutex.o)
 .debug_info    0x0007dda5     0x12de ../kernel/lib/CPU_B\libGCC_kernel.a(GCC_GM_PROSTACK_Arp.o)
 .debug_info    0x0007f083      0xe27 ../kernel/lib/CPU_B\libGCC_kernel.a(GCC_GM_PROSTACK_Can.o)
 .debug_info    0x0007feaa      0x96c ../kernel/lib/CPU_B\libGCC_kernel.a(GCC_GM_PROSTACK_Cop.o)
 .debug_info    0x00080816     0x1283 ../kernel/lib/CPU_B\libGCC_kernel.a(GCC_GM_PROSTACK_Eth.o)
 .debug_info    0x00081a99      0xdc8 ../kernel/lib/CPU_B\libGCC_kernel.a(GCC_GM_PROSTACK_Icmp.o)
 .debug_info    0x00082861      0xb73 ../kernel/lib/CPU_B\libGCC_kernel.a(GCC_CONF_check.o)

.debug_abbrev   0x00000000    0x12c1b
 .debug_abbrev  0x00000000      0x293 ./out/CPU_B/GCC_guest.o
 .debug_abbrev  0x00000293      0x181 ./out/CPU_B/GCC_guest_fuse.o
 .debug_abbrev  0x00000414      0x169 ./out/CPU_B/GCC_guest_isolation.o
 .debug_abbrev  0x0000057d      0x221 ./out/CPU_B/GCC_guest_outputport.o
 .debug_abbrev  0x0000079e      0x2aa ./out/CPU_B/GCC_guest_public.o
 .debug_abbrev  0x00000a48      0x1e2 ./out/CPU_B/GCC_guest_readback.o
 .debug_abbrev  0x00000c2a       0x14 ../kernel/lib/CPU_B\libGCC_kernel.a(GCC_VCU_Start_Asm.o)
 .debug_abbrev  0x00000c3e      0x2d3 ../kernel/lib/CPU_B\libGCC_kernel.a(GCC_mstep.o)
 .debug_abbrev  0x00000f11      0x1f0 ../kernel/lib/CPU_B\libGCC_kernel.a(GCC_BIT_fuse.o)
 .debug_abbrev  0x00001101      0x203 ../kernel/lib/CPU_B\libGCC_kernel.a(GCC_BIT_survey.o)
 .debug_abbrev  0x00001304      0x2b1 ../kernel/lib/CPU_B\libGCC_kernel.a(GCC_can.o)
 .debug_abbrev  0x000015b5      0x20e ../kernel/lib/CPU_B\libGCC_kernel.a(GCC_can_ard.o)
 .debug_abbrev  0x000017c3      0x1f9 ../kernel/lib/CPU_B\libGCC_kernel.a(GCC_can_config.o)
 .debug_abbrev  0x000019bc      0x131 ../kernel/lib/CPU_B\libGCC_kernel.a(GCC_can_emcy.o)
 .debug_abbrev  0x00001aed      0x1ec ../kernel/lib/CPU_B\libGCC_kernel.a(GCC_can_od.o)
 .debug_abbrev  0x00001cd9      0x129 ../kernel/lib/CPU_B\libGCC_kernel.a(GCC_can_odplug.o)
 .debug_abbrev  0x00001e02      0x232 ../kernel/lib/CPU_B\libGCC_kernel.a(GCC_can_open.o)
 .debug_abbrev  0x00002034      0x1de ../kernel/lib/CPU_B\libGCC_kernel.a(GCC_can_saddle.o)
 .debug_abbrev  0x00002212      0x287 ../kernel/lib/CPU_B\libGCC_kernel.a(GCC_can_safety.o)
 .debug_abbrev  0x00002499      0x1cc ../kernel/lib/CPU_B\libGCC_kernel.a(GCC_can_sdo.o)
 .debug_abbrev  0x00002665      0x267 ../kernel/lib/CPU_B\libGCC_kernel.a(GCC_can_time.o)
 .debug_abbrev  0x000028cc      0x21a ../kernel/lib/CPU_B\libGCC_kernel.a(GCC_CONF.o)
 .debug_abbrev  0x00002ae6      0x2ab ../kernel/lib/CPU_B\libGCC_kernel.a(GCC_CONF_local.o)
 .debug_abbrev  0x00002d91      0x254 ../kernel/lib/CPU_B\libGCC_kernel.a(GCC_CONF_src.o)
 .debug_abbrev  0x00002fe5      0x197 ../kernel/lib/CPU_B\libGCC_kernel.a(GCC_FCODE.o)
 .debug_abbrev  0x0000317c      0x278 ../kernel/lib/CPU_B\libGCC_kernel.a(GCC_FILESYS.o)
 .debug_abbrev  0x000033f4      0x1bf ../kernel/lib/CPU_B\libGCC_kernel.a(GCC_FILESYS_int.o)
 .debug_abbrev  0x000035b3      0x297 ../kernel/lib/CPU_B\libGCC_kernel.a(GCC_FILESYS_tftp.o)
 .debug_abbrev  0x0000384a      0x107 ../kernel/lib/CPU_B\libGCC_kernel.a(GCC_Flash.o)
 .debug_abbrev  0x00003951      0x23b ../kernel/lib/CPU_B\libGCC_kernel.a(GCC_Flash_Async.o)
 .debug_abbrev  0x00003b8c      0x138 ../kernel/lib/CPU_B\libGCC_kernel.a(GCC_Flash_Direct.o)
 .debug_abbrev  0x00003cc4      0x242 ../kernel/lib/CPU_B\libGCC_kernel.a(GCC_gdf.o)
 .debug_abbrev  0x00003f06      0x1a5 ../kernel/lib/CPU_B\libGCC_kernel.a(GCC_gdf_dump_tools.o)
 .debug_abbrev  0x000040ab      0x185 ../kernel/lib/CPU_B\libGCC_kernel.a(GCC_MATH.o)
 .debug_abbrev  0x00004230      0x285 ../kernel/lib/CPU_B\libGCC_kernel.a(GCC_osw.o)
 .debug_abbrev  0x000044b5      0x2aa ../kernel/lib/CPU_B\libGCC_kernel.a(GCC_print.o)
 .debug_abbrev  0x0000475f      0x1c0 ../kernel/lib/CPU_B\libGCC_kernel.a(GCC_RECORD.o)
 .debug_abbrev  0x0000491f      0x226 ../kernel/lib/CPU_B\libGCC_kernel.a(GCC_RECORD_evt.o)
 .debug_abbrev  0x00004b45      0x2a9 ../kernel/lib/CPU_B\libGCC_kernel.a(GCC_RECORD_pda.o)
 .debug_abbrev  0x00004dee      0x1b8 ../kernel/lib/CPU_B\libGCC_kernel.a(GCC_RECORD_sector.o)
 .debug_abbrev  0x00004fa6      0x266 ../kernel/lib/CPU_B\libGCC_kernel.a(GCC_RECORD_stat.o)
 .debug_abbrev  0x0000520c      0x1b7 ../kernel/lib/CPU_B\libGCC_kernel.a(GCC_RECORD_utl.o)
 .debug_abbrev  0x000053c3      0x28b ../kernel/lib/CPU_B\libGCC_kernel.a(GCC_Schedule.o)
 .debug_abbrev  0x0000564e      0x150 ../kernel/lib/CPU_B\libGCC_kernel.a(GCC_Schedule_gta.o)
 .debug_abbrev  0x0000579e      0x1df ../kernel/lib/CPU_B\libGCC_kernel.a(GCC_Schedule_launcher.o)
 .debug_abbrev  0x0000597d      0x29c ../kernel/lib/CPU_B\libGCC_kernel.a(GCC_Schedule_utl.o)
 .debug_abbrev  0x00005c19       0xce ../kernel/lib/CPU_B\libGCC_kernel.a(GCC_VCU_Start.o)
 .debug_abbrev  0x00005ce7      0x280 ../kernel/lib/CPU_B\libGCC_kernel.a(GCC_SDB.o)
 .debug_abbrev  0x00005f67      0x213 ../kernel/lib/CPU_B\libGCC_kernel.a(GCC_SDB_api.o)
 .debug_abbrev  0x0000617a      0x145 ../kernel/lib/CPU_B\libGCC_kernel.a(GCC_SDB_intercpu.o)
 .debug_abbrev  0x000062bf      0x218 ../kernel/lib/CPU_B\libGCC_kernel.a(GCC_SDB_ioplug.o)
 .debug_abbrev  0x000064d7      0x1ba ../kernel/lib/CPU_B\libGCC_kernel.a(GCC_SDB_update.o)
 .debug_abbrev  0x00006691      0x188 ../kernel/lib/CPU_B\libGCC_kernel.a(GCC_SDB_updatelist.o)
 .debug_abbrev  0x00006819      0x216 ../kernel/lib/CPU_B\libGCC_kernel.a(GCC_std.o)
 .debug_abbrev  0x00006a2f      0x228 ../kernel/lib/CPU_B\libGCC_kernel.a(GCC_VOTE.o)
 .debug_abbrev  0x00006c57      0x2d4 ../kernel/lib/CPU_B\libGCC_kernel.a(GCC_VOTE_com.o)
 .debug_abbrev  0x00006f2b      0x205 ../kernel/lib/CPU_B\libGCC_kernel.a(GCC_VOTE_tsk.o)
 .debug_abbrev  0x00007130      0x24d ../kernel/lib/CPU_B\libGCC_kernel.a(GCC_wdg.o)
 .debug_abbrev  0x0000737d      0x296 ../kernel/lib/CPU_B\libGCC_kernel.a(GCC_viv.o)
 .debug_abbrev  0x00007613       0xee ../kernel/lib/CPU_B\libGCC_kernel.a(GCC_Drv_CAU_Lib.o)
 .debug_abbrev  0x00007701      0x1bf ../kernel/lib/CPU_B\libGCC_kernel.a(GCC_Drv_BID_Lib.o)
 .debug_abbrev  0x000078c0      0x183 ../kernel/lib/CPU_B\libGCC_kernel.a(GCC_Drv_Boot_Module.o)
 .debug_abbrev  0x00007a43      0x217 ../kernel/lib/CPU_B\libGCC_kernel.a(GCC_Drv_Boot_Utils.o)
 .debug_abbrev  0x00007c5a       0xc7 ../kernel/lib/CPU_B\libGCC_kernel.a(GCC_Drv_Cache_Lib.o)
 .debug_abbrev  0x00007d21      0x270 ../kernel/lib/CPU_B\libGCC_kernel.a(GCC_Drv_Can_Lib.o)
 .debug_abbrev  0x00007f91      0x2bb ../kernel/lib/CPU_B\libGCC_kernel.a(GCC_Drv_Fec_Lib.o)
 .debug_abbrev  0x0000824c      0x1e6 ../kernel/lib/CPU_B\libGCC_kernel.a(GCC_Drv_Flash_Parallel_Lib.o)
 .debug_abbrev  0x00008432      0x1bc ../kernel/lib/CPU_B\libGCC_kernel.a(GCC_Drv_Flash_Spi_Lib.o)
 .debug_abbrev  0x000085ee      0x17f ../kernel/lib/CPU_B\libGCC_kernel.a(GCC_Drv_Gpio.o)
 .debug_abbrev  0x0000876d       0xa0 ../kernel/lib/CPU_B\libGCC_kernel.a(GCC_Drv_MMU_Lib.o)
 .debug_abbrev  0x0000880d       0x6a ../kernel/lib/CPU_B\libGCC_kernel.a(GCC_Drv_SDRAM_Lib.o)
 .debug_abbrev  0x00008877      0x18f ../kernel/lib/CPU_B\libGCC_kernel.a(GCC_Drv_Spi_Lib.o)
 .debug_abbrev  0x00008a06       0xd0 ../kernel/lib/CPU_B\libGCC_kernel.a(GCC_Drv_Timer_Lib.o)
 .debug_abbrev  0x00008ad6      0x297 ../kernel/lib/CPU_B\libGCC_kernel.a(GCC_Drv_Uart_Vote.o)
 .debug_abbrev  0x00008d6d       0xc9 ../kernel/lib/CPU_B\libGCC_kernel.a(GCC_bsp.o)
 .debug_abbrev  0x00008e36       0xfe ../kernel/lib/CPU_B\libGCC_kernel.a(GCC_exceptions.o)
 .debug_abbrev  0x00008f34      0x13c ../kernel/lib/CPU_B\libGCC_kernel.a(GCC_os_core.o)
 .debug_abbrev  0x00009070      0x19a ../kernel/lib/CPU_B\libGCC_kernel.a(GCC_os_flag.o)
 .debug_abbrev  0x0000920a      0x1c3 ../kernel/lib/CPU_B\libGCC_kernel.a(GCC_os_mem.o)
 .debug_abbrev  0x000093cd      0x180 ../kernel/lib/CPU_B\libGCC_kernel.a(GCC_os_q.o)
 .debug_abbrev  0x0000954d      0x16d ../kernel/lib/CPU_B\libGCC_kernel.a(GCC_os_sem.o)
 .debug_abbrev  0x000096ba      0x1aa ../kernel/lib/CPU_B\libGCC_kernel.a(GCC_os_task.o)
 .debug_abbrev  0x00009864       0xf4 ../kernel/lib/CPU_B\libGCC_kernel.a(GCC_os_time.o)
 .debug_abbrev  0x00009958       0x72 ../kernel/lib/CPU_B\libGCC_kernel.a(GCC_core.o)
 .debug_abbrev  0x000099ca       0xdc ../kernel/lib/CPU_B\libGCC_kernel.a(GCC_coretask.o)
 .debug_abbrev  0x00009aa6      0x1c6 ../kernel/lib/CPU_B\libGCC_kernel.a(GCC_event_group_create.o)
 .debug_abbrev  0x00009c6c      0x1c6 ../kernel/lib/CPU_B\libGCC_kernel.a(GCC_event_group_delete.o)
 .debug_abbrev  0x00009e32      0x20b ../kernel/lib/CPU_B\libGCC_kernel.a(GCC_event_group_delete_force.o)
 .debug_abbrev  0x0000a03d      0x1b0 ../kernel/lib/CPU_B\libGCC_kernel.a(GCC_event_group_info.o)
 .debug_abbrev  0x0000a1ed      0x21e ../kernel/lib/CPU_B\libGCC_kernel.a(GCC_event_notify.o)
 .debug_abbrev  0x0000a40b      0x185 ../kernel/lib/CPU_B\libGCC_kernel.a(GCC_event_ready_get.o)
 .debug_abbrev  0x0000a590      0x1b0 ../kernel/lib/CPU_B\libGCC_kernel.a(GCC_event_try_wait.o)
 .debug_abbrev  0x0000a740      0x1f5 ../kernel/lib/CPU_B\libGCC_kernel.a(GCC_event_wait.o)
 .debug_abbrev  0x0000a935       0x53 ../kernel/lib/CPU_B\libGCC_kernel.a(GCC_fatal_error_raise.o)
 .debug_abbrev  0x0000a988       0x6f ../kernel/lib/CPU_B\libGCC_kernel.a(GCC_irq_resume.o)
 .debug_abbrev  0x0000a9f7       0x71 ../kernel/lib/CPU_B\libGCC_kernel.a(GCC_irq_suspend.o)
 .debug_abbrev  0x0000aa68      0x101 ../kernel/lib/CPU_B\libGCC_kernel.a(GCC_isr.o)
 .debug_abbrev  0x0000ab69      0x174 ../kernel/lib/CPU_B\libGCC_kernel.a(GCC_isr_enter.o)
 .debug_abbrev  0x0000acdd      0x1ac ../kernel/lib/CPU_B\libGCC_kernel.a(GCC_isr_exit.o)
 .debug_abbrev  0x0000ae89       0x4a ../kernel/lib/CPU_B\libGCC_kernel.a(GCC_isr_level_get.o)
 .debug_abbrev  0x0000aed3      0x1a9 ../kernel/lib/CPU_B\libGCC_kernel.a(GCC_mempart_alloc.o)
 .debug_abbrev  0x0000b07c      0x1bf ../kernel/lib/CPU_B\libGCC_kernel.a(GCC_mempart_create.o)
 .debug_abbrev  0x0000b23b      0x1a9 ../kernel/lib/CPU_B\libGCC_kernel.a(GCC_mempart_free.o)
 .debug_abbrev  0x0000b3e4      0x1a9 ../kernel/lib/CPU_B\libGCC_kernel.a(GCC_mempart_info.o)
 .debug_abbrev  0x0000b58d      0x1f5 ../kernel/lib/CPU_B\libGCC_kernel.a(GCC_message_queue_broadcast.o)
 .debug_abbrev  0x0000b782      0x1c6 ../kernel/lib/CPU_B\libGCC_kernel.a(GCC_message_queue_create.o)
 .debug_abbrev  0x0000b948      0x1c6 ../kernel/lib/CPU_B\libGCC_kernel.a(GCC_message_queue_delete.o)
 .debug_abbrev  0x0000bb0e      0x20b ../kernel/lib/CPU_B\libGCC_kernel.a(GCC_message_queue_delete_force.o)
 .debug_abbrev  0x0000bd19      0x1b0 ../kernel/lib/CPU_B\libGCC_kernel.a(GCC_message_queue_flush.o)
 .debug_abbrev  0x0000bec9      0x1b0 ../kernel/lib/CPU_B\libGCC_kernel.a(GCC_message_queue_info.o)
 .debug_abbrev  0x0000c079      0x1b0 ../kernel/lib/CPU_B\libGCC_kernel.a(GCC_message_queue_receive.o)
 .debug_abbrev  0x0000c229      0x1f5 ../kernel/lib/CPU_B\libGCC_kernel.a(GCC_message_queue_send.o)
 .debug_abbrev  0x0000c41e      0x1f5 ../kernel/lib/CPU_B\libGCC_kernel.a(GCC_message_queue_send_first.o)
 .debug_abbrev  0x0000c613      0x1b0 ../kernel/lib/CPU_B\libGCC_kernel.a(GCC_message_queue_try_receive.o)
 .debug_abbrev  0x0000c7c3       0x81 ../kernel/lib/CPU_B\libGCC_kernel.a(GCC_os_init.o)
 .debug_abbrev  0x0000c844       0x81 ../kernel/lib/CPU_B\libGCC_kernel.a(GCC_os_safety_critical.o)
 .debug_abbrev  0x0000c8c5      0x12c ../kernel/lib/CPU_B\libGCC_kernel.a(GCC_os_shutdown.o)
 .debug_abbrev  0x0000c9f1      0x160 ../kernel/lib/CPU_B\libGCC_kernel.a(GCC_os_start.o)
 .debug_abbrev  0x0000cb51      0x174 ../kernel/lib/CPU_B\libGCC_kernel.a(GCC_sched_lock.o)
 .debug_abbrev  0x0000ccc5      0x1ac ../kernel/lib/CPU_B\libGCC_kernel.a(GCC_sched_unlock.o)
 .debug_abbrev  0x0000ce71      0x185 ../kernel/lib/CPU_B\libGCC_kernel.a(GCC_semaphore.o)
 .debug_abbrev  0x0000cff6      0x1b0 ../kernel/lib/CPU_B\libGCC_kernel.a(GCC_semaphore_count_get.o)
 .debug_abbrev  0x0000d1a6      0x1b0 ../kernel/lib/CPU_B\libGCC_kernel.a(GCC_semaphore_count_set.o)
 .debug_abbrev  0x0000d356      0x1c6 ../kernel/lib/CPU_B\libGCC_kernel.a(GCC_semaphore_create.o)
 .debug_abbrev  0x0000d51c      0x1c6 ../kernel/lib/CPU_B\libGCC_kernel.a(GCC_semaphore_delete.o)
 .debug_abbrev  0x0000d6e2      0x20b ../kernel/lib/CPU_B\libGCC_kernel.a(GCC_semaphore_delete_force.o)
 .debug_abbrev  0x0000d8ed      0x1f5 ../kernel/lib/CPU_B\libGCC_kernel.a(GCC_semaphore_give.o)
 .debug_abbrev  0x0000dae2      0x1b0 ../kernel/lib/CPU_B\libGCC_kernel.a(GCC_semaphore_take.o)
 .debug_abbrev  0x0000dc92      0x1b0 ../kernel/lib/CPU_B\libGCC_kernel.a(GCC_semaphore_try_take.o)
 .debug_abbrev  0x0000de42      0x101 ../kernel/lib/CPU_B\libGCC_kernel.a(GCC_sys_tick.o)
 .debug_abbrev  0x0000df43      0x185 ../kernel/lib/CPU_B\libGCC_kernel.a(GCC_sys_tick_get.o)
 .debug_abbrev  0x0000e0c8      0x1ef ../kernel/lib/CPU_B\libGCC_kernel.a(GCC_sys_tick_increment.o)
 .debug_abbrev  0x0000e2b7      0x183 ../kernel/lib/CPU_B\libGCC_kernel.a(GCC_sys_tick_set.o)
 .debug_abbrev  0x0000e43a      0x1c0 ../kernel/lib/CPU_B\libGCC_kernel.a(GCC_task.o)
 .debug_abbrev  0x0000e5fa      0x1ae ../kernel/lib/CPU_B\libGCC_kernel.a(GCC_task_check_idle_stack.o)
 .debug_abbrev  0x0000e7a8      0x1b0 ../kernel/lib/CPU_B\libGCC_kernel.a(GCC_task_check_stack.o)
 .debug_abbrev  0x0000e958      0x1c6 ../kernel/lib/CPU_B\libGCC_kernel.a(GCC_task_create.o)
 .debug_abbrev  0x0000eb1e      0x1e4 ../kernel/lib/CPU_B\libGCC_kernel.a(GCC_task_delay.o)
 .debug_abbrev  0x0000ed02      0x1e6 ../kernel/lib/CPU_B\libGCC_kernel.a(GCC_task_delay_cancel.o)
 .debug_abbrev  0x0000eee8      0x20b ../kernel/lib/CPU_B\libGCC_kernel.a(GCC_task_delete.o)
 .debug_abbrev  0x0000f0f3      0x185 ../kernel/lib/CPU_B\libGCC_kernel.a(GCC_task_get_by_priority.o)
 .debug_abbrev  0x0000f278      0x1b0 ../kernel/lib/CPU_B\libGCC_kernel.a(GCC_task_get_priority.o)
 .debug_abbrev  0x0000f428      0x1b0 ../kernel/lib/CPU_B\libGCC_kernel.a(GCC_task_info.o)
 .debug_abbrev  0x0000f5d8      0x1b0 ../kernel/lib/CPU_B\libGCC_kernel.a(GCC_task_resume.o)
 .debug_abbrev  0x0000f788      0x1e6 ../kernel/lib/CPU_B\libGCC_kernel.a(GCC_task_set_priority.o)
 .debug_abbrev  0x0000f96e      0x185 ../kernel/lib/CPU_B\libGCC_kernel.a(GCC_task_statis_init.o)
 .debug_abbrev  0x0000faf3      0x1b0 ../kernel/lib/CPU_B\libGCC_kernel.a(GCC_task_suspend.o)
 .debug_abbrev  0x0000fca3      0x2e2 ../kernel/lib/CPU_B\libGCC_kernel.a(GCC_os_cpu_c.o)
 .debug_abbrev  0x0000ff85      0x2c2 ../kernel/lib/CPU_B\libGCC_kernel.a(GCC_GM_PROSTACK_Ip.o)
 .debug_abbrev  0x00010247      0x309 ../kernel/lib/CPU_B\libGCC_kernel.a(GCC_GM_PROSTACK_Ip_tsk.o)
 .debug_abbrev  0x00010550      0x277 ../kernel/lib/CPU_B\libGCC_kernel.a(GCC_GM_PROSTACK_Udp.o)
 .debug_abbrev  0x000107c7      0x252 ../kernel/lib/CPU_B\libGCC_kernel.a(GCC_GM_PROSTACK_Vote.o)
 .debug_abbrev  0x00010a19      0x2ab ../kernel/lib/CPU_B\libGCC_kernel.a(GCC_GM_Tftp.o)
 .debug_abbrev  0x00010cc4       0x14 ../kernel/lib/CPU_B\libGCC_kernel.a(GCC_mstep_isr.o)
 .debug_abbrev  0x00010cd8       0x14 ../kernel/lib/CPU_B\libGCC_kernel.a(GCC_Drv_Sha1_Functions_Asm.o)
 .debug_abbrev  0x00010cec       0x14 ../kernel/lib/CPU_B\libGCC_kernel.a(GCC_Drv_Can_Isr_Asm.o)
 .debug_abbrev  0x00010d00       0x14 ../kernel/lib/CPU_B\libGCC_kernel.a(GCC_Drv_Fec_Isr_Asm.o)
 .debug_abbrev  0x00010d14       0x14 ../kernel/lib/CPU_B\libGCC_kernel.a(GCC_Drv_Timer_Isr_Asm.o)
 .debug_abbrev  0x00010d28       0x14 ../kernel/lib/CPU_B\libGCC_kernel.a(GCC_Drv_Uart_Vote_Isr_Asm.o)
 .debug_abbrev  0x00010d3c       0x12 ../kernel/lib/CPU_B\libGCC_kernel.a(GCC_VCU_Exception_Asm.o)
 .debug_abbrev  0x00010d4e       0x12 ../kernel/lib/CPU_B\libGCC_kernel.a(GCC_mcf5xxx_lo.o)
 .debug_abbrev  0x00010d60       0x14 ../kernel/lib/CPU_B\libGCC_kernel.a(GCC_entry.o)
 .debug_abbrev  0x00010d74       0x12 ../kernel/lib/CPU_B\libGCC_kernel.a(GCC_os_cpu_a.o)
 .debug_abbrev  0x00010d86      0x2a4 ../kernel/lib/CPU_B\libGCC_kernel.a(GCC_BIT.o)
 .debug_abbrev  0x0001102a      0x286 ../kernel/lib/CPU_B\libGCC_kernel.a(GCC_CONF_autho.o)
 .debug_abbrev  0x000112b0      0x21e ../kernel/lib/CPU_B\libGCC_kernel.a(GCC_CONF_dataset.o)
 .debug_abbrev  0x000114ce      0x187 ../kernel/lib/CPU_B\libGCC_kernel.a(GCC_Schedule_gentask.o)
 .debug_abbrev  0x00011655       0xbd ../kernel/lib/CPU_B\libGCC_kernel.a(GCC_Drv_Can_Isr.o)
 .debug_abbrev  0x00011712      0x128 ../kernel/lib/CPU_B\libGCC_kernel.a(GCC_os_hooks.o)
 .debug_abbrev  0x0001183a      0x1e0 ../kernel/lib/CPU_B\libGCC_kernel.a(GCC_idletaskcreate.o)
 .debug_abbrev  0x00011a1a      0x185 ../kernel/lib/CPU_B\libGCC_kernel.a(GCC_event.o)
 .debug_abbrev  0x00011b9f      0x17e ../kernel/lib/CPU_B\libGCC_kernel.a(GCC_mempart.o)
 .debug_abbrev  0x00011d1d      0x185 ../kernel/lib/CPU_B\libGCC_kernel.a(GCC_message_queue.o)
 .debug_abbrev  0x00011ea2      0x185 ../kernel/lib/CPU_B\libGCC_kernel.a(GCC_mutex.o)
 .debug_abbrev  0x00012027      0x25d ../kernel/lib/CPU_B\libGCC_kernel.a(GCC_GM_PROSTACK_Arp.o)
 .debug_abbrev  0x00012284      0x20c ../kernel/lib/CPU_B\libGCC_kernel.a(GCC_GM_PROSTACK_Can.o)
 .debug_abbrev  0x00012490      0x206 ../kernel/lib/CPU_B\libGCC_kernel.a(GCC_GM_PROSTACK_Cop.o)
 .debug_abbrev  0x00012696      0x254 ../kernel/lib/CPU_B\libGCC_kernel.a(GCC_GM_PROSTACK_Eth.o)
 .debug_abbrev  0x000128ea      0x1b5 ../kernel/lib/CPU_B\libGCC_kernel.a(GCC_GM_PROSTACK_Icmp.o)
 .debug_abbrev  0x00012a9f      0x17c ../kernel/lib/CPU_B\libGCC_kernel.a(GCC_CONF_check.o)

.debug_aranges  0x00000000     0x17c0
 .debug_aranges
                0x00000000       0x20 ./out/CPU_B/GCC_guest.o
 .debug_aranges
                0x00000020       0x20 ./out/CPU_B/GCC_guest_fuse.o
 .debug_aranges
                0x00000040       0x20 ./out/CPU_B/GCC_guest_isolation.o
 .debug_aranges
                0x00000060       0x20 ./out/CPU_B/GCC_guest_outputport.o
 .debug_aranges
                0x00000080       0x20 ./out/CPU_B/GCC_guest_public.o
 .debug_aranges
                0x000000a0       0x20 ./out/CPU_B/GCC_guest_readback.o
 .debug_aranges
                0x000000c0       0x20 ../kernel/lib/CPU_B\libGCC_kernel.a(GCC_VCU_Start_Asm.o)
 .debug_aranges
                0x000000e0       0x20 ../kernel/lib/CPU_B\libGCC_kernel.a(GCC_mstep.o)
 .debug_aranges
                0x00000100       0x20 ../kernel/lib/CPU_B\libGCC_kernel.a(GCC_BIT_fuse.o)
 .debug_aranges
                0x00000120       0x20 ../kernel/lib/CPU_B\libGCC_kernel.a(GCC_BIT_survey.o)
 .debug_aranges
                0x00000140       0x20 ../kernel/lib/CPU_B\libGCC_kernel.a(GCC_can.o)
 .debug_aranges
                0x00000160       0x20 ../kernel/lib/CPU_B\libGCC_kernel.a(GCC_can_ard.o)
 .debug_aranges
                0x00000180       0x20 ../kernel/lib/CPU_B\libGCC_kernel.a(GCC_can_config.o)
 .debug_aranges
                0x000001a0       0x20 ../kernel/lib/CPU_B\libGCC_kernel.a(GCC_can_emcy.o)
 .debug_aranges
                0x000001c0       0x20 ../kernel/lib/CPU_B\libGCC_kernel.a(GCC_can_od.o)
 .debug_aranges
                0x000001e0       0x20 ../kernel/lib/CPU_B\libGCC_kernel.a(GCC_can_odplug.o)
 .debug_aranges
                0x00000200       0x20 ../kernel/lib/CPU_B\libGCC_kernel.a(GCC_can_open.o)
 .debug_aranges
                0x00000220       0x20 ../kernel/lib/CPU_B\libGCC_kernel.a(GCC_can_saddle.o)
 .debug_aranges
                0x00000240       0x20 ../kernel/lib/CPU_B\libGCC_kernel.a(GCC_can_safety.o)
 .debug_aranges
                0x00000260       0x20 ../kernel/lib/CPU_B\libGCC_kernel.a(GCC_can_sdo.o)
 .debug_aranges
                0x00000280       0x20 ../kernel/lib/CPU_B\libGCC_kernel.a(GCC_can_time.o)
 .debug_aranges
                0x000002a0       0x20 ../kernel/lib/CPU_B\libGCC_kernel.a(GCC_CONF.o)
 .debug_aranges
                0x000002c0       0x20 ../kernel/lib/CPU_B\libGCC_kernel.a(GCC_CONF_local.o)
 .debug_aranges
                0x000002e0       0x20 ../kernel/lib/CPU_B\libGCC_kernel.a(GCC_CONF_src.o)
 .debug_aranges
                0x00000300       0x20 ../kernel/lib/CPU_B\libGCC_kernel.a(GCC_FCODE.o)
 .debug_aranges
                0x00000320       0x20 ../kernel/lib/CPU_B\libGCC_kernel.a(GCC_FILESYS.o)
 .debug_aranges
                0x00000340       0x20 ../kernel/lib/CPU_B\libGCC_kernel.a(GCC_FILESYS_int.o)
 .debug_aranges
                0x00000360       0x20 ../kernel/lib/CPU_B\libGCC_kernel.a(GCC_FILESYS_tftp.o)
 .debug_aranges
                0x00000380       0x20 ../kernel/lib/CPU_B\libGCC_kernel.a(GCC_Flash.o)
 .debug_aranges
                0x000003a0       0x20 ../kernel/lib/CPU_B\libGCC_kernel.a(GCC_Flash_Async.o)
 .debug_aranges
                0x000003c0       0x20 ../kernel/lib/CPU_B\libGCC_kernel.a(GCC_Flash_Direct.o)
 .debug_aranges
                0x000003e0       0x20 ../kernel/lib/CPU_B\libGCC_kernel.a(GCC_gdf.o)
 .debug_aranges
                0x00000400       0x20 ../kernel/lib/CPU_B\libGCC_kernel.a(GCC_gdf_dump_tools.o)
 .debug_aranges
                0x00000420       0x20 ../kernel/lib/CPU_B\libGCC_kernel.a(GCC_MATH.o)
 .debug_aranges
                0x00000440       0x20 ../kernel/lib/CPU_B\libGCC_kernel.a(GCC_osw.o)
 .debug_aranges
                0x00000460       0x20 ../kernel/lib/CPU_B\libGCC_kernel.a(GCC_print.o)
 .debug_aranges
                0x00000480       0x20 ../kernel/lib/CPU_B\libGCC_kernel.a(GCC_RECORD.o)
 .debug_aranges
                0x000004a0       0x20 ../kernel/lib/CPU_B\libGCC_kernel.a(GCC_RECORD_evt.o)
 .debug_aranges
                0x000004c0       0x20 ../kernel/lib/CPU_B\libGCC_kernel.a(GCC_RECORD_pda.o)
 .debug_aranges
                0x000004e0       0x20 ../kernel/lib/CPU_B\libGCC_kernel.a(GCC_RECORD_sector.o)
 .debug_aranges
                0x00000500       0x20 ../kernel/lib/CPU_B\libGCC_kernel.a(GCC_RECORD_stat.o)
 .debug_aranges
                0x00000520       0x20 ../kernel/lib/CPU_B\libGCC_kernel.a(GCC_RECORD_utl.o)
 .debug_aranges
                0x00000540       0x20 ../kernel/lib/CPU_B\libGCC_kernel.a(GCC_Schedule.o)
 .debug_aranges
                0x00000560       0x20 ../kernel/lib/CPU_B\libGCC_kernel.a(GCC_Schedule_gta.o)
 .debug_aranges
                0x00000580       0x20 ../kernel/lib/CPU_B\libGCC_kernel.a(GCC_Schedule_launcher.o)
 .debug_aranges
                0x000005a0       0x20 ../kernel/lib/CPU_B\libGCC_kernel.a(GCC_Schedule_utl.o)
 .debug_aranges
                0x000005c0       0x20 ../kernel/lib/CPU_B\libGCC_kernel.a(GCC_VCU_Start.o)
 .debug_aranges
                0x000005e0       0x20 ../kernel/lib/CPU_B\libGCC_kernel.a(GCC_SDB.o)
 .debug_aranges
                0x00000600       0x20 ../kernel/lib/CPU_B\libGCC_kernel.a(GCC_SDB_api.o)
 .debug_aranges
                0x00000620       0x20 ../kernel/lib/CPU_B\libGCC_kernel.a(GCC_SDB_intercpu.o)
 .debug_aranges
                0x00000640       0x20 ../kernel/lib/CPU_B\libGCC_kernel.a(GCC_SDB_ioplug.o)
 .debug_aranges
                0x00000660       0x20 ../kernel/lib/CPU_B\libGCC_kernel.a(GCC_SDB_update.o)
 .debug_aranges
                0x00000680       0x20 ../kernel/lib/CPU_B\libGCC_kernel.a(GCC_SDB_updatelist.o)
 .debug_aranges
                0x000006a0       0x20 ../kernel/lib/CPU_B\libGCC_kernel.a(GCC_std.o)
 .debug_aranges
                0x000006c0       0x20 ../kernel/lib/CPU_B\libGCC_kernel.a(GCC_VOTE.o)
 .debug_aranges
                0x000006e0       0x20 ../kernel/lib/CPU_B\libGCC_kernel.a(GCC_VOTE_com.o)
 .debug_aranges
                0x00000700       0x20 ../kernel/lib/CPU_B\libGCC_kernel.a(GCC_VOTE_tsk.o)
 .debug_aranges
                0x00000720       0x28 ../kernel/lib/CPU_B\libGCC_kernel.a(GCC_wdg.o)
 .debug_aranges
                0x00000748       0x20 ../kernel/lib/CPU_B\libGCC_kernel.a(GCC_viv.o)
 .debug_aranges
                0x00000768       0x20 ../kernel/lib/CPU_B\libGCC_kernel.a(GCC_Drv_CAU_Lib.o)
 .debug_aranges
                0x00000788       0x20 ../kernel/lib/CPU_B\libGCC_kernel.a(GCC_Drv_BID_Lib.o)
 .debug_aranges
                0x000007a8       0x80 ../kernel/lib/CPU_B\libGCC_kernel.a(GCC_Drv_Boot_Module.o)
 .debug_aranges
                0x00000828       0x98 ../kernel/lib/CPU_B\libGCC_kernel.a(GCC_Drv_Boot_Utils.o)
 .debug_aranges
                0x000008c0       0x30 ../kernel/lib/CPU_B\libGCC_kernel.a(GCC_Drv_Cache_Lib.o)
 .debug_aranges
                0x000008f0       0x20 ../kernel/lib/CPU_B\libGCC_kernel.a(GCC_Drv_Can_Lib.o)
 .debug_aranges
                0x00000910       0x20 ../kernel/lib/CPU_B\libGCC_kernel.a(GCC_Drv_Fec_Lib.o)
 .debug_aranges
                0x00000930       0x20 ../kernel/lib/CPU_B\libGCC_kernel.a(GCC_Drv_Flash_Parallel_Lib.o)
 .debug_aranges
                0x00000950       0x20 ../kernel/lib/CPU_B\libGCC_kernel.a(GCC_Drv_Flash_Spi_Lib.o)
 .debug_aranges
                0x00000970       0x20 ../kernel/lib/CPU_B\libGCC_kernel.a(GCC_Drv_Gpio.o)
 .debug_aranges
                0x00000990       0x20 ../kernel/lib/CPU_B\libGCC_kernel.a(GCC_Drv_MMU_Lib.o)
 .debug_aranges
                0x000009b0       0x20 ../kernel/lib/CPU_B\libGCC_kernel.a(GCC_Drv_SDRAM_Lib.o)
 .debug_aranges
                0x000009d0       0x20 ../kernel/lib/CPU_B\libGCC_kernel.a(GCC_Drv_Spi_Lib.o)
 .debug_aranges
                0x000009f0       0x20 ../kernel/lib/CPU_B\libGCC_kernel.a(GCC_Drv_Timer_Lib.o)
 .debug_aranges
                0x00000a10       0x20 ../kernel/lib/CPU_B\libGCC_kernel.a(GCC_Drv_Uart_Vote.o)
 .debug_aranges
                0x00000a30       0x20 ../kernel/lib/CPU_B\libGCC_kernel.a(GCC_bsp.o)
 .debug_aranges
                0x00000a50       0x28 ../kernel/lib/CPU_B\libGCC_kernel.a(GCC_exceptions.o)
 .debug_aranges
                0x00000a78       0x20 ../kernel/lib/CPU_B\libGCC_kernel.a(GCC_os_core.o)
 .debug_aranges
                0x00000a98       0x20 ../kernel/lib/CPU_B\libGCC_kernel.a(GCC_os_flag.o)
 .debug_aranges
                0x00000ab8       0x20 ../kernel/lib/CPU_B\libGCC_kernel.a(GCC_os_mem.o)
 .debug_aranges
                0x00000ad8       0x20 ../kernel/lib/CPU_B\libGCC_kernel.a(GCC_os_q.o)
 .debug_aranges
                0x00000af8       0x20 ../kernel/lib/CPU_B\libGCC_kernel.a(GCC_os_sem.o)
 .debug_aranges
                0x00000b18       0x20 ../kernel/lib/CPU_B\libGCC_kernel.a(GCC_os_task.o)
 .debug_aranges
                0x00000b38       0x20 ../kernel/lib/CPU_B\libGCC_kernel.a(GCC_os_time.o)
 .debug_aranges
                0x00000b58       0x18 ../kernel/lib/CPU_B\libGCC_kernel.a(GCC_core.o)
 .debug_aranges
                0x00000b70       0x18 ../kernel/lib/CPU_B\libGCC_kernel.a(GCC_coretask.o)
 .debug_aranges
                0x00000b88       0x20 ../kernel/lib/CPU_B\libGCC_kernel.a(GCC_event_group_create.o)
 .debug_aranges
                0x00000ba8       0x20 ../kernel/lib/CPU_B\libGCC_kernel.a(GCC_event_group_delete.o)
 .debug_aranges
                0x00000bc8       0x20 ../kernel/lib/CPU_B\libGCC_kernel.a(GCC_event_group_delete_force.o)
 .debug_aranges
                0x00000be8       0x20 ../kernel/lib/CPU_B\libGCC_kernel.a(GCC_event_group_info.o)
 .debug_aranges
                0x00000c08       0x20 ../kernel/lib/CPU_B\libGCC_kernel.a(GCC_event_notify.o)
 .debug_aranges
                0x00000c28       0x20 ../kernel/lib/CPU_B\libGCC_kernel.a(GCC_event_ready_get.o)
 .debug_aranges
                0x00000c48       0x20 ../kernel/lib/CPU_B\libGCC_kernel.a(GCC_event_try_wait.o)
 .debug_aranges
                0x00000c68       0x20 ../kernel/lib/CPU_B\libGCC_kernel.a(GCC_event_wait.o)
 .debug_aranges
                0x00000c88       0x20 ../kernel/lib/CPU_B\libGCC_kernel.a(GCC_fatal_error_raise.o)
 .debug_aranges
                0x00000ca8       0x20 ../kernel/lib/CPU_B\libGCC_kernel.a(GCC_irq_resume.o)
 .debug_aranges
                0x00000cc8       0x20 ../kernel/lib/CPU_B\libGCC_kernel.a(GCC_irq_suspend.o)
 .debug_aranges
                0x00000ce8       0x20 ../kernel/lib/CPU_B\libGCC_kernel.a(GCC_isr.o)
 .debug_aranges
                0x00000d08       0x28 ../kernel/lib/CPU_B\libGCC_kernel.a(GCC_isr_enter.o)
 .debug_aranges
                0x00000d30       0x28 ../kernel/lib/CPU_B\libGCC_kernel.a(GCC_isr_exit.o)
 .debug_aranges
                0x00000d58       0x20 ../kernel/lib/CPU_B\libGCC_kernel.a(GCC_isr_level_get.o)
 .debug_aranges
                0x00000d78       0x20 ../kernel/lib/CPU_B\libGCC_kernel.a(GCC_mempart_alloc.o)
 .debug_aranges
                0x00000d98       0x20 ../kernel/lib/CPU_B\libGCC_kernel.a(GCC_mempart_create.o)
 .debug_aranges
                0x00000db8       0x20 ../kernel/lib/CPU_B\libGCC_kernel.a(GCC_mempart_free.o)
 .debug_aranges
                0x00000dd8       0x20 ../kernel/lib/CPU_B\libGCC_kernel.a(GCC_mempart_info.o)
 .debug_aranges
                0x00000df8       0x20 ../kernel/lib/CPU_B\libGCC_kernel.a(GCC_message_queue_broadcast.o)
 .debug_aranges
                0x00000e18       0x20 ../kernel/lib/CPU_B\libGCC_kernel.a(GCC_message_queue_create.o)
 .debug_aranges
                0x00000e38       0x20 ../kernel/lib/CPU_B\libGCC_kernel.a(GCC_message_queue_delete.o)
 .debug_aranges
                0x00000e58       0x20 ../kernel/lib/CPU_B\libGCC_kernel.a(GCC_message_queue_delete_force.o)
 .debug_aranges
                0x00000e78       0x20 ../kernel/lib/CPU_B\libGCC_kernel.a(GCC_message_queue_flush.o)
 .debug_aranges
                0x00000e98       0x20 ../kernel/lib/CPU_B\libGCC_kernel.a(GCC_message_queue_info.o)
 .debug_aranges
                0x00000eb8       0x20 ../kernel/lib/CPU_B\libGCC_kernel.a(GCC_message_queue_receive.o)
 .debug_aranges
                0x00000ed8       0x20 ../kernel/lib/CPU_B\libGCC_kernel.a(GCC_message_queue_send.o)
 .debug_aranges
                0x00000ef8       0x20 ../kernel/lib/CPU_B\libGCC_kernel.a(GCC_message_queue_send_first.o)
 .debug_aranges
                0x00000f18       0x20 ../kernel/lib/CPU_B\libGCC_kernel.a(GCC_message_queue_try_receive.o)
 .debug_aranges
                0x00000f38       0x20 ../kernel/lib/CPU_B\libGCC_kernel.a(GCC_os_init.o)
 .debug_aranges
                0x00000f58       0x20 ../kernel/lib/CPU_B\libGCC_kernel.a(GCC_os_safety_critical.o)
 .debug_aranges
                0x00000f78       0x20 ../kernel/lib/CPU_B\libGCC_kernel.a(GCC_os_shutdown.o)
 .debug_aranges
                0x00000f98       0x20 ../kernel/lib/CPU_B\libGCC_kernel.a(GCC_os_start.o)
 .debug_aranges
                0x00000fb8       0x20 ../kernel/lib/CPU_B\libGCC_kernel.a(GCC_sched_lock.o)
 .debug_aranges
                0x00000fd8       0x20 ../kernel/lib/CPU_B\libGCC_kernel.a(GCC_sched_unlock.o)
 .debug_aranges
                0x00000ff8       0x20 ../kernel/lib/CPU_B\libGCC_kernel.a(GCC_semaphore.o)
 .debug_aranges
                0x00001018       0x20 ../kernel/lib/CPU_B\libGCC_kernel.a(GCC_semaphore_count_get.o)
 .debug_aranges
                0x00001038       0x20 ../kernel/lib/CPU_B\libGCC_kernel.a(GCC_semaphore_count_set.o)
 .debug_aranges
                0x00001058       0x20 ../kernel/lib/CPU_B\libGCC_kernel.a(GCC_semaphore_create.o)
 .debug_aranges
                0x00001078       0x20 ../kernel/lib/CPU_B\libGCC_kernel.a(GCC_semaphore_delete.o)
 .debug_aranges
                0x00001098       0x20 ../kernel/lib/CPU_B\libGCC_kernel.a(GCC_semaphore_delete_force.o)
 .debug_aranges
                0x000010b8       0x20 ../kernel/lib/CPU_B\libGCC_kernel.a(GCC_semaphore_give.o)
 .debug_aranges
                0x000010d8       0x20 ../kernel/lib/CPU_B\libGCC_kernel.a(GCC_semaphore_take.o)
 .debug_aranges
                0x000010f8       0x20 ../kernel/lib/CPU_B\libGCC_kernel.a(GCC_semaphore_try_take.o)
 .debug_aranges
                0x00001118       0x20 ../kernel/lib/CPU_B\libGCC_kernel.a(GCC_sys_tick.o)
 .debug_aranges
                0x00001138       0x20 ../kernel/lib/CPU_B\libGCC_kernel.a(GCC_sys_tick_get.o)
 .debug_aranges
                0x00001158       0x20 ../kernel/lib/CPU_B\libGCC_kernel.a(GCC_sys_tick_increment.o)
 .debug_aranges
                0x00001178       0x20 ../kernel/lib/CPU_B\libGCC_kernel.a(GCC_sys_tick_set.o)
 .debug_aranges
                0x00001198       0x20 ../kernel/lib/CPU_B\libGCC_kernel.a(GCC_task.o)
 .debug_aranges
                0x000011b8       0x20 ../kernel/lib/CPU_B\libGCC_kernel.a(GCC_task_check_idle_stack.o)
 .debug_aranges
                0x000011d8       0x20 ../kernel/lib/CPU_B\libGCC_kernel.a(GCC_task_check_stack.o)
 .debug_aranges
                0x000011f8       0x20 ../kernel/lib/CPU_B\libGCC_kernel.a(GCC_task_create.o)
 .debug_aranges
                0x00001218       0x20 ../kernel/lib/CPU_B\libGCC_kernel.a(GCC_task_delay.o)
 .debug_aranges
                0x00001238       0x20 ../kernel/lib/CPU_B\libGCC_kernel.a(GCC_task_delay_cancel.o)
 .debug_aranges
                0x00001258       0x20 ../kernel/lib/CPU_B\libGCC_kernel.a(GCC_task_delete.o)
 .debug_aranges
                0x00001278       0x20 ../kernel/lib/CPU_B\libGCC_kernel.a(GCC_task_get_by_priority.o)
 .debug_aranges
                0x00001298       0x20 ../kernel/lib/CPU_B\libGCC_kernel.a(GCC_task_get_priority.o)
 .debug_aranges
                0x000012b8       0x20 ../kernel/lib/CPU_B\libGCC_kernel.a(GCC_task_info.o)
 .debug_aranges
                0x000012d8       0x20 ../kernel/lib/CPU_B\libGCC_kernel.a(GCC_task_resume.o)
 .debug_aranges
                0x000012f8       0x20 ../kernel/lib/CPU_B\libGCC_kernel.a(GCC_task_set_priority.o)
 .debug_aranges
                0x00001318       0x20 ../kernel/lib/CPU_B\libGCC_kernel.a(GCC_task_statis_init.o)
 .debug_aranges
                0x00001338       0x20 ../kernel/lib/CPU_B\libGCC_kernel.a(GCC_task_suspend.o)
 .debug_aranges
                0x00001358       0x20 ../kernel/lib/CPU_B\libGCC_kernel.a(GCC_os_cpu_c.o)
 .debug_aranges
                0x00001378       0x20 ../kernel/lib/CPU_B\libGCC_kernel.a(GCC_GM_PROSTACK_Ip.o)
 .debug_aranges
                0x00001398       0x20 ../kernel/lib/CPU_B\libGCC_kernel.a(GCC_GM_PROSTACK_Ip_tsk.o)
 .debug_aranges
                0x000013b8       0x20 ../kernel/lib/CPU_B\libGCC_kernel.a(GCC_GM_PROSTACK_Udp.o)
 .debug_aranges
                0x000013d8       0x20 ../kernel/lib/CPU_B\libGCC_kernel.a(GCC_GM_PROSTACK_Vote.o)
 .debug_aranges
                0x000013f8       0x20 ../kernel/lib/CPU_B\libGCC_kernel.a(GCC_GM_Tftp.o)
 .debug_aranges
                0x00001418       0x20 ../kernel/lib/CPU_B\libGCC_kernel.a(GCC_mstep_isr.o)
 .debug_aranges
                0x00001438       0x20 ../kernel/lib/CPU_B\libGCC_kernel.a(GCC_Drv_Sha1_Functions_Asm.o)
 .debug_aranges
                0x00001458       0x20 ../kernel/lib/CPU_B\libGCC_kernel.a(GCC_Drv_Can_Isr_Asm.o)
 .debug_aranges
                0x00001478       0x20 ../kernel/lib/CPU_B\libGCC_kernel.a(GCC_Drv_Fec_Isr_Asm.o)
 .debug_aranges
                0x00001498       0x20 ../kernel/lib/CPU_B\libGCC_kernel.a(GCC_Drv_Timer_Isr_Asm.o)
 .debug_aranges
                0x000014b8       0x20 ../kernel/lib/CPU_B\libGCC_kernel.a(GCC_Drv_Uart_Vote_Isr_Asm.o)
 .debug_aranges
                0x000014d8       0x28 ../kernel/lib/CPU_B\libGCC_kernel.a(GCC_VCU_Exception_Asm.o)
 .debug_aranges
                0x00001500       0x28 ../kernel/lib/CPU_B\libGCC_kernel.a(GCC_mcf5xxx_lo.o)
 .debug_aranges
                0x00001528       0x20 ../kernel/lib/CPU_B\libGCC_kernel.a(GCC_entry.o)
 .debug_aranges
                0x00001548       0x28 ../kernel/lib/CPU_B\libGCC_kernel.a(GCC_os_cpu_a.o)
 .debug_aranges
                0x00001570       0x20 ../kernel/lib/CPU_B\libGCC_kernel.a(GCC_BIT.o)
 .debug_aranges
                0x00001590       0x20 ../kernel/lib/CPU_B\libGCC_kernel.a(GCC_CONF_autho.o)
 .debug_aranges
                0x000015b0       0x20 ../kernel/lib/CPU_B\libGCC_kernel.a(GCC_CONF_dataset.o)
 .debug_aranges
                0x000015d0       0x20 ../kernel/lib/CPU_B\libGCC_kernel.a(GCC_Schedule_gentask.o)
 .debug_aranges
                0x000015f0       0x20 ../kernel/lib/CPU_B\libGCC_kernel.a(GCC_Drv_Can_Isr.o)
 .debug_aranges
                0x00001610       0x50 ../kernel/lib/CPU_B\libGCC_kernel.a(GCC_os_hooks.o)
 .debug_aranges
                0x00001660       0x20 ../kernel/lib/CPU_B\libGCC_kernel.a(GCC_idletaskcreate.o)
 .debug_aranges
                0x00001680       0x20 ../kernel/lib/CPU_B\libGCC_kernel.a(GCC_event.o)
 .debug_aranges
                0x000016a0       0x20 ../kernel/lib/CPU_B\libGCC_kernel.a(GCC_mempart.o)
 .debug_aranges
                0x000016c0       0x20 ../kernel/lib/CPU_B\libGCC_kernel.a(GCC_message_queue.o)
 .debug_aranges
                0x000016e0       0x20 ../kernel/lib/CPU_B\libGCC_kernel.a(GCC_mutex.o)
 .debug_aranges
                0x00001700       0x20 ../kernel/lib/CPU_B\libGCC_kernel.a(GCC_GM_PROSTACK_Arp.o)
 .debug_aranges
                0x00001720       0x20 ../kernel/lib/CPU_B\libGCC_kernel.a(GCC_GM_PROSTACK_Can.o)
 .debug_aranges
                0x00001740       0x20 ../kernel/lib/CPU_B\libGCC_kernel.a(GCC_GM_PROSTACK_Cop.o)
 .debug_aranges
                0x00001760       0x20 ../kernel/lib/CPU_B\libGCC_kernel.a(GCC_GM_PROSTACK_Eth.o)
 .debug_aranges
                0x00001780       0x20 ../kernel/lib/CPU_B\libGCC_kernel.a(GCC_GM_PROSTACK_Icmp.o)
 .debug_aranges
                0x000017a0       0x20 ../kernel/lib/CPU_B\libGCC_kernel.a(GCC_CONF_check.o)

.debug_line     0x00000000    0x26b8a
 .debug_line    0x00000000      0x44c ./out/CPU_B/GCC_guest.o
 .debug_line    0x0000044c      0x12d ./out/CPU_B/GCC_guest_fuse.o
 .debug_line    0x00000579      0x179 ./out/CPU_B/GCC_guest_isolation.o
 .debug_line    0x000006f2      0x2c1 ./out/CPU_B/GCC_guest_outputport.o
 .debug_line    0x000009b3      0x632 ./out/CPU_B/GCC_guest_public.o
 .debug_line    0x00000fe5      0x2c2 ./out/CPU_B/GCC_guest_readback.o
 .debug_line    0x000012a7       0x55 ../kernel/lib/CPU_B\libGCC_kernel.a(GCC_VCU_Start_Asm.o)
 .debug_line    0x000012fc      0x771 ../kernel/lib/CPU_B\libGCC_kernel.a(GCC_mstep.o)
 .debug_line    0x00001a6d      0x4a3 ../kernel/lib/CPU_B\libGCC_kernel.a(GCC_BIT_fuse.o)
 .debug_line    0x00001f10      0x54c ../kernel/lib/CPU_B\libGCC_kernel.a(GCC_BIT_survey.o)
 .debug_line    0x0000245c      0x631 ../kernel/lib/CPU_B\libGCC_kernel.a(GCC_can.o)
 .debug_line    0x00002a8d      0x408 ../kernel/lib/CPU_B\libGCC_kernel.a(GCC_can_ard.o)
 .debug_line    0x00002e95      0x2c0 ../kernel/lib/CPU_B\libGCC_kernel.a(GCC_can_config.o)
 .debug_line    0x00003155      0x1ad ../kernel/lib/CPU_B\libGCC_kernel.a(GCC_can_emcy.o)
 .debug_line    0x00003302      0x58c ../kernel/lib/CPU_B\libGCC_kernel.a(GCC_can_od.o)
 .debug_line    0x0000388e      0x189 ../kernel/lib/CPU_B\libGCC_kernel.a(GCC_can_odplug.o)
 .debug_line    0x00003a17      0x703 ../kernel/lib/CPU_B\libGCC_kernel.a(GCC_can_open.o)
 .debug_line    0x0000411a      0x313 ../kernel/lib/CPU_B\libGCC_kernel.a(GCC_can_saddle.o)
 .debug_line    0x0000442d      0x5a3 ../kernel/lib/CPU_B\libGCC_kernel.a(GCC_can_safety.o)
 .debug_line    0x000049d0      0xf93 ../kernel/lib/CPU_B\libGCC_kernel.a(GCC_can_sdo.o)
 .debug_line    0x00005963      0x28d ../kernel/lib/CPU_B\libGCC_kernel.a(GCC_can_time.o)
 .debug_line    0x00005bf0      0x298 ../kernel/lib/CPU_B\libGCC_kernel.a(GCC_CONF.o)
 .debug_line    0x00005e88      0xada ../kernel/lib/CPU_B\libGCC_kernel.a(GCC_CONF_local.o)
 .debug_line    0x00006962      0x61e ../kernel/lib/CPU_B\libGCC_kernel.a(GCC_CONF_src.o)
 .debug_line    0x00006f80      0x241 ../kernel/lib/CPU_B\libGCC_kernel.a(GCC_FCODE.o)
 .debug_line    0x000071c1      0xdce ../kernel/lib/CPU_B\libGCC_kernel.a(GCC_FILESYS.o)
 .debug_line    0x00007f8f      0x207 ../kernel/lib/CPU_B\libGCC_kernel.a(GCC_FILESYS_int.o)
 .debug_line    0x00008196      0x6f8 ../kernel/lib/CPU_B\libGCC_kernel.a(GCC_FILESYS_tftp.o)
 .debug_line    0x0000888e      0x186 ../kernel/lib/CPU_B\libGCC_kernel.a(GCC_Flash.o)
 .debug_line    0x00008a14      0x44f ../kernel/lib/CPU_B\libGCC_kernel.a(GCC_Flash_Async.o)
 .debug_line    0x00008e63      0x289 ../kernel/lib/CPU_B\libGCC_kernel.a(GCC_Flash_Direct.o)
 .debug_line    0x000090ec      0x420 ../kernel/lib/CPU_B\libGCC_kernel.a(GCC_gdf.o)
 .debug_line    0x0000950c      0x20e ../kernel/lib/CPU_B\libGCC_kernel.a(GCC_gdf_dump_tools.o)
 .debug_line    0x0000971a      0x1a9 ../kernel/lib/CPU_B\libGCC_kernel.a(GCC_MATH.o)
 .debug_line    0x000098c3      0x8a5 ../kernel/lib/CPU_B\libGCC_kernel.a(GCC_osw.o)
 .debug_line    0x0000a168      0x52a ../kernel/lib/CPU_B\libGCC_kernel.a(GCC_print.o)
 .debug_line    0x0000a692      0x33b ../kernel/lib/CPU_B\libGCC_kernel.a(GCC_RECORD.o)
 .debug_line    0x0000a9cd      0x42d ../kernel/lib/CPU_B\libGCC_kernel.a(GCC_RECORD_evt.o)
 .debug_line    0x0000adfa      0x6aa ../kernel/lib/CPU_B\libGCC_kernel.a(GCC_RECORD_pda.o)
 .debug_line    0x0000b4a4      0x486 ../kernel/lib/CPU_B\libGCC_kernel.a(GCC_RECORD_sector.o)
 .debug_line    0x0000b92a      0x459 ../kernel/lib/CPU_B\libGCC_kernel.a(GCC_RECORD_stat.o)
 .debug_line    0x0000bd83      0x2ae ../kernel/lib/CPU_B\libGCC_kernel.a(GCC_RECORD_utl.o)
 .debug_line    0x0000c031      0x575 ../kernel/lib/CPU_B\libGCC_kernel.a(GCC_Schedule.o)
 .debug_line    0x0000c5a6      0x211 ../kernel/lib/CPU_B\libGCC_kernel.a(GCC_Schedule_gta.o)
 .debug_line    0x0000c7b7      0x646 ../kernel/lib/CPU_B\libGCC_kernel.a(GCC_Schedule_launcher.o)
 .debug_line    0x0000cdfd      0x450 ../kernel/lib/CPU_B\libGCC_kernel.a(GCC_Schedule_utl.o)
 .debug_line    0x0000d24d      0x10a ../kernel/lib/CPU_B\libGCC_kernel.a(GCC_VCU_Start.o)
 .debug_line    0x0000d357      0xa10 ../kernel/lib/CPU_B\libGCC_kernel.a(GCC_SDB.o)
 .debug_line    0x0000dd67      0x346 ../kernel/lib/CPU_B\libGCC_kernel.a(GCC_SDB_api.o)
 .debug_line    0x0000e0ad      0x1d6 ../kernel/lib/CPU_B\libGCC_kernel.a(GCC_SDB_intercpu.o)
 .debug_line    0x0000e283      0x402 ../kernel/lib/CPU_B\libGCC_kernel.a(GCC_SDB_ioplug.o)
 .debug_line    0x0000e685      0x3aa ../kernel/lib/CPU_B\libGCC_kernel.a(GCC_SDB_update.o)
 .debug_line    0x0000ea2f      0x2d2 ../kernel/lib/CPU_B\libGCC_kernel.a(GCC_SDB_updatelist.o)
 .debug_line    0x0000ed01      0x532 ../kernel/lib/CPU_B\libGCC_kernel.a(GCC_std.o)
 .debug_line    0x0000f233      0x485 ../kernel/lib/CPU_B\libGCC_kernel.a(GCC_VOTE.o)
 .debug_line    0x0000f6b8      0x5ad ../kernel/lib/CPU_B\libGCC_kernel.a(GCC_VOTE_com.o)
 .debug_line    0x0000fc65      0x2b5 ../kernel/lib/CPU_B\libGCC_kernel.a(GCC_VOTE_tsk.o)
 .debug_line    0x0000ff1a      0x3e7 ../kernel/lib/CPU_B\libGCC_kernel.a(GCC_wdg.o)
 .debug_line    0x00010301      0xf69 ../kernel/lib/CPU_B\libGCC_kernel.a(GCC_viv.o)
 .debug_line    0x0001126a      0x148 ../kernel/lib/CPU_B\libGCC_kernel.a(GCC_Drv_CAU_Lib.o)
 .debug_line    0x000113b2      0x27c ../kernel/lib/CPU_B\libGCC_kernel.a(GCC_Drv_BID_Lib.o)
 .debug_line    0x0001162e      0x424 ../kernel/lib/CPU_B\libGCC_kernel.a(GCC_Drv_Boot_Module.o)
 .debug_line    0x00011a52      0x2ab ../kernel/lib/CPU_B\libGCC_kernel.a(GCC_Drv_Boot_Utils.o)
 .debug_line    0x00011cfd       0xdd ../kernel/lib/CPU_B\libGCC_kernel.a(GCC_Drv_Cache_Lib.o)
 .debug_line    0x00011dda      0xa25 ../kernel/lib/CPU_B\libGCC_kernel.a(GCC_Drv_Can_Lib.o)
 .debug_line    0x000127ff      0x709 ../kernel/lib/CPU_B\libGCC_kernel.a(GCC_Drv_Fec_Lib.o)
 .debug_line    0x00012f08      0x320 ../kernel/lib/CPU_B\libGCC_kernel.a(GCC_Drv_Flash_Parallel_Lib.o)
 .debug_line    0x00013228      0x364 ../kernel/lib/CPU_B\libGCC_kernel.a(GCC_Drv_Flash_Spi_Lib.o)
 .debug_line    0x0001358c      0x233 ../kernel/lib/CPU_B\libGCC_kernel.a(GCC_Drv_Gpio.o)
 .debug_line    0x000137bf       0xb5 ../kernel/lib/CPU_B\libGCC_kernel.a(GCC_Drv_MMU_Lib.o)
 .debug_line    0x00013874       0xa6 ../kernel/lib/CPU_B\libGCC_kernel.a(GCC_Drv_SDRAM_Lib.o)
 .debug_line    0x0001391a      0x269 ../kernel/lib/CPU_B\libGCC_kernel.a(GCC_Drv_Spi_Lib.o)
 .debug_line    0x00013b83      0x1c4 ../kernel/lib/CPU_B\libGCC_kernel.a(GCC_Drv_Timer_Lib.o)
 .debug_line    0x00013d47      0x6d9 ../kernel/lib/CPU_B\libGCC_kernel.a(GCC_Drv_Uart_Vote.o)
 .debug_line    0x00014420      0x108 ../kernel/lib/CPU_B\libGCC_kernel.a(GCC_bsp.o)
 .debug_line    0x00014528      0x1fd ../kernel/lib/CPU_B\libGCC_kernel.a(GCC_exceptions.o)
 .debug_line    0x00014725      0x1b6 ../kernel/lib/CPU_B\libGCC_kernel.a(GCC_os_core.o)
 .debug_line    0x000148db      0x247 ../kernel/lib/CPU_B\libGCC_kernel.a(GCC_os_flag.o)
 .debug_line    0x00014b22      0x2ab ../kernel/lib/CPU_B\libGCC_kernel.a(GCC_os_mem.o)
 .debug_line    0x00014dcd      0x275 ../kernel/lib/CPU_B\libGCC_kernel.a(GCC_os_q.o)
 .debug_line    0x00015042      0x22b ../kernel/lib/CPU_B\libGCC_kernel.a(GCC_os_sem.o)
 .debug_line    0x0001526d      0x314 ../kernel/lib/CPU_B\libGCC_kernel.a(GCC_os_task.o)
 .debug_line    0x00015581      0x19e ../kernel/lib/CPU_B\libGCC_kernel.a(GCC_os_time.o)
 .debug_line    0x0001571f       0x8d ../kernel/lib/CPU_B\libGCC_kernel.a(GCC_core.o)
 .debug_line    0x000157ac      0x1bf ../kernel/lib/CPU_B\libGCC_kernel.a(GCC_coretask.o)
 .debug_line    0x0001596b      0x30c ../kernel/lib/CPU_B\libGCC_kernel.a(GCC_event_group_create.o)
 .debug_line    0x00015c77      0x2fd ../kernel/lib/CPU_B\libGCC_kernel.a(GCC_event_group_delete.o)
 .debug_line    0x00015f74      0x34a ../kernel/lib/CPU_B\libGCC_kernel.a(GCC_event_group_delete_force.o)
 .debug_line    0x000162be      0x2d9 ../kernel/lib/CPU_B\libGCC_kernel.a(GCC_event_group_info.o)
 .debug_line    0x00016597      0x36e ../kernel/lib/CPU_B\libGCC_kernel.a(GCC_event_notify.o)
 .debug_line    0x00016905      0x277 ../kernel/lib/CPU_B\libGCC_kernel.a(GCC_event_ready_get.o)
 .debug_line    0x00016b7c      0x2fe ../kernel/lib/CPU_B\libGCC_kernel.a(GCC_event_try_wait.o)
 .debug_line    0x00016e7a      0x370 ../kernel/lib/CPU_B\libGCC_kernel.a(GCC_event_wait.o)
 .debug_line    0x000171ea       0xeb ../kernel/lib/CPU_B\libGCC_kernel.a(GCC_fatal_error_raise.o)
 .debug_line    0x000172d5       0xfc ../kernel/lib/CPU_B\libGCC_kernel.a(GCC_irq_resume.o)
 .debug_line    0x000173d1       0xfe ../kernel/lib/CPU_B\libGCC_kernel.a(GCC_irq_suspend.o)
 .debug_line    0x000174cf      0x1d8 ../kernel/lib/CPU_B\libGCC_kernel.a(GCC_isr.o)
 .debug_line    0x000176a7      0x228 ../kernel/lib/CPU_B\libGCC_kernel.a(GCC_isr_enter.o)
 .debug_line    0x000178cf      0x24d ../kernel/lib/CPU_B\libGCC_kernel.a(GCC_isr_exit.o)
 .debug_line    0x00017b1c       0xa9 ../kernel/lib/CPU_B\libGCC_kernel.a(GCC_isr_level_get.o)
 .debug_line    0x00017bc5      0x2c9 ../kernel/lib/CPU_B\libGCC_kernel.a(GCC_mempart_alloc.o)
 .debug_line    0x00017e8e      0x328 ../kernel/lib/CPU_B\libGCC_kernel.a(GCC_mempart_create.o)
 .debug_line    0x000181b6      0x2c4 ../kernel/lib/CPU_B\libGCC_kernel.a(GCC_mempart_free.o)
 .debug_line    0x0001847a      0x2d1 ../kernel/lib/CPU_B\libGCC_kernel.a(GCC_mempart_info.o)
 .debug_line    0x0001874b      0x347 ../kernel/lib/CPU_B\libGCC_kernel.a(GCC_message_queue_broadcast.o)
 .debug_line    0x00018a92      0x32d ../kernel/lib/CPU_B\libGCC_kernel.a(GCC_message_queue_create.o)
 .debug_line    0x00018dbf      0x302 ../kernel/lib/CPU_B\libGCC_kernel.a(GCC_message_queue_delete.o)
 .debug_line    0x000190c1      0x34f ../kernel/lib/CPU_B\libGCC_kernel.a(GCC_message_queue_delete_force.o)
 .debug_line    0x00019410      0x2d2 ../kernel/lib/CPU_B\libGCC_kernel.a(GCC_message_queue_flush.o)
 .debug_line    0x000196e2      0x2e8 ../kernel/lib/CPU_B\libGCC_kernel.a(GCC_message_queue_info.o)
 .debug_line    0x000199ca      0x33b ../kernel/lib/CPU_B\libGCC_kernel.a(GCC_message_queue_receive.o)
 .debug_line    0x00019d05      0x32e ../kernel/lib/CPU_B\libGCC_kernel.a(GCC_message_queue_send.o)
 .debug_line    0x0001a033      0x334 ../kernel/lib/CPU_B\libGCC_kernel.a(GCC_message_queue_send_first.o)
 .debug_line    0x0001a367      0x2e2 ../kernel/lib/CPU_B\libGCC_kernel.a(GCC_message_queue_try_receive.o)
 .debug_line    0x0001a649       0xae ../kernel/lib/CPU_B\libGCC_kernel.a(GCC_os_init.o)
 .debug_line    0x0001a6f7       0xaf ../kernel/lib/CPU_B\libGCC_kernel.a(GCC_os_safety_critical.o)
 .debug_line    0x0001a7a6      0x1fc ../kernel/lib/CPU_B\libGCC_kernel.a(GCC_os_shutdown.o)
 .debug_line    0x0001a9a2      0x1fe ../kernel/lib/CPU_B\libGCC_kernel.a(GCC_os_start.o)
 .debug_line    0x0001aba0      0x21c ../kernel/lib/CPU_B\libGCC_kernel.a(GCC_sched_lock.o)
 .debug_line    0x0001adbc      0x248 ../kernel/lib/CPU_B\libGCC_kernel.a(GCC_sched_unlock.o)
 .debug_line    0x0001b004      0x270 ../kernel/lib/CPU_B\libGCC_kernel.a(GCC_semaphore.o)
 .debug_line    0x0001b274      0x2d3 ../kernel/lib/CPU_B\libGCC_kernel.a(GCC_semaphore_count_get.o)
 .debug_line    0x0001b547      0x2df ../kernel/lib/CPU_B\libGCC_kernel.a(GCC_semaphore_count_set.o)
 .debug_line    0x0001b826      0x316 ../kernel/lib/CPU_B\libGCC_kernel.a(GCC_semaphore_create.o)
 .debug_line    0x0001bb3c      0x2ff ../kernel/lib/CPU_B\libGCC_kernel.a(GCC_semaphore_delete.o)
 .debug_line    0x0001be3b      0x34c ../kernel/lib/CPU_B\libGCC_kernel.a(GCC_semaphore_delete_force.o)
 .debug_line    0x0001c187      0x326 ../kernel/lib/CPU_B\libGCC_kernel.a(GCC_semaphore_give.o)
 .debug_line    0x0001c4ad      0x327 ../kernel/lib/CPU_B\libGCC_kernel.a(GCC_semaphore_take.o)
 .debug_line    0x0001c7d4      0x2d8 ../kernel/lib/CPU_B\libGCC_kernel.a(GCC_semaphore_try_take.o)
 .debug_line    0x0001caac      0x22f ../kernel/lib/CPU_B\libGCC_kernel.a(GCC_sys_tick.o)
 .debug_line    0x0001ccdb      0x26d ../kernel/lib/CPU_B\libGCC_kernel.a(GCC_sys_tick_get.o)
 .debug_line    0x0001cf48      0x2e5 ../kernel/lib/CPU_B\libGCC_kernel.a(GCC_sys_tick_increment.o)
 .debug_line    0x0001d22d      0x26c ../kernel/lib/CPU_B\libGCC_kernel.a(GCC_sys_tick_set.o)
 .debug_line    0x0001d499      0x31d ../kernel/lib/CPU_B\libGCC_kernel.a(GCC_task.o)
 .debug_line    0x0001d7b6      0x2c1 ../kernel/lib/CPU_B\libGCC_kernel.a(GCC_task_check_idle_stack.o)
 .debug_line    0x0001da77      0x2e3 ../kernel/lib/CPU_B\libGCC_kernel.a(GCC_task_check_stack.o)
 .debug_line    0x0001dd5a      0x389 ../kernel/lib/CPU_B\libGCC_kernel.a(GCC_task_create.o)
 .debug_line    0x0001e0e3      0x2a3 ../kernel/lib/CPU_B\libGCC_kernel.a(GCC_task_delay.o)
 .debug_line    0x0001e386      0x300 ../kernel/lib/CPU_B\libGCC_kernel.a(GCC_task_delay_cancel.o)
 .debug_line    0x0001e686      0x329 ../kernel/lib/CPU_B\libGCC_kernel.a(GCC_task_delete.o)
 .debug_line    0x0001e9af      0x2ae ../kernel/lib/CPU_B\libGCC_kernel.a(GCC_task_get_by_priority.o)
 .debug_line    0x0001ec5d      0x2bc ../kernel/lib/CPU_B\libGCC_kernel.a(GCC_task_get_priority.o)
 .debug_line    0x0001ef19      0x2c2 ../kernel/lib/CPU_B\libGCC_kernel.a(GCC_task_info.o)
 .debug_line    0x0001f1db      0x2ec ../kernel/lib/CPU_B\libGCC_kernel.a(GCC_task_resume.o)
 .debug_line    0x0001f4c7      0x32b ../kernel/lib/CPU_B\libGCC_kernel.a(GCC_task_set_priority.o)
 .debug_line    0x0001f7f2      0x26c ../kernel/lib/CPU_B\libGCC_kernel.a(GCC_task_statis_init.o)
 .debug_line    0x0001fa5e      0x2ed ../kernel/lib/CPU_B\libGCC_kernel.a(GCC_task_suspend.o)
 .debug_line    0x0001fd4b      0x333 ../kernel/lib/CPU_B\libGCC_kernel.a(GCC_os_cpu_c.o)
 .debug_line    0x0002007e      0x7cc ../kernel/lib/CPU_B\libGCC_kernel.a(GCC_GM_PROSTACK_Ip.o)
 .debug_line    0x0002084a      0x98e ../kernel/lib/CPU_B\libGCC_kernel.a(GCC_GM_PROSTACK_Ip_tsk.o)
 .debug_line    0x000211d8      0x642 ../kernel/lib/CPU_B\libGCC_kernel.a(GCC_GM_PROSTACK_Udp.o)
 .debug_line    0x0002181a      0x258 ../kernel/lib/CPU_B\libGCC_kernel.a(GCC_GM_PROSTACK_Vote.o)
 .debug_line    0x00021a72      0x8f6 ../kernel/lib/CPU_B\libGCC_kernel.a(GCC_GM_Tftp.o)
 .debug_line    0x00022368       0x53 ../kernel/lib/CPU_B\libGCC_kernel.a(GCC_mstep_isr.o)
 .debug_line    0x000223bb      0x150 ../kernel/lib/CPU_B\libGCC_kernel.a(GCC_Drv_Sha1_Functions_Asm.o)
 .debug_line    0x0002250b       0x91 ../kernel/lib/CPU_B\libGCC_kernel.a(GCC_Drv_Can_Isr_Asm.o)
 .debug_line    0x0002259c       0x73 ../kernel/lib/CPU_B\libGCC_kernel.a(GCC_Drv_Fec_Isr_Asm.o)
 .debug_line    0x0002260f       0x99 ../kernel/lib/CPU_B\libGCC_kernel.a(GCC_Drv_Timer_Isr_Asm.o)
 .debug_line    0x000226a8       0x86 ../kernel/lib/CPU_B\libGCC_kernel.a(GCC_Drv_Uart_Vote_Isr_Asm.o)
 .debug_line    0x0002272e       0x73 ../kernel/lib/CPU_B\libGCC_kernel.a(GCC_VCU_Exception_Asm.o)
 .debug_line    0x000227a1       0x7c ../kernel/lib/CPU_B\libGCC_kernel.a(GCC_mcf5xxx_lo.o)
 .debug_line    0x0002281d       0x7c ../kernel/lib/CPU_B\libGCC_kernel.a(GCC_entry.o)
 .debug_line    0x00022899       0x79 ../kernel/lib/CPU_B\libGCC_kernel.a(GCC_os_cpu_a.o)
 .debug_line    0x00022912      0x846 ../kernel/lib/CPU_B\libGCC_kernel.a(GCC_BIT.o)
 .debug_line    0x00023158      0xb67 ../kernel/lib/CPU_B\libGCC_kernel.a(GCC_CONF_autho.o)
 .debug_line    0x00023cbf      0x7db ../kernel/lib/CPU_B\libGCC_kernel.a(GCC_CONF_dataset.o)
 .debug_line    0x0002449a      0x269 ../kernel/lib/CPU_B\libGCC_kernel.a(GCC_Schedule_gentask.o)
 .debug_line    0x00024703      0x175 ../kernel/lib/CPU_B\libGCC_kernel.a(GCC_Drv_Can_Isr.o)
 .debug_line    0x00024878      0x234 ../kernel/lib/CPU_B\libGCC_kernel.a(GCC_os_hooks.o)
 .debug_line    0x00024aac      0x2a1 ../kernel/lib/CPU_B\libGCC_kernel.a(GCC_idletaskcreate.o)
 .debug_line    0x00024d4d      0x26a ../kernel/lib/CPU_B\libGCC_kernel.a(GCC_event.o)
 .debug_line    0x00024fb7      0x261 ../kernel/lib/CPU_B\libGCC_kernel.a(GCC_mempart.o)
 .debug_line    0x00025218      0x273 ../kernel/lib/CPU_B\libGCC_kernel.a(GCC_message_queue.o)
 .debug_line    0x0002548b      0x269 ../kernel/lib/CPU_B\libGCC_kernel.a(GCC_mutex.o)
 .debug_line    0x000256f4      0x610 ../kernel/lib/CPU_B\libGCC_kernel.a(GCC_GM_PROSTACK_Arp.o)
 .debug_line    0x00025d04      0x26b ../kernel/lib/CPU_B\libGCC_kernel.a(GCC_GM_PROSTACK_Can.o)
 .debug_line    0x00025f6f      0x369 ../kernel/lib/CPU_B\libGCC_kernel.a(GCC_GM_PROSTACK_Cop.o)
 .debug_line    0x000262d8      0x3ca ../kernel/lib/CPU_B\libGCC_kernel.a(GCC_GM_PROSTACK_Eth.o)
 .debug_line    0x000266a2      0x246 ../kernel/lib/CPU_B\libGCC_kernel.a(GCC_GM_PROSTACK_Icmp.o)
 .debug_line    0x000268e8      0x2a2 ../kernel/lib/CPU_B\libGCC_kernel.a(GCC_CONF_check.o)

.debug_str      0x00000000    0x1fa9a
 .debug_str     0x00000000     0x1a5d ./out/CPU_B/GCC_guest.o
                               0x1b45 (size before relaxing)
 .debug_str     0x00001a5d      0x12f ./out/CPU_B/GCC_guest_fuse.o
                                0x8da (size before relaxing)
 .debug_str     0x00001b8c      0x203 ./out/CPU_B/GCC_guest_isolation.o
                                0xac1 (size before relaxing)
 .debug_str     0x00001d8f      0x19b ./out/CPU_B/GCC_guest_outputport.o
                                0x8ed (size before relaxing)
 .debug_str     0x00001f2a      0x6fe ./out/CPU_B/GCC_guest_public.o
                               0x1198 (size before relaxing)
 .debug_str     0x00002628       0xff ./out/CPU_B/GCC_guest_readback.o
                                0xb43 (size before relaxing)
 .debug_str     0x00002727     0x1e36 ../kernel/lib/CPU_B\libGCC_kernel.a(GCC_mstep.o)
                               0x2770 (size before relaxing)
 .debug_str     0x0000455d      0x54c ../kernel/lib/CPU_B\libGCC_kernel.a(GCC_BIT_fuse.o)
                                0xdfd (size before relaxing)
 .debug_str     0x00004aa9      0xb89 ../kernel/lib/CPU_B\libGCC_kernel.a(GCC_BIT_survey.o)
                               0x1300 (size before relaxing)
 .debug_str     0x00005632      0xd11 ../kernel/lib/CPU_B\libGCC_kernel.a(GCC_can.o)
                               0x1da3 (size before relaxing)
 .debug_str     0x00006343      0x43c ../kernel/lib/CPU_B\libGCC_kernel.a(GCC_can_ard.o)
                               0x1224 (size before relaxing)
 .debug_str     0x0000677f      0x3c5 ../kernel/lib/CPU_B\libGCC_kernel.a(GCC_can_config.o)
                               0x1028 (size before relaxing)
 .debug_str     0x00006b44       0xda ../kernel/lib/CPU_B\libGCC_kernel.a(GCC_can_emcy.o)
                                0x7bc (size before relaxing)
 .debug_str     0x00006c1e      0xbb8 ../kernel/lib/CPU_B\libGCC_kernel.a(GCC_can_od.o)
                               0x1a8c (size before relaxing)
 .debug_str     0x000077d6       0xb5 ../kernel/lib/CPU_B\libGCC_kernel.a(GCC_can_odplug.o)
                                0x8ca (size before relaxing)
 .debug_str     0x0000788b      0x8bd ../kernel/lib/CPU_B\libGCC_kernel.a(GCC_can_open.o)
                               0x1519 (size before relaxing)
 .debug_str     0x00008148      0x22e ../kernel/lib/CPU_B\libGCC_kernel.a(GCC_can_saddle.o)
                                0x8ab (size before relaxing)
 .debug_str     0x00008376      0x5fb ../kernel/lib/CPU_B\libGCC_kernel.a(GCC_can_safety.o)
                               0x1a78 (size before relaxing)
 .debug_str     0x00008971      0xaf7 ../kernel/lib/CPU_B\libGCC_kernel.a(GCC_can_sdo.o)
                               0x15cf (size before relaxing)
 .debug_str     0x00009468      0x2b5 ../kernel/lib/CPU_B\libGCC_kernel.a(GCC_can_time.o)
                                0x96b (size before relaxing)
 .debug_str     0x0000971d      0x466 ../kernel/lib/CPU_B\libGCC_kernel.a(GCC_CONF.o)
                               0x136f (size before relaxing)
 .debug_str     0x00009b83     0x1f8e ../kernel/lib/CPU_B\libGCC_kernel.a(GCC_CONF_local.o)
                               0x34b6 (size before relaxing)
 .debug_str     0x0000bb11      0xc3c ../kernel/lib/CPU_B\libGCC_kernel.a(GCC_CONF_src.o)
                               0x2022 (size before relaxing)
 .debug_str     0x0000c74d      0x15c ../kernel/lib/CPU_B\libGCC_kernel.a(GCC_FCODE.o)
                                0x872 (size before relaxing)
 .debug_str     0x0000c8a9      0xc26 ../kernel/lib/CPU_B\libGCC_kernel.a(GCC_FILESYS.o)
                               0x22d2 (size before relaxing)
 .debug_str     0x0000d4cf       0xd1 ../kernel/lib/CPU_B\libGCC_kernel.a(GCC_FILESYS_int.o)
                               0x147a (size before relaxing)
 .debug_str     0x0000d5a0      0x75a ../kernel/lib/CPU_B\libGCC_kernel.a(GCC_FILESYS_tftp.o)
                               0x1ddb (size before relaxing)
 .debug_str     0x0000dcfa      0x2bc ../kernel/lib/CPU_B\libGCC_kernel.a(GCC_Flash.o)
                                0xa2a (size before relaxing)
 .debug_str     0x0000dfb6      0x694 ../kernel/lib/CPU_B\libGCC_kernel.a(GCC_Flash_Async.o)
                                0xf81 (size before relaxing)
 .debug_str     0x0000e64a      0x3d6 ../kernel/lib/CPU_B\libGCC_kernel.a(GCC_Flash_Direct.o)
                                0x854 (size before relaxing)
 .debug_str     0x0000ea20      0x29d ../kernel/lib/CPU_B\libGCC_kernel.a(GCC_gdf.o)
                                0xd17 (size before relaxing)
 .debug_str     0x0000ecbd      0x290 ../kernel/lib/CPU_B\libGCC_kernel.a(GCC_gdf_dump_tools.o)
                                0xad6 (size before relaxing)
 .debug_str     0x0000ef4d      0x138 ../kernel/lib/CPU_B\libGCC_kernel.a(GCC_MATH.o)
                                0x322 (size before relaxing)
 .debug_str     0x0000f085      0x554 ../kernel/lib/CPU_B\libGCC_kernel.a(GCC_osw.o)
                               0x1273 (size before relaxing)
 .debug_str     0x0000f5d9      0x3a5 ../kernel/lib/CPU_B\libGCC_kernel.a(GCC_print.o)
                                0xfd6 (size before relaxing)
 .debug_str     0x0000f97e      0x25b ../kernel/lib/CPU_B\libGCC_kernel.a(GCC_RECORD.o)
                                0xa6d (size before relaxing)
 .debug_str     0x0000fbd9      0x3d2 ../kernel/lib/CPU_B\libGCC_kernel.a(GCC_RECORD_evt.o)
                                0xc04 (size before relaxing)
 .debug_str     0x0000ffab      0x666 ../kernel/lib/CPU_B\libGCC_kernel.a(GCC_RECORD_pda.o)
                                0xe8d (size before relaxing)
 .debug_str     0x00010611      0x39b ../kernel/lib/CPU_B\libGCC_kernel.a(GCC_RECORD_sector.o)
                                0xbc2 (size before relaxing)
 .debug_str     0x000109ac      0x300 ../kernel/lib/CPU_B\libGCC_kernel.a(GCC_RECORD_stat.o)
                               0x11b9 (size before relaxing)
 .debug_str     0x00010cac      0x19a ../kernel/lib/CPU_B\libGCC_kernel.a(GCC_RECORD_utl.o)
                                0x929 (size before relaxing)
 .debug_str     0x00010e46      0x745 ../kernel/lib/CPU_B\libGCC_kernel.a(GCC_Schedule.o)
                               0x2397 (size before relaxing)
 .debug_str     0x0001158b      0x145 ../kernel/lib/CPU_B\libGCC_kernel.a(GCC_Schedule_gta.o)
                                0x774 (size before relaxing)
 .debug_str     0x000116d0      0x5e7 ../kernel/lib/CPU_B\libGCC_kernel.a(GCC_Schedule_launcher.o)
                               0x13ae (size before relaxing)
 .debug_str     0x00011cb7      0xb87 ../kernel/lib/CPU_B\libGCC_kernel.a(GCC_Schedule_utl.o)
                               0x1a94 (size before relaxing)
 .debug_str     0x0001283e       0x3d ../kernel/lib/CPU_B\libGCC_kernel.a(GCC_VCU_Start.o)
                                0x619 (size before relaxing)
 .debug_str     0x0001287b     0x102a ../kernel/lib/CPU_B\libGCC_kernel.a(GCC_SDB.o)
                               0x222e (size before relaxing)
 .debug_str     0x000138a5      0x26f ../kernel/lib/CPU_B\libGCC_kernel.a(GCC_SDB_api.o)
                               0x10f0 (size before relaxing)
 .debug_str     0x00013b14      0x1da ../kernel/lib/CPU_B\libGCC_kernel.a(GCC_SDB_intercpu.o)
                                0xa07 (size before relaxing)
 .debug_str     0x00013cee      0x387 ../kernel/lib/CPU_B\libGCC_kernel.a(GCC_SDB_ioplug.o)
                               0x1077 (size before relaxing)
 .debug_str     0x00014075      0x2f6 ../kernel/lib/CPU_B\libGCC_kernel.a(GCC_SDB_update.o)
                               0x11a3 (size before relaxing)
 .debug_str     0x0001436b      0x1fb ../kernel/lib/CPU_B\libGCC_kernel.a(GCC_SDB_updatelist.o)
                                0xa17 (size before relaxing)
 .debug_str     0x00014566      0x281 ../kernel/lib/CPU_B\libGCC_kernel.a(GCC_std.o)
                                0x902 (size before relaxing)
 .debug_str     0x000147e7      0x47d ../kernel/lib/CPU_B\libGCC_kernel.a(GCC_VOTE.o)
                                0xe37 (size before relaxing)
 .debug_str     0x00014c64      0x4d1 ../kernel/lib/CPU_B\libGCC_kernel.a(GCC_VOTE_com.o)
                               0x1733 (size before relaxing)
 .debug_str     0x00015135      0x285 ../kernel/lib/CPU_B\libGCC_kernel.a(GCC_VOTE_tsk.o)
                                0xf96 (size before relaxing)
 .debug_str     0x000153ba      0x171 ../kernel/lib/CPU_B\libGCC_kernel.a(GCC_wdg.o)
                               0x145f (size before relaxing)
 .debug_str     0x0001552b      0x94e ../kernel/lib/CPU_B\libGCC_kernel.a(GCC_viv.o)
                               0x19e5 (size before relaxing)
 .debug_str     0x00015e79       0xdd ../kernel/lib/CPU_B\libGCC_kernel.a(GCC_Drv_CAU_Lib.o)
                                0x6bb (size before relaxing)
 .debug_str     0x00015f56      0x14d ../kernel/lib/CPU_B\libGCC_kernel.a(GCC_Drv_BID_Lib.o)
                               0x156f (size before relaxing)
 .debug_str     0x000160a3      0x518 ../kernel/lib/CPU_B\libGCC_kernel.a(GCC_Drv_Boot_Module.o)
                                0xc70 (size before relaxing)
 .debug_str     0x000165bb      0x23c ../kernel/lib/CPU_B\libGCC_kernel.a(GCC_Drv_Boot_Utils.o)
                                0x849 (size before relaxing)
 .debug_str     0x000167f7       0x77 ../kernel/lib/CPU_B\libGCC_kernel.a(GCC_Drv_Cache_Lib.o)
                                0x604 (size before relaxing)
 .debug_str     0x0001686e      0x961 ../kernel/lib/CPU_B\libGCC_kernel.a(GCC_Drv_Can_Lib.o)
                               0x1bc6 (size before relaxing)
 .debug_str     0x000171cf      0x662 ../kernel/lib/CPU_B\libGCC_kernel.a(GCC_Drv_Fec_Lib.o)
                               0x169e (size before relaxing)
 .debug_str     0x00017831      0x45d ../kernel/lib/CPU_B\libGCC_kernel.a(GCC_Drv_Flash_Parallel_Lib.o)
                                0xec8 (size before relaxing)
 .debug_str     0x00017c8e      0x412 ../kernel/lib/CPU_B\libGCC_kernel.a(GCC_Drv_Flash_Spi_Lib.o)
                                0xa4a (size before relaxing)
 .debug_str     0x000180a0      0x276 ../kernel/lib/CPU_B\libGCC_kernel.a(GCC_Drv_Gpio.o)
                                0xc3d (size before relaxing)
 .debug_str     0x00018316       0x65 ../kernel/lib/CPU_B\libGCC_kernel.a(GCC_Drv_MMU_Lib.o)
                                0x1e1 (size before relaxing)
 .debug_str     0x0001837b       0x30 ../kernel/lib/CPU_B\libGCC_kernel.a(GCC_Drv_SDRAM_Lib.o)
                                0x175 (size before relaxing)
 .debug_str     0x000183ab      0x115 ../kernel/lib/CPU_B\libGCC_kernel.a(GCC_Drv_Spi_Lib.o)
                                0x77b (size before relaxing)
 .debug_str     0x000184c0      0x190 ../kernel/lib/CPU_B\libGCC_kernel.a(GCC_Drv_Timer_Lib.o)
                                0x73b (size before relaxing)
 .debug_str     0x00018650      0x32f ../kernel/lib/CPU_B\libGCC_kernel.a(GCC_Drv_Uart_Vote.o)
                                0xb84 (size before relaxing)
 .debug_str     0x0001897f       0x4c ../kernel/lib/CPU_B\libGCC_kernel.a(GCC_bsp.o)
                                0x5eb (size before relaxing)
 .debug_str     0x000189cb      0x139 ../kernel/lib/CPU_B\libGCC_kernel.a(GCC_exceptions.o)
                                0x719 (size before relaxing)
 .debug_str     0x00018b04       0xb5 ../kernel/lib/CPU_B\libGCC_kernel.a(GCC_os_core.o)
                                0x67b (size before relaxing)
 .debug_str     0x00018bb9       0xac ../kernel/lib/CPU_B\libGCC_kernel.a(GCC_os_flag.o)
                                0x6c2 (size before relaxing)
 .debug_str     0x00018c65       0xa7 ../kernel/lib/CPU_B\libGCC_kernel.a(GCC_os_mem.o)
                                0x730 (size before relaxing)
 .debug_str     0x00018d0c       0x8b ../kernel/lib/CPU_B\libGCC_kernel.a(GCC_os_q.o)
                                0x70f (size before relaxing)
 .debug_str     0x00018d97       0x72 ../kernel/lib/CPU_B\libGCC_kernel.a(GCC_os_sem.o)
                                0x6bc (size before relaxing)
 .debug_str     0x00018e09      0x285 ../kernel/lib/CPU_B\libGCC_kernel.a(GCC_os_task.o)
                                0x92c (size before relaxing)
 .debug_str     0x0001908e       0x54 ../kernel/lib/CPU_B\libGCC_kernel.a(GCC_os_time.o)
                                0x612 (size before relaxing)
 .debug_str     0x000190e2       0x2f ../kernel/lib/CPU_B\libGCC_kernel.a(GCC_core.o)
                                0x1d1 (size before relaxing)
 .debug_str     0x00019111       0x33 ../kernel/lib/CPU_B\libGCC_kernel.a(GCC_coretask.o)
                                0x4e6 (size before relaxing)
 .debug_str     0x00019144      0x171 ../kernel/lib/CPU_B\libGCC_kernel.a(GCC_event_group_create.o)
                                0x701 (size before relaxing)
 .debug_str     0x000192b5       0x93 ../kernel/lib/CPU_B\libGCC_kernel.a(GCC_event_group_delete.o)
                                0x6de (size before relaxing)
 .debug_str     0x00019348       0xdb ../kernel/lib/CPU_B\libGCC_kernel.a(GCC_event_group_delete_force.o)
                                0x766 (size before relaxing)
 .debug_str     0x00019423       0x4f ../kernel/lib/CPU_B\libGCC_kernel.a(GCC_event_group_info.o)
                                0x687 (size before relaxing)
 .debug_str     0x00019472       0x8a ../kernel/lib/CPU_B\libGCC_kernel.a(GCC_event_notify.o)
                                0x76d (size before relaxing)
 .debug_str     0x000194fc       0x4d ../kernel/lib/CPU_B\libGCC_kernel.a(GCC_event_ready_get.o)
                                0x621 (size before relaxing)
 .debug_str     0x00019549       0x62 ../kernel/lib/CPU_B\libGCC_kernel.a(GCC_event_try_wait.o)
                                0x6a7 (size before relaxing)
 .debug_str     0x000195ab       0x83 ../kernel/lib/CPU_B\libGCC_kernel.a(GCC_event_wait.o)
                                0x74c (size before relaxing)
 .debug_str     0x0001962e       0x5c ../kernel/lib/CPU_B\libGCC_kernel.a(GCC_fatal_error_raise.o)
                                0x18a (size before relaxing)
 .debug_str     0x0001968a       0x43 ../kernel/lib/CPU_B\libGCC_kernel.a(GCC_irq_resume.o)
                                0x104 (size before relaxing)
 .debug_str     0x000196cd       0x45 ../kernel/lib/CPU_B\libGCC_kernel.a(GCC_irq_suspend.o)
                                0x107 (size before relaxing)
 .debug_str     0x00019712       0x3f ../kernel/lib/CPU_B\libGCC_kernel.a(GCC_isr.o)
                                0x568 (size before relaxing)
 .debug_str     0x00019751       0x41 ../kernel/lib/CPU_B\libGCC_kernel.a(GCC_isr_enter.o)
                                0x5ae (size before relaxing)
 .debug_str     0x00019792       0x3f ../kernel/lib/CPU_B\libGCC_kernel.a(GCC_isr_exit.o)
                                0x5f2 (size before relaxing)
 .debug_str     0x000197d1       0x49 ../kernel/lib/CPU_B\libGCC_kernel.a(GCC_isr_level_get.o)
                                 0xfc (size before relaxing)
 .debug_str     0x0001981a       0xb6 ../kernel/lib/CPU_B\libGCC_kernel.a(GCC_mempart_alloc.o)
                                0x67f (size before relaxing)
 .debug_str     0x000198d0       0x73 ../kernel/lib/CPU_B\libGCC_kernel.a(GCC_mempart_create.o)
                                0x6f8 (size before relaxing)
 .debug_str     0x00019943       0x47 ../kernel/lib/CPU_B\libGCC_kernel.a(GCC_mempart_free.o)
                                0x678 (size before relaxing)
 .debug_str     0x0001998a       0x47 ../kernel/lib/CPU_B\libGCC_kernel.a(GCC_mempart_info.o)
                                0x6bb (size before relaxing)
 .debug_str     0x000199d1       0xf7 ../kernel/lib/CPU_B\libGCC_kernel.a(GCC_message_queue_broadcast.o)
                                0x739 (size before relaxing)
 .debug_str     0x00019ac8       0x82 ../kernel/lib/CPU_B\libGCC_kernel.a(GCC_message_queue_create.o)
                                0x6ef (size before relaxing)
 .debug_str     0x00019b4a       0x57 ../kernel/lib/CPU_B\libGCC_kernel.a(GCC_message_queue_delete.o)
                                0x6f8 (size before relaxing)
 .debug_str     0x00019ba1       0x63 ../kernel/lib/CPU_B\libGCC_kernel.a(GCC_message_queue_delete_force.o)
                                0x776 (size before relaxing)
 .debug_str     0x00019c04       0x55 ../kernel/lib/CPU_B\libGCC_kernel.a(GCC_message_queue_flush.o)
                                0x681 (size before relaxing)
 .debug_str     0x00019c59       0x53 ../kernel/lib/CPU_B\libGCC_kernel.a(GCC_message_queue_info.o)
                                0x6ab (size before relaxing)
 .debug_str     0x00019cac       0x7b ../kernel/lib/CPU_B\libGCC_kernel.a(GCC_message_queue_receive.o)
                                0x704 (size before relaxing)
 .debug_str     0x00019d27       0x53 ../kernel/lib/CPU_B\libGCC_kernel.a(GCC_message_queue_send.o)
                                0x713 (size before relaxing)
 .debug_str     0x00019d7a       0x5f ../kernel/lib/CPU_B\libGCC_kernel.a(GCC_message_queue_send_first.o)
                                0x71f (size before relaxing)
 .debug_str     0x00019dd9       0x61 ../kernel/lib/CPU_B\libGCC_kernel.a(GCC_message_queue_try_receive.o)
                                0x68d (size before relaxing)
 .debug_str     0x00019e3a       0x3d ../kernel/lib/CPU_B\libGCC_kernel.a(GCC_os_init.o)
                                0x1df (size before relaxing)
 .debug_str     0x00019e77       0x53 ../kernel/lib/CPU_B\libGCC_kernel.a(GCC_os_safety_critical.o)
                                0x1f5 (size before relaxing)
 .debug_str     0x00019eca       0x4f ../kernel/lib/CPU_B\libGCC_kernel.a(GCC_os_shutdown.o)
                                0x596 (size before relaxing)
 .debug_str     0x00019f19       0x5c ../kernel/lib/CPU_B\libGCC_kernel.a(GCC_os_start.o)
                                0x5ba (size before relaxing)
 .debug_str     0x00019f75       0x43 ../kernel/lib/CPU_B\libGCC_kernel.a(GCC_sched_lock.o)
                                0x5b0 (size before relaxing)
 .debug_str     0x00019fb8       0x47 ../kernel/lib/CPU_B\libGCC_kernel.a(GCC_sched_unlock.o)
                                0x5fa (size before relaxing)
 .debug_str     0x00019fff       0x9d ../kernel/lib/CPU_B\libGCC_kernel.a(GCC_semaphore.o)
                                0x636 (size before relaxing)
 .debug_str     0x0001a09c       0x73 ../kernel/lib/CPU_B\libGCC_kernel.a(GCC_semaphore_count_get.o)
                                0x671 (size before relaxing)
 .debug_str     0x0001a10f       0x55 ../kernel/lib/CPU_B\libGCC_kernel.a(GCC_semaphore_count_set.o)
                                0x67f (size before relaxing)
 .debug_str     0x0001a164       0x69 ../kernel/lib/CPU_B\libGCC_kernel.a(GCC_semaphore_create.o)
                                0x6ce (size before relaxing)
 .debug_str     0x0001a1cd       0x4f ../kernel/lib/CPU_B\libGCC_kernel.a(GCC_semaphore_delete.o)
                                0x6d9 (size before relaxing)
 .debug_str     0x0001a21c       0x5b ../kernel/lib/CPU_B\libGCC_kernel.a(GCC_semaphore_delete_force.o)
                                0x757 (size before relaxing)
 .debug_str     0x0001a277       0x4b ../kernel/lib/CPU_B\libGCC_kernel.a(GCC_semaphore_give.o)
                                0x6f4 (size before relaxing)
 .debug_str     0x0001a2c2       0x4b ../kernel/lib/CPU_B\libGCC_kernel.a(GCC_semaphore_take.o)
                                0x6df (size before relaxing)
 .debug_str     0x0001a30d       0x53 ../kernel/lib/CPU_B\libGCC_kernel.a(GCC_semaphore_try_take.o)
                                0x676 (size before relaxing)
 .debug_str     0x0001a360       0x89 ../kernel/lib/CPU_B\libGCC_kernel.a(GCC_sys_tick.o)
                                0x5ec (size before relaxing)
 .debug_str     0x0001a3e9       0x47 ../kernel/lib/CPU_B\libGCC_kernel.a(GCC_sys_tick_get.o)
                                0x626 (size before relaxing)
 .debug_str     0x0001a430       0x6b ../kernel/lib/CPU_B\libGCC_kernel.a(GCC_sys_tick_increment.o)
                                0x6c7 (size before relaxing)
 .debug_str     0x0001a49b       0x47 ../kernel/lib/CPU_B\libGCC_kernel.a(GCC_sys_tick_set.o)
                                0x626 (size before relaxing)
 .debug_str     0x0001a4e2       0x84 ../kernel/lib/CPU_B\libGCC_kernel.a(GCC_task.o)
                                0x6d4 (size before relaxing)
 .debug_str     0x0001a566       0x83 ../kernel/lib/CPU_B\libGCC_kernel.a(GCC_task_check_idle_stack.o)
                                0x67f (size before relaxing)
 .debug_str     0x0001a5e9       0x5c ../kernel/lib/CPU_B\libGCC_kernel.a(GCC_task_check_stack.o)
                                0x69c (size before relaxing)
 .debug_str     0x0001a645       0xaa ../kernel/lib/CPU_B\libGCC_kernel.a(GCC_task_create.o)
                                0x778 (size before relaxing)
 .debug_str     0x0001a6ef       0x4d ../kernel/lib/CPU_B\libGCC_kernel.a(GCC_task_delay.o)
                                0x68d (size before relaxing)
 .debug_str     0x0001a73c       0x51 ../kernel/lib/CPU_B\libGCC_kernel.a(GCC_task_delay_cancel.o)
                                0x6c6 (size before relaxing)
 .debug_str     0x0001a78d       0x4e ../kernel/lib/CPU_B\libGCC_kernel.a(GCC_task_delete.o)
                                0x72d (size before relaxing)
 .debug_str     0x0001a7db       0x57 ../kernel/lib/CPU_B\libGCC_kernel.a(GCC_task_get_by_priority.o)
                                0x647 (size before relaxing)
 .debug_str     0x0001a832       0x51 ../kernel/lib/CPU_B\libGCC_kernel.a(GCC_task_get_priority.o)
                                0x66b (size before relaxing)
 .debug_str     0x0001a883       0x41 ../kernel/lib/CPU_B\libGCC_kernel.a(GCC_task_info.o)
                                0x674 (size before relaxing)
 .debug_str     0x0001a8c4       0x45 ../kernel/lib/CPU_B\libGCC_kernel.a(GCC_task_resume.o)
                                0x6ae (size before relaxing)
 .debug_str     0x0001a909       0x66 ../kernel/lib/CPU_B\libGCC_kernel.a(GCC_task_set_priority.o)
                                0x71f (size before relaxing)
 .debug_str     0x0001a96f       0x4f ../kernel/lib/CPU_B\libGCC_kernel.a(GCC_task_statis_init.o)
                                0x633 (size before relaxing)
 .debug_str     0x0001a9be       0x47 ../kernel/lib/CPU_B\libGCC_kernel.a(GCC_task_suspend.o)
                                0x6b0 (size before relaxing)
 .debug_str     0x0001aa05      0x130 ../kernel/lib/CPU_B\libGCC_kernel.a(GCC_os_cpu_c.o)
                                0xc72 (size before relaxing)
 .debug_str     0x0001ab35      0x5e6 ../kernel/lib/CPU_B\libGCC_kernel.a(GCC_GM_PROSTACK_Ip.o)
                               0x1670 (size before relaxing)
 .debug_str     0x0001b11b      0xd94 ../kernel/lib/CPU_B\libGCC_kernel.a(GCC_GM_PROSTACK_Ip_tsk.o)
                               0x21af (size before relaxing)
 .debug_str     0x0001beaf      0x307 ../kernel/lib/CPU_B\libGCC_kernel.a(GCC_GM_PROSTACK_Udp.o)
                               0x144a (size before relaxing)
 .debug_str     0x0001c1b6       0xd8 ../kernel/lib/CPU_B\libGCC_kernel.a(GCC_GM_PROSTACK_Vote.o)
                                0xf12 (size before relaxing)
 .debug_str     0x0001c28e      0x658 ../kernel/lib/CPU_B\libGCC_kernel.a(GCC_GM_Tftp.o)
                               0x126b (size before relaxing)
 .debug_str     0x0001c8e6      0x781 ../kernel/lib/CPU_B\libGCC_kernel.a(GCC_BIT.o)
                               0x1afd (size before relaxing)
 .debug_str     0x0001d067      0xfb7 ../kernel/lib/CPU_B\libGCC_kernel.a(GCC_CONF_autho.o)
                               0x3455 (size before relaxing)
 .debug_str     0x0001e01e      0xc2b ../kernel/lib/CPU_B\libGCC_kernel.a(GCC_CONF_dataset.o)
                               0x24b9 (size before relaxing)
 .debug_str     0x0001ec49       0xd4 ../kernel/lib/CPU_B\libGCC_kernel.a(GCC_Schedule_gentask.o)
                                0xdc3 (size before relaxing)
 .debug_str     0x0001ed1d       0x51 ../kernel/lib/CPU_B\libGCC_kernel.a(GCC_Drv_Can_Isr.o)
                                0x607 (size before relaxing)
 .debug_str     0x0001ed6e       0x89 ../kernel/lib/CPU_B\libGCC_kernel.a(GCC_os_hooks.o)
                                0x985 (size before relaxing)
 .debug_str     0x0001edf7       0x60 ../kernel/lib/CPU_B\libGCC_kernel.a(GCC_idletaskcreate.o)
                                0x5d8 (size before relaxing)
 .debug_str     0x0001ee57       0x43 ../kernel/lib/CPU_B\libGCC_kernel.a(GCC_event.o)
                                0x633 (size before relaxing)
 .debug_str     0x0001ee9a       0x47 ../kernel/lib/CPU_B\libGCC_kernel.a(GCC_mempart.o)
                                0x648 (size before relaxing)
 .debug_str     0x0001eee1       0x52 ../kernel/lib/CPU_B\libGCC_kernel.a(GCC_message_queue.o)
                                0x650 (size before relaxing)
 .debug_str     0x0001ef33       0x8a ../kernel/lib/CPU_B\libGCC_kernel.a(GCC_mutex.o)
                                0x63c (size before relaxing)
 .debug_str     0x0001efbd      0x3f0 ../kernel/lib/CPU_B\libGCC_kernel.a(GCC_GM_PROSTACK_Arp.o)
                               0x12af (size before relaxing)
 .debug_str     0x0001f3ad      0x229 ../kernel/lib/CPU_B\libGCC_kernel.a(GCC_GM_PROSTACK_Can.o)
                                0xf76 (size before relaxing)
 .debug_str     0x0001f5d6      0x1fd ../kernel/lib/CPU_B\libGCC_kernel.a(GCC_GM_PROSTACK_Cop.o)
                                0xba1 (size before relaxing)
 .debug_str     0x0001f7d3      0x1b9 ../kernel/lib/CPU_B\libGCC_kernel.a(GCC_GM_PROSTACK_Eth.o)
                               0x138c (size before relaxing)
 .debug_str     0x0001f98c       0x53 ../kernel/lib/CPU_B\libGCC_kernel.a(GCC_GM_PROSTACK_Icmp.o)
                               0x1099 (size before relaxing)
 .debug_str     0x0001f9df       0xbb ../kernel/lib/CPU_B\libGCC_kernel.a(GCC_CONF_check.o)
                                0xdf2 (size before relaxing)

.comment        0x00000000       0x11
 .comment       0x00000000       0x11 ./out/CPU_B/GCC_guest.o
                                 0x12 (size before relaxing)
 .comment       0x00000011       0x12 ./out/CPU_B/GCC_guest_fuse.o
 .comment       0x00000011       0x12 ./out/CPU_B/GCC_guest_isolation.o
 .comment       0x00000011       0x12 ./out/CPU_B/GCC_guest_outputport.o
 .comment       0x00000011       0x12 ./out/CPU_B/GCC_guest_public.o
 .comment       0x00000011       0x12 ./out/CPU_B/GCC_guest_readback.o
 .comment       0x00000011       0x12 ../kernel/lib/CPU_B\libGCC_kernel.a(GCC_mstep.o)
 .comment       0x00000011       0x12 ../kernel/lib/CPU_B\libGCC_kernel.a(GCC_BIT_fuse.o)
 .comment       0x00000011       0x12 ../kernel/lib/CPU_B\libGCC_kernel.a(GCC_BIT_survey.o)
 .comment       0x00000011       0x12 ../kernel/lib/CPU_B\libGCC_kernel.a(GCC_can.o)
 .comment       0x00000011       0x12 ../kernel/lib/CPU_B\libGCC_kernel.a(GCC_can_ard.o)
 .comment       0x00000011       0x12 ../kernel/lib/CPU_B\libGCC_kernel.a(GCC_can_config.o)
 .comment       0x00000011       0x12 ../kernel/lib/CPU_B\libGCC_kernel.a(GCC_can_emcy.o)
 .comment       0x00000011       0x12 ../kernel/lib/CPU_B\libGCC_kernel.a(GCC_can_od.o)
 .comment       0x00000011       0x12 ../kernel/lib/CPU_B\libGCC_kernel.a(GCC_can_odplug.o)
 .comment       0x00000011       0x12 ../kernel/lib/CPU_B\libGCC_kernel.a(GCC_can_open.o)
 .comment       0x00000011       0x12 ../kernel/lib/CPU_B\libGCC_kernel.a(GCC_can_saddle.o)
 .comment       0x00000011       0x12 ../kernel/lib/CPU_B\libGCC_kernel.a(GCC_can_safety.o)
 .comment       0x00000011       0x12 ../kernel/lib/CPU_B\libGCC_kernel.a(GCC_can_sdo.o)
 .comment       0x00000011       0x12 ../kernel/lib/CPU_B\libGCC_kernel.a(GCC_can_time.o)
 .comment       0x00000011       0x12 ../kernel/lib/CPU_B\libGCC_kernel.a(GCC_CONF.o)
 .comment       0x00000011       0x12 ../kernel/lib/CPU_B\libGCC_kernel.a(GCC_CONF_local.o)
 .comment       0x00000011       0x12 ../kernel/lib/CPU_B\libGCC_kernel.a(GCC_CONF_src.o)
 .comment       0x00000011       0x12 ../kernel/lib/CPU_B\libGCC_kernel.a(GCC_FCODE.o)
 .comment       0x00000011       0x12 ../kernel/lib/CPU_B\libGCC_kernel.a(GCC_FILESYS.o)
 .comment       0x00000011       0x12 ../kernel/lib/CPU_B\libGCC_kernel.a(GCC_FILESYS_int.o)
 .comment       0x00000011       0x12 ../kernel/lib/CPU_B\libGCC_kernel.a(GCC_FILESYS_tftp.o)
 .comment       0x00000011       0x12 ../kernel/lib/CPU_B\libGCC_kernel.a(GCC_Flash.o)
 .comment       0x00000011       0x12 ../kernel/lib/CPU_B\libGCC_kernel.a(GCC_Flash_Async.o)
 .comment       0x00000011       0x12 ../kernel/lib/CPU_B\libGCC_kernel.a(GCC_Flash_Direct.o)
 .comment       0x00000011       0x12 ../kernel/lib/CPU_B\libGCC_kernel.a(GCC_gdf.o)
 .comment       0x00000011       0x12 ../kernel/lib/CPU_B\libGCC_kernel.a(GCC_gdf_dump_tools.o)
 .comment       0x00000011       0x12 ../kernel/lib/CPU_B\libGCC_kernel.a(GCC_MATH.o)
 .comment       0x00000011       0x12 ../kernel/lib/CPU_B\libGCC_kernel.a(GCC_osw.o)
 .comment       0x00000011       0x12 ../kernel/lib/CPU_B\libGCC_kernel.a(GCC_print.o)
 .comment       0x00000011       0x12 ../kernel/lib/CPU_B\libGCC_kernel.a(GCC_RECORD.o)
 .comment       0x00000011       0x12 ../kernel/lib/CPU_B\libGCC_kernel.a(GCC_RECORD_evt.o)
 .comment       0x00000011       0x12 ../kernel/lib/CPU_B\libGCC_kernel.a(GCC_RECORD_pda.o)
 .comment       0x00000011       0x12 ../kernel/lib/CPU_B\libGCC_kernel.a(GCC_RECORD_sector.o)
 .comment       0x00000011       0x12 ../kernel/lib/CPU_B\libGCC_kernel.a(GCC_RECORD_stat.o)
 .comment       0x00000011       0x12 ../kernel/lib/CPU_B\libGCC_kernel.a(GCC_RECORD_utl.o)
 .comment       0x00000011       0x12 ../kernel/lib/CPU_B\libGCC_kernel.a(GCC_Schedule.o)
 .comment       0x00000011       0x12 ../kernel/lib/CPU_B\libGCC_kernel.a(GCC_Schedule_gta.o)
 .comment       0x00000011       0x12 ../kernel/lib/CPU_B\libGCC_kernel.a(GCC_Schedule_launcher.o)
 .comment       0x00000011       0x12 ../kernel/lib/CPU_B\libGCC_kernel.a(GCC_Schedule_utl.o)
 .comment       0x00000011       0x12 ../kernel/lib/CPU_B\libGCC_kernel.a(GCC_VCU_Start.o)
 .comment       0x00000011       0x12 ../kernel/lib/CPU_B\libGCC_kernel.a(GCC_SDB.o)
 .comment       0x00000011       0x12 ../kernel/lib/CPU_B\libGCC_kernel.a(GCC_SDB_api.o)
 .comment       0x00000011       0x12 ../kernel/lib/CPU_B\libGCC_kernel.a(GCC_SDB_intercpu.o)
 .comment       0x00000011       0x12 ../kernel/lib/CPU_B\libGCC_kernel.a(GCC_SDB_ioplug.o)
 .comment       0x00000011       0x12 ../kernel/lib/CPU_B\libGCC_kernel.a(GCC_SDB_update.o)
 .comment       0x00000011       0x12 ../kernel/lib/CPU_B\libGCC_kernel.a(GCC_SDB_updatelist.o)
 .comment       0x00000011       0x12 ../kernel/lib/CPU_B\libGCC_kernel.a(GCC_std.o)
 .comment       0x00000011       0x12 ../kernel/lib/CPU_B\libGCC_kernel.a(GCC_VOTE.o)
 .comment       0x00000011       0x12 ../kernel/lib/CPU_B\libGCC_kernel.a(GCC_VOTE_com.o)
 .comment       0x00000011       0x12 ../kernel/lib/CPU_B\libGCC_kernel.a(GCC_VOTE_tsk.o)
 .comment       0x00000011       0x12 ../kernel/lib/CPU_B\libGCC_kernel.a(GCC_wdg.o)
 .comment       0x00000011       0x12 ../kernel/lib/CPU_B\libGCC_kernel.a(GCC_viv.o)
 .comment       0x00000011       0x12 ../kernel/lib/CPU_B\libGCC_kernel.a(GCC_Drv_CAU_Lib.o)
 .comment       0x00000011       0x12 ../kernel/lib/CPU_B\libGCC_kernel.a(GCC_Drv_BID_Lib.o)
 .comment       0x00000011       0x12 ../kernel/lib/CPU_B\libGCC_kernel.a(GCC_Drv_Boot_Module.o)
 .comment       0x00000011       0x12 ../kernel/lib/CPU_B\libGCC_kernel.a(GCC_Drv_Boot_Utils.o)
 .comment       0x00000011       0x12 ../kernel/lib/CPU_B\libGCC_kernel.a(GCC_Drv_Cache_Lib.o)
 .comment       0x00000011       0x12 ../kernel/lib/CPU_B\libGCC_kernel.a(GCC_Drv_Can_Lib.o)
 .comment       0x00000011       0x12 ../kernel/lib/CPU_B\libGCC_kernel.a(GCC_Drv_Fec_Lib.o)
 .comment       0x00000011       0x12 ../kernel/lib/CPU_B\libGCC_kernel.a(GCC_Drv_Flash_Parallel_Lib.o)
 .comment       0x00000011       0x12 ../kernel/lib/CPU_B\libGCC_kernel.a(GCC_Drv_Flash_Spi_Lib.o)
 .comment       0x00000011       0x12 ../kernel/lib/CPU_B\libGCC_kernel.a(GCC_Drv_Gpio.o)
 .comment       0x00000011       0x12 ../kernel/lib/CPU_B\libGCC_kernel.a(GCC_Drv_MMU_Lib.o)
 .comment       0x00000011       0x12 ../kernel/lib/CPU_B\libGCC_kernel.a(GCC_Drv_SDRAM_Lib.o)
 .comment       0x00000011       0x12 ../kernel/lib/CPU_B\libGCC_kernel.a(GCC_Drv_Spi_Lib.o)
 .comment       0x00000011       0x12 ../kernel/lib/CPU_B\libGCC_kernel.a(GCC_Drv_Timer_Lib.o)
 .comment       0x00000011       0x12 ../kernel/lib/CPU_B\libGCC_kernel.a(GCC_Drv_Uart_Vote.o)
 .comment       0x00000011       0x12 ../kernel/lib/CPU_B\libGCC_kernel.a(GCC_bsp.o)
 .comment       0x00000011       0x12 ../kernel/lib/CPU_B\libGCC_kernel.a(GCC_exceptions.o)
 .comment       0x00000011       0x12 ../kernel/lib/CPU_B\libGCC_kernel.a(GCC_os_core.o)
 .comment       0x00000011       0x12 ../kernel/lib/CPU_B\libGCC_kernel.a(GCC_os_flag.o)
 .comment       0x00000011       0x12 ../kernel/lib/CPU_B\libGCC_kernel.a(GCC_os_mem.o)
 .comment       0x00000011       0x12 ../kernel/lib/CPU_B\libGCC_kernel.a(GCC_os_q.o)
 .comment       0x00000011       0x12 ../kernel/lib/CPU_B\libGCC_kernel.a(GCC_os_sem.o)
 .comment       0x00000011       0x12 ../kernel/lib/CPU_B\libGCC_kernel.a(GCC_os_task.o)
 .comment       0x00000011       0x12 ../kernel/lib/CPU_B\libGCC_kernel.a(GCC_os_time.o)
 .comment       0x00000011       0x12 ../kernel/lib/CPU_B\libGCC_kernel.a(GCC_core.o)
 .comment       0x00000011       0x12 ../kernel/lib/CPU_B\libGCC_kernel.a(GCC_coretask.o)
 .comment       0x00000011       0x12 ../kernel/lib/CPU_B\libGCC_kernel.a(GCC_event_group_create.o)
 .comment       0x00000011       0x12 ../kernel/lib/CPU_B\libGCC_kernel.a(GCC_event_group_delete.o)
 .comment       0x00000011       0x12 ../kernel/lib/CPU_B\libGCC_kernel.a(GCC_event_group_delete_force.o)
 .comment       0x00000011       0x12 ../kernel/lib/CPU_B\libGCC_kernel.a(GCC_event_group_info.o)
 .comment       0x00000011       0x12 ../kernel/lib/CPU_B\libGCC_kernel.a(GCC_event_notify.o)
 .comment       0x00000011       0x12 ../kernel/lib/CPU_B\libGCC_kernel.a(GCC_event_ready_get.o)
 .comment       0x00000011       0x12 ../kernel/lib/CPU_B\libGCC_kernel.a(GCC_event_try_wait.o)
 .comment       0x00000011       0x12 ../kernel/lib/CPU_B\libGCC_kernel.a(GCC_event_wait.o)
 .comment       0x00000011       0x12 ../kernel/lib/CPU_B\libGCC_kernel.a(GCC_fatal_error_raise.o)
 .comment       0x00000011       0x12 ../kernel/lib/CPU_B\libGCC_kernel.a(GCC_irq_resume.o)
 .comment       0x00000011       0x12 ../kernel/lib/CPU_B\libGCC_kernel.a(GCC_irq_suspend.o)
 .comment       0x00000011       0x12 ../kernel/lib/CPU_B\libGCC_kernel.a(GCC_isr.o)
 .comment       0x00000011       0x12 ../kernel/lib/CPU_B\libGCC_kernel.a(GCC_isr_enter.o)
 .comment       0x00000011       0x12 ../kernel/lib/CPU_B\libGCC_kernel.a(GCC_isr_exit.o)
 .comment       0x00000011       0x12 ../kernel/lib/CPU_B\libGCC_kernel.a(GCC_isr_level_get.o)
 .comment       0x00000011       0x12 ../kernel/lib/CPU_B\libGCC_kernel.a(GCC_mempart_alloc.o)
 .comment       0x00000011       0x12 ../kernel/lib/CPU_B\libGCC_kernel.a(GCC_mempart_create.o)
 .comment       0x00000011       0x12 ../kernel/lib/CPU_B\libGCC_kernel.a(GCC_mempart_free.o)
 .comment       0x00000011       0x12 ../kernel/lib/CPU_B\libGCC_kernel.a(GCC_mempart_info.o)
 .comment       0x00000011       0x12 ../kernel/lib/CPU_B\libGCC_kernel.a(GCC_message_queue_broadcast.o)
 .comment       0x00000011       0x12 ../kernel/lib/CPU_B\libGCC_kernel.a(GCC_message_queue_create.o)
 .comment       0x00000011       0x12 ../kernel/lib/CPU_B\libGCC_kernel.a(GCC_message_queue_delete.o)
 .comment       0x00000011       0x12 ../kernel/lib/CPU_B\libGCC_kernel.a(GCC_message_queue_delete_force.o)
 .comment       0x00000011       0x12 ../kernel/lib/CPU_B\libGCC_kernel.a(GCC_message_queue_flush.o)
 .comment       0x00000011       0x12 ../kernel/lib/CPU_B\libGCC_kernel.a(GCC_message_queue_info.o)
 .comment       0x00000011       0x12 ../kernel/lib/CPU_B\libGCC_kernel.a(GCC_message_queue_receive.o)
 .comment       0x00000011       0x12 ../kernel/lib/CPU_B\libGCC_kernel.a(GCC_message_queue_send.o)
 .comment       0x00000011       0x12 ../kernel/lib/CPU_B\libGCC_kernel.a(GCC_message_queue_send_first.o)
 .comment       0x00000011       0x12 ../kernel/lib/CPU_B\libGCC_kernel.a(GCC_message_queue_try_receive.o)
 .comment       0x00000011       0x12 ../kernel/lib/CPU_B\libGCC_kernel.a(GCC_os_init.o)
 .comment       0x00000011       0x12 ../kernel/lib/CPU_B\libGCC_kernel.a(GCC_os_safety_critical.o)
 .comment       0x00000011       0x12 ../kernel/lib/CPU_B\libGCC_kernel.a(GCC_os_shutdown.o)
 .comment       0x00000011       0x12 ../kernel/lib/CPU_B\libGCC_kernel.a(GCC_os_start.o)
 .comment       0x00000011       0x12 ../kernel/lib/CPU_B\libGCC_kernel.a(GCC_sched_lock.o)
 .comment       0x00000011       0x12 ../kernel/lib/CPU_B\libGCC_kernel.a(GCC_sched_unlock.o)
 .comment       0x00000011       0x12 ../kernel/lib/CPU_B\libGCC_kernel.a(GCC_semaphore.o)
 .comment       0x00000011       0x12 ../kernel/lib/CPU_B\libGCC_kernel.a(GCC_semaphore_count_get.o)
 .comment       0x00000011       0x12 ../kernel/lib/CPU_B\libGCC_kernel.a(GCC_semaphore_count_set.o)
 .comment       0x00000011       0x12 ../kernel/lib/CPU_B\libGCC_kernel.a(GCC_semaphore_create.o)
 .comment       0x00000011       0x12 ../kernel/lib/CPU_B\libGCC_kernel.a(GCC_semaphore_delete.o)
 .comment       0x00000011       0x12 ../kernel/lib/CPU_B\libGCC_kernel.a(GCC_semaphore_delete_force.o)
 .comment       0x00000011       0x12 ../kernel/lib/CPU_B\libGCC_kernel.a(GCC_semaphore_give.o)
 .comment       0x00000011       0x12 ../kernel/lib/CPU_B\libGCC_kernel.a(GCC_semaphore_take.o)
 .comment       0x00000011       0x12 ../kernel/lib/CPU_B\libGCC_kernel.a(GCC_semaphore_try_take.o)
 .comment       0x00000011       0x12 ../kernel/lib/CPU_B\libGCC_kernel.a(GCC_sys_tick.o)
 .comment       0x00000011       0x12 ../kernel/lib/CPU_B\libGCC_kernel.a(GCC_sys_tick_get.o)
 .comment       0x00000011       0x12 ../kernel/lib/CPU_B\libGCC_kernel.a(GCC_sys_tick_increment.o)
 .comment       0x00000011       0x12 ../kernel/lib/CPU_B\libGCC_kernel.a(GCC_sys_tick_set.o)
 .comment       0x00000011       0x12 ../kernel/lib/CPU_B\libGCC_kernel.a(GCC_task.o)
 .comment       0x00000011       0x12 ../kernel/lib/CPU_B\libGCC_kernel.a(GCC_task_check_idle_stack.o)
 .comment       0x00000011       0x12 ../kernel/lib/CPU_B\libGCC_kernel.a(GCC_task_check_stack.o)
 .comment       0x00000011       0x12 ../kernel/lib/CPU_B\libGCC_kernel.a(GCC_task_create.o)
 .comment       0x00000011       0x12 ../kernel/lib/CPU_B\libGCC_kernel.a(GCC_task_delay.o)
 .comment       0x00000011       0x12 ../kernel/lib/CPU_B\libGCC_kernel.a(GCC_task_delay_cancel.o)
 .comment       0x00000011       0x12 ../kernel/lib/CPU_B\libGCC_kernel.a(GCC_task_delete.o)
 .comment       0x00000011       0x12 ../kernel/lib/CPU_B\libGCC_kernel.a(GCC_task_get_by_priority.o)
 .comment       0x00000011       0x12 ../kernel/lib/CPU_B\libGCC_kernel.a(GCC_task_get_priority.o)
 .comment       0x00000011       0x12 ../kernel/lib/CPU_B\libGCC_kernel.a(GCC_task_info.o)
 .comment       0x00000011       0x12 ../kernel/lib/CPU_B\libGCC_kernel.a(GCC_task_resume.o)
 .comment       0x00000011       0x12 ../kernel/lib/CPU_B\libGCC_kernel.a(GCC_task_set_priority.o)
 .comment       0x00000011       0x12 ../kernel/lib/CPU_B\libGCC_kernel.a(GCC_task_statis_init.o)
 .comment       0x00000011       0x12 ../kernel/lib/CPU_B\libGCC_kernel.a(GCC_task_suspend.o)
 .comment       0x00000011       0x12 ../kernel/lib/CPU_B\libGCC_kernel.a(GCC_os_cpu_c.o)
 .comment       0x00000011       0x12 ../kernel/lib/CPU_B\libGCC_kernel.a(GCC_GM_PROSTACK_Ip.o)
 .comment       0x00000011       0x12 ../kernel/lib/CPU_B\libGCC_kernel.a(GCC_GM_PROSTACK_Ip_tsk.o)
 .comment       0x00000011       0x12 ../kernel/lib/CPU_B\libGCC_kernel.a(GCC_GM_PROSTACK_Udp.o)
 .comment       0x00000011       0x12 ../kernel/lib/CPU_B\libGCC_kernel.a(GCC_GM_PROSTACK_Vote.o)
 .comment       0x00000011       0x12 ../kernel/lib/CPU_B\libGCC_kernel.a(GCC_GM_Tftp.o)
 .comment       0x00000011       0x12 ../kernel/lib/CPU_B\libGCC_kernel.a(GCC_BIT.o)
 .comment       0x00000011       0x12 ../kernel/lib/CPU_B\libGCC_kernel.a(GCC_CONF_autho.o)
 .comment       0x00000011       0x12 ../kernel/lib/CPU_B\libGCC_kernel.a(GCC_CONF_dataset.o)
 .comment       0x00000011       0x12 ../kernel/lib/CPU_B\libGCC_kernel.a(GCC_Schedule_gentask.o)
 .comment       0x00000011       0x12 ../kernel/lib/CPU_B\libGCC_kernel.a(GCC_Drv_Can_Isr.o)
 .comment       0x00000011       0x12 ../kernel/lib/CPU_B\libGCC_kernel.a(GCC_os_hooks.o)
 .comment       0x00000011       0x12 ../kernel/lib/CPU_B\libGCC_kernel.a(GCC_idletaskcreate.o)
 .comment       0x00000011       0x12 ../kernel/lib/CPU_B\libGCC_kernel.a(GCC_event.o)
 .comment       0x00000011       0x12 ../kernel/lib/CPU_B\libGCC_kernel.a(GCC_mempart.o)
 .comment       0x00000011       0x12 ../kernel/lib/CPU_B\libGCC_kernel.a(GCC_message_queue.o)
 .comment       0x00000011       0x12 ../kernel/lib/CPU_B\libGCC_kernel.a(GCC_mutex.o)
 .comment       0x00000011       0x12 ../kernel/lib/CPU_B\libGCC_kernel.a(GCC_GM_PROSTACK_Arp.o)
 .comment       0x00000011       0x12 ../kernel/lib/CPU_B\libGCC_kernel.a(GCC_GM_PROSTACK_Can.o)
 .comment       0x00000011       0x12 ../kernel/lib/CPU_B\libGCC_kernel.a(GCC_GM_PROSTACK_Cop.o)
 .comment       0x00000011       0x12 ../kernel/lib/CPU_B\libGCC_kernel.a(GCC_GM_PROSTACK_Eth.o)
 .comment       0x00000011       0x12 ../kernel/lib/CPU_B\libGCC_kernel.a(GCC_GM_PROSTACK_Icmp.o)
 .comment       0x00000011       0x12 ../kernel/lib/CPU_B\libGCC_kernel.a(GCC_CONF_check.o)

.debug_frame    0x00000000     0xf318
 .debug_frame   0x00000000      0x2b0 ./out/CPU_B/GCC_guest.o
 .debug_frame   0x000002b0       0x94 ./out/CPU_B/GCC_guest_fuse.o
 .debug_frame   0x00000344       0x78 ./out/CPU_B/GCC_guest_isolation.o
 .debug_frame   0x000003bc      0x118 ./out/CPU_B/GCC_guest_outputport.o
 .debug_frame   0x000004d4      0x47c ./out/CPU_B/GCC_guest_public.o
 .debug_frame   0x00000950       0x98 ./out/CPU_B/GCC_guest_readback.o
 .debug_frame   0x000009e8      0x808 ../kernel/lib/CPU_B\libGCC_kernel.a(GCC_mstep.o)
 .debug_frame   0x000011f0      0x1c8 ../kernel/lib/CPU_B\libGCC_kernel.a(GCC_BIT_fuse.o)
 .debug_frame   0x000013b8      0x220 ../kernel/lib/CPU_B\libGCC_kernel.a(GCC_BIT_survey.o)
 .debug_frame   0x000015d8      0x32c ../kernel/lib/CPU_B\libGCC_kernel.a(GCC_can.o)
 .debug_frame   0x00001904       0xdc ../kernel/lib/CPU_B\libGCC_kernel.a(GCC_can_ard.o)
 .debug_frame   0x000019e0      0x17c ../kernel/lib/CPU_B\libGCC_kernel.a(GCC_can_config.o)
 .debug_frame   0x00001b5c       0x7c ../kernel/lib/CPU_B\libGCC_kernel.a(GCC_can_emcy.o)
 .debug_frame   0x00001bd8      0x160 ../kernel/lib/CPU_B\libGCC_kernel.a(GCC_can_od.o)
 .debug_frame   0x00001d38       0x60 ../kernel/lib/CPU_B\libGCC_kernel.a(GCC_can_odplug.o)
 .debug_frame   0x00001d98      0x2fc ../kernel/lib/CPU_B\libGCC_kernel.a(GCC_can_open.o)
 .debug_frame   0x00002094      0x11c ../kernel/lib/CPU_B\libGCC_kernel.a(GCC_can_saddle.o)
 .debug_frame   0x000021b0      0x1ec ../kernel/lib/CPU_B\libGCC_kernel.a(GCC_can_safety.o)
 .debug_frame   0x0000239c      0x58c ../kernel/lib/CPU_B\libGCC_kernel.a(GCC_can_sdo.o)
 .debug_frame   0x00002928      0x1d0 ../kernel/lib/CPU_B\libGCC_kernel.a(GCC_can_time.o)
 .debug_frame   0x00002af8       0xec ../kernel/lib/CPU_B\libGCC_kernel.a(GCC_CONF.o)
 .debug_frame   0x00002be4      0x848 ../kernel/lib/CPU_B\libGCC_kernel.a(GCC_CONF_local.o)
 .debug_frame   0x0000342c      0x33c ../kernel/lib/CPU_B\libGCC_kernel.a(GCC_CONF_src.o)
 .debug_frame   0x00003768       0xb0 ../kernel/lib/CPU_B\libGCC_kernel.a(GCC_FCODE.o)
 .debug_frame   0x00003818      0x5b4 ../kernel/lib/CPU_B\libGCC_kernel.a(GCC_FILESYS.o)
 .debug_frame   0x00003dcc       0x90 ../kernel/lib/CPU_B\libGCC_kernel.a(GCC_FILESYS_int.o)
 .debug_frame   0x00003e5c      0x23c ../kernel/lib/CPU_B\libGCC_kernel.a(GCC_FILESYS_tftp.o)
 .debug_frame   0x00004098       0xec ../kernel/lib/CPU_B\libGCC_kernel.a(GCC_Flash.o)
 .debug_frame   0x00004184      0x1b8 ../kernel/lib/CPU_B\libGCC_kernel.a(GCC_Flash_Async.o)
 .debug_frame   0x0000433c      0x124 ../kernel/lib/CPU_B\libGCC_kernel.a(GCC_Flash_Direct.o)
 .debug_frame   0x00004460      0x144 ../kernel/lib/CPU_B\libGCC_kernel.a(GCC_gdf.o)
 .debug_frame   0x000045a4       0x94 ../kernel/lib/CPU_B\libGCC_kernel.a(GCC_gdf_dump_tools.o)
 .debug_frame   0x00004638       0xe0 ../kernel/lib/CPU_B\libGCC_kernel.a(GCC_MATH.o)
 .debug_frame   0x00004718      0x48c ../kernel/lib/CPU_B\libGCC_kernel.a(GCC_osw.o)
 .debug_frame   0x00004ba4      0x170 ../kernel/lib/CPU_B\libGCC_kernel.a(GCC_print.o)
 .debug_frame   0x00004d14      0x124 ../kernel/lib/CPU_B\libGCC_kernel.a(GCC_RECORD.o)
 .debug_frame   0x00004e38      0x1b0 ../kernel/lib/CPU_B\libGCC_kernel.a(GCC_RECORD_evt.o)
 .debug_frame   0x00004fe8      0x308 ../kernel/lib/CPU_B\libGCC_kernel.a(GCC_RECORD_pda.o)
 .debug_frame   0x000052f0      0x180 ../kernel/lib/CPU_B\libGCC_kernel.a(GCC_RECORD_sector.o)
 .debug_frame   0x00005470      0x298 ../kernel/lib/CPU_B\libGCC_kernel.a(GCC_RECORD_stat.o)
 .debug_frame   0x00005708      0x164 ../kernel/lib/CPU_B\libGCC_kernel.a(GCC_RECORD_utl.o)
 .debug_frame   0x0000586c      0x1b8 ../kernel/lib/CPU_B\libGCC_kernel.a(GCC_Schedule.o)
 .debug_frame   0x00005a24       0xe0 ../kernel/lib/CPU_B\libGCC_kernel.a(GCC_Schedule_gta.o)
 .debug_frame   0x00005b04      0x218 ../kernel/lib/CPU_B\libGCC_kernel.a(GCC_Schedule_launcher.o)
 .debug_frame   0x00005d1c      0x554 ../kernel/lib/CPU_B\libGCC_kernel.a(GCC_Schedule_utl.o)
 .debug_frame   0x00006270       0x2c ../kernel/lib/CPU_B\libGCC_kernel.a(GCC_VCU_Start.o)
 .debug_frame   0x0000629c      0x448 ../kernel/lib/CPU_B\libGCC_kernel.a(GCC_SDB.o)
 .debug_frame   0x000066e4      0x124 ../kernel/lib/CPU_B\libGCC_kernel.a(GCC_SDB_api.o)
 .debug_frame   0x00006808       0xb4 ../kernel/lib/CPU_B\libGCC_kernel.a(GCC_SDB_intercpu.o)
 .debug_frame   0x000068bc      0x184 ../kernel/lib/CPU_B\libGCC_kernel.a(GCC_SDB_ioplug.o)
 .debug_frame   0x00006a40      0x100 ../kernel/lib/CPU_B\libGCC_kernel.a(GCC_SDB_update.o)
 .debug_frame   0x00006b40      0x108 ../kernel/lib/CPU_B\libGCC_kernel.a(GCC_SDB_updatelist.o)
 .debug_frame   0x00006c48      0x1f4 ../kernel/lib/CPU_B\libGCC_kernel.a(GCC_std.o)
 .debug_frame   0x00006e3c      0x184 ../kernel/lib/CPU_B\libGCC_kernel.a(GCC_VOTE.o)
 .debug_frame   0x00006fc0      0x1e4 ../kernel/lib/CPU_B\libGCC_kernel.a(GCC_VOTE_com.o)
 .debug_frame   0x000071a4       0xd8 ../kernel/lib/CPU_B\libGCC_kernel.a(GCC_VOTE_tsk.o)
 .debug_frame   0x0000727c      0x138 ../kernel/lib/CPU_B\libGCC_kernel.a(GCC_wdg.o)
 .debug_frame   0x000073b4      0x54c ../kernel/lib/CPU_B\libGCC_kernel.a(GCC_viv.o)
 .debug_frame   0x00007900       0x60 ../kernel/lib/CPU_B\libGCC_kernel.a(GCC_Drv_CAU_Lib.o)
 .debug_frame   0x00007960       0x8c ../kernel/lib/CPU_B\libGCC_kernel.a(GCC_Drv_BID_Lib.o)
 .debug_frame   0x000079ec      0x16c ../kernel/lib/CPU_B\libGCC_kernel.a(GCC_Drv_Boot_Module.o)
 .debug_frame   0x00007b58      0x284 ../kernel/lib/CPU_B\libGCC_kernel.a(GCC_Drv_Boot_Utils.o)
 .debug_frame   0x00007ddc       0x5c ../kernel/lib/CPU_B\libGCC_kernel.a(GCC_Drv_Cache_Lib.o)
 .debug_frame   0x00007e38      0x380 ../kernel/lib/CPU_B\libGCC_kernel.a(GCC_Drv_Can_Lib.o)
 .debug_frame   0x000081b8      0x294 ../kernel/lib/CPU_B\libGCC_kernel.a(GCC_Drv_Fec_Lib.o)
 .debug_frame   0x0000844c      0x19c ../kernel/lib/CPU_B\libGCC_kernel.a(GCC_Drv_Flash_Parallel_Lib.o)
 .debug_frame   0x000085e8      0x13c ../kernel/lib/CPU_B\libGCC_kernel.a(GCC_Drv_Flash_Spi_Lib.o)
 .debug_frame   0x00008724       0xd0 ../kernel/lib/CPU_B\libGCC_kernel.a(GCC_Drv_Gpio.o)
 .debug_frame   0x000087f4       0x2c ../kernel/lib/CPU_B\libGCC_kernel.a(GCC_Drv_MMU_Lib.o)
 .debug_frame   0x00008820       0x2c ../kernel/lib/CPU_B\libGCC_kernel.a(GCC_Drv_SDRAM_Lib.o)
 .debug_frame   0x0000884c       0xc0 ../kernel/lib/CPU_B\libGCC_kernel.a(GCC_Drv_Spi_Lib.o)
 .debug_frame   0x0000890c       0xf4 ../kernel/lib/CPU_B\libGCC_kernel.a(GCC_Drv_Timer_Lib.o)
 .debug_frame   0x00008a00      0x1b0 ../kernel/lib/CPU_B\libGCC_kernel.a(GCC_Drv_Uart_Vote.o)
 .debug_frame   0x00008bb0       0x5c ../kernel/lib/CPU_B\libGCC_kernel.a(GCC_bsp.o)
 .debug_frame   0x00008c0c       0x68 ../kernel/lib/CPU_B\libGCC_kernel.a(GCC_exceptions.o)
 .debug_frame   0x00008c74      0x104 ../kernel/lib/CPU_B\libGCC_kernel.a(GCC_os_core.o)
 .debug_frame   0x00008d78       0xbc ../kernel/lib/CPU_B\libGCC_kernel.a(GCC_os_flag.o)
 .debug_frame   0x00008e34       0xbc ../kernel/lib/CPU_B\libGCC_kernel.a(GCC_os_mem.o)
 .debug_frame   0x00008ef0       0xec ../kernel/lib/CPU_B\libGCC_kernel.a(GCC_os_q.o)
 .debug_frame   0x00008fdc       0xbc ../kernel/lib/CPU_B\libGCC_kernel.a(GCC_os_sem.o)
 .debug_frame   0x00009098      0x120 ../kernel/lib/CPU_B\libGCC_kernel.a(GCC_os_task.o)
 .debug_frame   0x000091b8       0x8c ../kernel/lib/CPU_B\libGCC_kernel.a(GCC_os_time.o)
 .debug_frame   0x00009244      0x150 ../kernel/lib/CPU_B\libGCC_kernel.a(GCC_event_group_create.o)
 .debug_frame   0x00009394      0x11c ../kernel/lib/CPU_B\libGCC_kernel.a(GCC_event_group_delete.o)
 .debug_frame   0x000094b0      0x1b0 ../kernel/lib/CPU_B\libGCC_kernel.a(GCC_event_group_delete_force.o)
 .debug_frame   0x00009660       0xbc ../kernel/lib/CPU_B\libGCC_kernel.a(GCC_event_group_info.o)
 .debug_frame   0x0000971c      0x198 ../kernel/lib/CPU_B\libGCC_kernel.a(GCC_event_notify.o)
 .debug_frame   0x000098b4       0x8c ../kernel/lib/CPU_B\libGCC_kernel.a(GCC_event_ready_get.o)
 .debug_frame   0x00009940       0xbc ../kernel/lib/CPU_B\libGCC_kernel.a(GCC_event_try_wait.o)
 .debug_frame   0x000099fc      0x168 ../kernel/lib/CPU_B\libGCC_kernel.a(GCC_event_wait.o)
 .debug_frame   0x00009b64       0x2c ../kernel/lib/CPU_B\libGCC_kernel.a(GCC_fatal_error_raise.o)
 .debug_frame   0x00009b90       0x44 ../kernel/lib/CPU_B\libGCC_kernel.a(GCC_irq_resume.o)
 .debug_frame   0x00009bd4       0x44 ../kernel/lib/CPU_B\libGCC_kernel.a(GCC_irq_suspend.o)
 .debug_frame   0x00009c18       0x2c ../kernel/lib/CPU_B\libGCC_kernel.a(GCC_isr.o)
 .debug_frame   0x00009c44       0x8c ../kernel/lib/CPU_B\libGCC_kernel.a(GCC_isr_enter.o)
 .debug_frame   0x00009cd0       0xd4 ../kernel/lib/CPU_B\libGCC_kernel.a(GCC_isr_exit.o)
 .debug_frame   0x00009da4       0x2c ../kernel/lib/CPU_B\libGCC_kernel.a(GCC_isr_level_get.o)
 .debug_frame   0x00009dd0       0xbc ../kernel/lib/CPU_B\libGCC_kernel.a(GCC_mempart_alloc.o)
 .debug_frame   0x00009e8c      0x120 ../kernel/lib/CPU_B\libGCC_kernel.a(GCC_mempart_create.o)
 .debug_frame   0x00009fac       0xbc ../kernel/lib/CPU_B\libGCC_kernel.a(GCC_mempart_free.o)
 .debug_frame   0x0000a068       0xc0 ../kernel/lib/CPU_B\libGCC_kernel.a(GCC_mempart_info.o)
 .debug_frame   0x0000a128      0x184 ../kernel/lib/CPU_B\libGCC_kernel.a(GCC_message_queue_broadcast.o)
 .debug_frame   0x0000a2ac      0x138 ../kernel/lib/CPU_B\libGCC_kernel.a(GCC_message_queue_create.o)
 .debug_frame   0x0000a3e4      0x11c ../kernel/lib/CPU_B\libGCC_kernel.a(GCC_message_queue_delete.o)
 .debug_frame   0x0000a500      0x1b4 ../kernel/lib/CPU_B\libGCC_kernel.a(GCC_message_queue_delete_force.o)
 .debug_frame   0x0000a6b4       0xbc ../kernel/lib/CPU_B\libGCC_kernel.a(GCC_message_queue_flush.o)
 .debug_frame   0x0000a770       0xbc ../kernel/lib/CPU_B\libGCC_kernel.a(GCC_message_queue_info.o)
 .debug_frame   0x0000a82c      0x154 ../kernel/lib/CPU_B\libGCC_kernel.a(GCC_message_queue_receive.o)
 .debug_frame   0x0000a980      0x16c ../kernel/lib/CPU_B\libGCC_kernel.a(GCC_message_queue_send.o)
 .debug_frame   0x0000aaec      0x16c ../kernel/lib/CPU_B\libGCC_kernel.a(GCC_message_queue_send_first.o)
 .debug_frame   0x0000ac58       0xbc ../kernel/lib/CPU_B\libGCC_kernel.a(GCC_message_queue_try_receive.o)
 .debug_frame   0x0000ad14       0x2c ../kernel/lib/CPU_B\libGCC_kernel.a(GCC_os_init.o)
 .debug_frame   0x0000ad40       0x2c ../kernel/lib/CPU_B\libGCC_kernel.a(GCC_os_safety_critical.o)
 .debug_frame   0x0000ad6c       0x44 ../kernel/lib/CPU_B\libGCC_kernel.a(GCC_os_shutdown.o)
 .debug_frame   0x0000adb0       0x74 ../kernel/lib/CPU_B\libGCC_kernel.a(GCC_os_start.o)
 .debug_frame   0x0000ae24       0x8c ../kernel/lib/CPU_B\libGCC_kernel.a(GCC_sched_lock.o)
 .debug_frame   0x0000aeb0       0xd4 ../kernel/lib/CPU_B\libGCC_kernel.a(GCC_sched_unlock.o)
 .debug_frame   0x0000af84       0x8c ../kernel/lib/CPU_B\libGCC_kernel.a(GCC_semaphore.o)
 .debug_frame   0x0000b010       0xbc ../kernel/lib/CPU_B\libGCC_kernel.a(GCC_semaphore_count_get.o)
 .debug_frame   0x0000b0cc       0xd4 ../kernel/lib/CPU_B\libGCC_kernel.a(GCC_semaphore_count_set.o)
 .debug_frame   0x0000b1a0      0x138 ../kernel/lib/CPU_B\libGCC_kernel.a(GCC_semaphore_create.o)
 .debug_frame   0x0000b2d8      0x11c ../kernel/lib/CPU_B\libGCC_kernel.a(GCC_semaphore_delete.o)
 .debug_frame   0x0000b3f4      0x1b4 ../kernel/lib/CPU_B\libGCC_kernel.a(GCC_semaphore_delete_force.o)
 .debug_frame   0x0000b5a8      0x16c ../kernel/lib/CPU_B\libGCC_kernel.a(GCC_semaphore_give.o)
 .debug_frame   0x0000b714      0x154 ../kernel/lib/CPU_B\libGCC_kernel.a(GCC_semaphore_take.o)
 .debug_frame   0x0000b868       0xbc ../kernel/lib/CPU_B\libGCC_kernel.a(GCC_semaphore_try_take.o)
 .debug_frame   0x0000b924       0x2c ../kernel/lib/CPU_B\libGCC_kernel.a(GCC_sys_tick.o)
 .debug_frame   0x0000b950       0x8c ../kernel/lib/CPU_B\libGCC_kernel.a(GCC_sys_tick_get.o)
 .debug_frame   0x0000b9dc      0x154 ../kernel/lib/CPU_B\libGCC_kernel.a(GCC_sys_tick_increment.o)
 .debug_frame   0x0000bb30       0x8c ../kernel/lib/CPU_B\libGCC_kernel.a(GCC_sys_tick_set.o)
 .debug_frame   0x0000bbbc      0x138 ../kernel/lib/CPU_B\libGCC_kernel.a(GCC_task.o)
 .debug_frame   0x0000bcf4       0xa4 ../kernel/lib/CPU_B\libGCC_kernel.a(GCC_task_check_idle_stack.o)
 .debug_frame   0x0000bd98       0xd4 ../kernel/lib/CPU_B\libGCC_kernel.a(GCC_task_check_stack.o)
 .debug_frame   0x0000be6c      0x1fc ../kernel/lib/CPU_B\libGCC_kernel.a(GCC_task_create.o)
 .debug_frame   0x0000c068      0x108 ../kernel/lib/CPU_B\libGCC_kernel.a(GCC_task_delay.o)
 .debug_frame   0x0000c170      0x138 ../kernel/lib/CPU_B\libGCC_kernel.a(GCC_task_delay_cancel.o)
 .debug_frame   0x0000c2a8      0x1b4 ../kernel/lib/CPU_B\libGCC_kernel.a(GCC_task_delete.o)
 .debug_frame   0x0000c45c       0x8c ../kernel/lib/CPU_B\libGCC_kernel.a(GCC_task_get_by_priority.o)
 .debug_frame   0x0000c4e8       0xbc ../kernel/lib/CPU_B\libGCC_kernel.a(GCC_task_get_priority.o)
 .debug_frame   0x0000c5a4       0xbc ../kernel/lib/CPU_B\libGCC_kernel.a(GCC_task_info.o)
 .debug_frame   0x0000c660      0x120 ../kernel/lib/CPU_B\libGCC_kernel.a(GCC_task_resume.o)
 .debug_frame   0x0000c780      0x1a4 ../kernel/lib/CPU_B\libGCC_kernel.a(GCC_task_set_priority.o)
 .debug_frame   0x0000c924       0x8c ../kernel/lib/CPU_B\libGCC_kernel.a(GCC_task_statis_init.o)
 .debug_frame   0x0000c9b0      0x120 ../kernel/lib/CPU_B\libGCC_kernel.a(GCC_task_suspend.o)
 .debug_frame   0x0000cad0      0x1b8 ../kernel/lib/CPU_B\libGCC_kernel.a(GCC_os_cpu_c.o)
 .debug_frame   0x0000cc88      0x380 ../kernel/lib/CPU_B\libGCC_kernel.a(GCC_GM_PROSTACK_Ip.o)
 .debug_frame   0x0000d008      0x55c ../kernel/lib/CPU_B\libGCC_kernel.a(GCC_GM_PROSTACK_Ip_tsk.o)
 .debug_frame   0x0000d564      0x24c ../kernel/lib/CPU_B\libGCC_kernel.a(GCC_GM_PROSTACK_Udp.o)
 .debug_frame   0x0000d7b0       0xd8 ../kernel/lib/CPU_B\libGCC_kernel.a(GCC_GM_PROSTACK_Vote.o)
 .debug_frame   0x0000d888      0x36c ../kernel/lib/CPU_B\libGCC_kernel.a(GCC_GM_Tftp.o)
 .debug_frame   0x0000dbf4      0x2b4 ../kernel/lib/CPU_B\libGCC_kernel.a(GCC_BIT.o)
 .debug_frame   0x0000dea8      0x3e0 ../kernel/lib/CPU_B\libGCC_kernel.a(GCC_CONF_autho.o)
 .debug_frame   0x0000e288      0x540 ../kernel/lib/CPU_B\libGCC_kernel.a(GCC_CONF_dataset.o)
 .debug_frame   0x0000e7c8       0x7c ../kernel/lib/CPU_B\libGCC_kernel.a(GCC_Schedule_gentask.o)
 .debug_frame   0x0000e844       0x4c ../kernel/lib/CPU_B\libGCC_kernel.a(GCC_Drv_Can_Isr.o)
 .debug_frame   0x0000e890       0xc0 ../kernel/lib/CPU_B\libGCC_kernel.a(GCC_os_hooks.o)
 .debug_frame   0x0000e950      0x150 ../kernel/lib/CPU_B\libGCC_kernel.a(GCC_idletaskcreate.o)
 .debug_frame   0x0000eaa0       0x8c ../kernel/lib/CPU_B\libGCC_kernel.a(GCC_event.o)
 .debug_frame   0x0000eb2c       0x8c ../kernel/lib/CPU_B\libGCC_kernel.a(GCC_mempart.o)
 .debug_frame   0x0000ebb8       0x8c ../kernel/lib/CPU_B\libGCC_kernel.a(GCC_message_queue.o)
 .debug_frame   0x0000ec44       0x8c ../kernel/lib/CPU_B\libGCC_kernel.a(GCC_mutex.o)
 .debug_frame   0x0000ecd0      0x210 ../kernel/lib/CPU_B\libGCC_kernel.a(GCC_GM_PROSTACK_Arp.o)
 .debug_frame   0x0000eee0      0x10c ../kernel/lib/CPU_B\libGCC_kernel.a(GCC_GM_PROSTACK_Can.o)
 .debug_frame   0x0000efec      0x110 ../kernel/lib/CPU_B\libGCC_kernel.a(GCC_GM_PROSTACK_Cop.o)
 .debug_frame   0x0000f0fc      0x128 ../kernel/lib/CPU_B\libGCC_kernel.a(GCC_GM_PROSTACK_Eth.o)
 .debug_frame   0x0000f224       0x90 ../kernel/lib/CPU_B\libGCC_kernel.a(GCC_GM_PROSTACK_Icmp.o)
 .debug_frame   0x0000f2b4       0x64 ../kernel/lib/CPU_B\libGCC_kernel.a(GCC_CONF_check.o)

.debug_ranges   0x00000000      0x248
 .debug_ranges  0x00000000       0x10 ../kernel/lib/CPU_B\libGCC_kernel.a(GCC_VCU_Start.o)
 .debug_ranges  0x00000010       0x18 ../kernel/lib/CPU_B\libGCC_kernel.a(GCC_wdg.o)
 .debug_ranges  0x00000028       0x70 ../kernel/lib/CPU_B\libGCC_kernel.a(GCC_Drv_Boot_Module.o)
 .debug_ranges  0x00000098       0x88 ../kernel/lib/CPU_B\libGCC_kernel.a(GCC_Drv_Boot_Utils.o)
 .debug_ranges  0x00000120       0x20 ../kernel/lib/CPU_B\libGCC_kernel.a(GCC_Drv_Cache_Lib.o)
 .debug_ranges  0x00000140       0x10 ../kernel/lib/CPU_B\libGCC_kernel.a(GCC_Drv_MMU_Lib.o)
 .debug_ranges  0x00000150       0x10 ../kernel/lib/CPU_B\libGCC_kernel.a(GCC_Drv_SDRAM_Lib.o)
 .debug_ranges  0x00000160       0x18 ../kernel/lib/CPU_B\libGCC_kernel.a(GCC_exceptions.o)
 .debug_ranges  0x00000178       0x18 ../kernel/lib/CPU_B\libGCC_kernel.a(GCC_isr_enter.o)
 .debug_ranges  0x00000190       0x18 ../kernel/lib/CPU_B\libGCC_kernel.a(GCC_isr_exit.o)
 .debug_ranges  0x000001a8       0x20 ../kernel/lib/CPU_B\libGCC_kernel.a(GCC_VCU_Exception_Asm.o)
 .debug_ranges  0x000001c8       0x20 ../kernel/lib/CPU_B\libGCC_kernel.a(GCC_mcf5xxx_lo.o)
 .debug_ranges  0x000001e8       0x20 ../kernel/lib/CPU_B\libGCC_kernel.a(GCC_os_cpu_a.o)
 .debug_ranges  0x00000208       0x40 ../kernel/lib/CPU_B\libGCC_kernel.a(GCC_os_hooks.o)
