
Memory Configuration

Name             Origin             Length             Attributes
dummy            0x00000000         0x00000001         xrw
vector_ram       0x81000000         0x00000500         xrw
sram             0x81000000         0x00010000         xrw
sram_user        0x81000500         0x0000f700         xrw
sram_stack_boot  0x8100fc00         0x00000400         xrw
ext_sdram_data   0x44000000         0x01000000         xrw
ext_flash        0x20000000         0x00320000         xr
ext_flash_ES     0x20320000         0x00ce0000         xr
ext_sdram_code   0x40000000         0x00800000         xrw
*default*        0x00000000         0xffffffff

Linker script and memory map

LOAD ./out/CPU_B/GCC_mstep_isr.o
LOAD ./out/CPU_B/GCC_wdg_irq_handler.o
LOAD ./out/CPU_B/GCC_Drv_Sha1_Functions_Asm.o
LOAD ./out/CPU_B/GCC_Drv_Can_Isr_Asm.o
LOAD ./out/CPU_B/GCC_Drv_Fec_Isr_Asm.o
LOAD ./out/CPU_B/GCC_Drv_Timer_Isr_Asm.o
LOAD ./out/CPU_B/GCC_Drv_Uart_Vote_Isr_Asm.o
LOAD ./out/CPU_B/GCC_VCU_Exception_Asm.o
LOAD ./out/CPU_B/GCC_VCU_Start_Asm.o
LOAD ./out/CPU_B/GCC_mcf5xxx_lo.o
LOAD ./out/CPU_B/GCC_coldfire_cache.o
LOAD ./out/CPU_B/GCC_entry.o
LOAD ./out/CPU_B/GCC_os_cpu_a.o
LOAD ./out/CPU_B/GCC_mstep.o
LOAD ./out/CPU_B/GCC_BIT.o
LOAD ./out/CPU_B/GCC_BIT_fuse.o
LOAD ./out/CPU_B/GCC_BIT_survey.o
LOAD ./out/CPU_B/GCC_can.o
LOAD ./out/CPU_B/GCC_can_ard.o
LOAD ./out/CPU_B/GCC_can_config.o
LOAD ./out/CPU_B/GCC_can_emcy.o
LOAD ./out/CPU_B/GCC_can_od.o
LOAD ./out/CPU_B/GCC_can_odplug.o
LOAD ./out/CPU_B/GCC_can_open.o
LOAD ./out/CPU_B/GCC_can_saddle.o
LOAD ./out/CPU_B/GCC_can_safety.o
LOAD ./out/CPU_B/GCC_can_sdo.o
LOAD ./out/CPU_B/GCC_can_time.o
LOAD ./out/CPU_B/GCC_CONF.o
LOAD ./out/CPU_B/GCC_CONF_autho.o
LOAD ./out/CPU_B/GCC_CONF_check.o
LOAD ./out/CPU_B/GCC_CONF_dataset.o
LOAD ./out/CPU_B/GCC_CONF_local.o
LOAD ./out/CPU_B/GCC_CONF_reconf.o
LOAD ./out/CPU_B/GCC_CONF_src.o
LOAD ./out/CPU_B/GCC_FCODE.o
LOAD ./out/CPU_B/GCC_FILESYS.o
LOAD ./out/CPU_B/GCC_FILESYS_int.o
LOAD ./out/CPU_B/GCC_FILESYS_tftp.o
LOAD ./out/CPU_B/GCC_Flash.o
LOAD ./out/CPU_B/GCC_Flash_Async.o
LOAD ./out/CPU_B/GCC_Flash_Direct.o
LOAD ./out/CPU_B/GCC_gdf.o
LOAD ./out/CPU_B/GCC_gdf_dump_tools.o
LOAD ./out/CPU_B/GCC_LZW.o
LOAD ./out/CPU_B/GCC_MATH.o
LOAD ./out/CPU_B/GCC_osw.o
LOAD ./out/CPU_B/GCC_print.o
LOAD ./out/CPU_B/GCC_RECORD.o
LOAD ./out/CPU_B/GCC_RECORD_evt.o
LOAD ./out/CPU_B/GCC_RECORD_pda.o
LOAD ./out/CPU_B/GCC_RECORD_sector.o
LOAD ./out/CPU_B/GCC_RECORD_stat.o
LOAD ./out/CPU_B/GCC_RECORD_utl.o
LOAD ./out/CPU_B/GCC_Schedule.o
LOAD ./out/CPU_B/GCC_Schedule_gentask.o
LOAD ./out/CPU_B/GCC_Schedule_gta.o
LOAD ./out/CPU_B/GCC_Schedule_launcher.o
LOAD ./out/CPU_B/GCC_Schedule_utl.o
LOAD ./out/CPU_B/GCC_VCU_Start.o
LOAD ./out/CPU_B/GCC_SDB.o
LOAD ./out/CPU_B/GCC_SDB_api.o
LOAD ./out/CPU_B/GCC_SDB_intercpu.o
LOAD ./out/CPU_B/GCC_SDB_ioplug.o
LOAD ./out/CPU_B/GCC_SDB_update.o
LOAD ./out/CPU_B/GCC_SDB_updatelist.o
LOAD ./out/CPU_B/GCC_std.o
LOAD ./out/CPU_B/GCC_VOTE.o
LOAD ./out/CPU_B/GCC_VOTE_com.o
LOAD ./out/CPU_B/GCC_VOTE_tsk.o
LOAD ./out/CPU_B/GCC_wdg.o
LOAD ./out/CPU_B/GCC_viv.o
LOAD ./out/CPU_B/GCC_Drv_CAU_Lib.o
LOAD ./out/CPU_B/GCC_Drv_BID_Lib.o
LOAD ./out/CPU_B/GCC_Drv_Boot_Module.o
LOAD ./out/CPU_B/GCC_Drv_Boot_Utils.o
LOAD ./out/CPU_B/GCC_Drv_Cache_Lib.o
LOAD ./out/CPU_B/GCC_Drv_Can_Isr.o
LOAD ./out/CPU_B/GCC_Drv_Can_Lib.o
LOAD ./out/CPU_B/GCC_Drv_Fec_Lib.o
LOAD ./out/CPU_B/GCC_Drv_Flash_Parallel_Lib.o
LOAD ./out/CPU_B/GCC_Drv_Flash_Spi_Lib.o
LOAD ./out/CPU_B/GCC_Drv_Gpio.o
LOAD ./out/CPU_B/GCC_Drv_Led_Lib.o
LOAD ./out/CPU_B/GCC_Drv_MMU_Lib.o
LOAD ./out/CPU_B/GCC_Drv_SDRAM_Lib.o
LOAD ./out/CPU_B/GCC_Drv_Spi_Lib.o
LOAD ./out/CPU_B/GCC_Drv_Timer_Lib.o
LOAD ./out/CPU_B/GCC_Drv_Uart_Vote.o
LOAD ./out/CPU_B/GCC_bsp.o
LOAD ./out/CPU_B/GCC_exceptions.o
LOAD ./out/CPU_B/GCC_os_core.o
LOAD ./out/CPU_B/GCC_os_flag.o
LOAD ./out/CPU_B/GCC_os_hooks.o
LOAD ./out/CPU_B/GCC_os_mbox.o
LOAD ./out/CPU_B/GCC_os_mem.o
LOAD ./out/CPU_B/GCC_os_mutex.o
LOAD ./out/CPU_B/GCC_os_q.o
LOAD ./out/CPU_B/GCC_os_sem.o
LOAD ./out/CPU_B/GCC_os_task.o
LOAD ./out/CPU_B/GCC_os_time.o
LOAD ./out/CPU_B/GCC_arch_cache.o
LOAD ./out/CPU_B/GCC_core.o
LOAD ./out/CPU_B/GCC_coretask.o
LOAD ./out/CPU_B/GCC_idletaskcreate.o
LOAD ./out/CPU_B/GCC_cache_disable_data.o
LOAD ./out/CPU_B/GCC_cache_disable_instruction.o
LOAD ./out/CPU_B/GCC_cache_enable_data.o
LOAD ./out/CPU_B/GCC_cache_enable_instruction.o
LOAD ./out/CPU_B/GCC_cache_flush_data.o
LOAD ./out/CPU_B/GCC_cache_invalidate_data.o
LOAD ./out/CPU_B/GCC_cache_invalidate_instruction.o
LOAD ./out/CPU_B/GCC_counter.o
LOAD ./out/CPU_B/GCC_counter_create.o
LOAD ./out/CPU_B/GCC_counter_delete.o
LOAD ./out/CPU_B/GCC_counter_increment.o
LOAD ./out/CPU_B/GCC_counter_tick_get.o
LOAD ./out/CPU_B/GCC_counter_tick_set.o
LOAD ./out/CPU_B/GCC_event.o
LOAD ./out/CPU_B/GCC_event_clear.o
LOAD ./out/CPU_B/GCC_event_group_create.o
LOAD ./out/CPU_B/GCC_event_group_delete.o
LOAD ./out/CPU_B/GCC_event_group_delete_force.o
LOAD ./out/CPU_B/GCC_event_group_info.o
LOAD ./out/CPU_B/GCC_event_notify.o
LOAD ./out/CPU_B/GCC_event_ready_get.o
LOAD ./out/CPU_B/GCC_event_set.o
LOAD ./out/CPU_B/GCC_event_try_wait.o
LOAD ./out/CPU_B/GCC_event_wait.o
LOAD ./out/CPU_B/GCC_fatal_error_raise.o
LOAD ./out/CPU_B/GCC_irq_is_enabled.o
LOAD ./out/CPU_B/GCC_irq_resume.o
LOAD ./out/CPU_B/GCC_irq_suspend.o
LOAD ./out/CPU_B/GCC_isr.o
LOAD ./out/CPU_B/GCC_isr_enter.o
LOAD ./out/CPU_B/GCC_isr_exit.o
LOAD ./out/CPU_B/GCC_isr_level_get.o
LOAD ./out/CPU_B/GCC_mempart.o
LOAD ./out/CPU_B/GCC_mempart_alloc.o
LOAD ./out/CPU_B/GCC_mempart_create.o
LOAD ./out/CPU_B/GCC_mempart_free.o
LOAD ./out/CPU_B/GCC_mempart_info.o
LOAD ./out/CPU_B/GCC_message_queue.o
LOAD ./out/CPU_B/GCC_message_queue_broadcast.o
LOAD ./out/CPU_B/GCC_message_queue_create.o
LOAD ./out/CPU_B/GCC_message_queue_delete.o
LOAD ./out/CPU_B/GCC_message_queue_delete_force.o
LOAD ./out/CPU_B/GCC_message_queue_flush.o
LOAD ./out/CPU_B/GCC_message_queue_info.o
LOAD ./out/CPU_B/GCC_message_queue_receive.o
LOAD ./out/CPU_B/GCC_message_queue_send.o
LOAD ./out/CPU_B/GCC_message_queue_send_first.o
LOAD ./out/CPU_B/GCC_message_queue_try_receive.o
LOAD ./out/CPU_B/GCC_mutex.o
LOAD ./out/CPU_B/GCC_mutex_create.o
LOAD ./out/CPU_B/GCC_mutex_delete.o
LOAD ./out/CPU_B/GCC_mutex_delete_force.o
LOAD ./out/CPU_B/GCC_mutex_info.o
LOAD ./out/CPU_B/GCC_mutex_lock.o
LOAD ./out/CPU_B/GCC_mutex_try_lock.o
LOAD ./out/CPU_B/GCC_mutex_unlock.o
LOAD ./out/CPU_B/GCC_os_init.o
LOAD ./out/CPU_B/GCC_os_safety_critical.o
LOAD ./out/CPU_B/GCC_os_shutdown.o
LOAD ./out/CPU_B/GCC_os_start.o
LOAD ./out/CPU_B/GCC_sched_lock.o
LOAD ./out/CPU_B/GCC_sched_unlock.o
LOAD ./out/CPU_B/GCC_semaphore.o
LOAD ./out/CPU_B/GCC_semaphore_count_get.o
LOAD ./out/CPU_B/GCC_semaphore_count_set.o
LOAD ./out/CPU_B/GCC_semaphore_create.o
LOAD ./out/CPU_B/GCC_semaphore_delete.o
LOAD ./out/CPU_B/GCC_semaphore_delete_force.o
LOAD ./out/CPU_B/GCC_semaphore_give.o
LOAD ./out/CPU_B/GCC_semaphore_info.o
LOAD ./out/CPU_B/GCC_semaphore_take.o
LOAD ./out/CPU_B/GCC_semaphore_try_take.o
LOAD ./out/CPU_B/GCC_sys_tick.o
LOAD ./out/CPU_B/GCC_sys_tick_get.o
LOAD ./out/CPU_B/GCC_sys_tick_increment.o
LOAD ./out/CPU_B/GCC_sys_tick_set.o
LOAD ./out/CPU_B/GCC_task.o
LOAD ./out/CPU_B/GCC_task_check_idle_stack.o
LOAD ./out/CPU_B/GCC_task_check_stack.o
LOAD ./out/CPU_B/GCC_task_create.o
LOAD ./out/CPU_B/GCC_task_delay.o
LOAD ./out/CPU_B/GCC_task_delay_cancel.o
LOAD ./out/CPU_B/GCC_task_delete.o
LOAD ./out/CPU_B/GCC_task_get_by_priority.o
LOAD ./out/CPU_B/GCC_task_get_priority.o
LOAD ./out/CPU_B/GCC_task_info.o
LOAD ./out/CPU_B/GCC_task_resume.o
LOAD ./out/CPU_B/GCC_task_set_priority.o
LOAD ./out/CPU_B/GCC_task_statis_info.o
LOAD ./out/CPU_B/GCC_task_statis_init.o
LOAD ./out/CPU_B/GCC_task_suspend.o
LOAD ./out/CPU_B/GCC_timer.o
LOAD ./out/CPU_B/GCC_timer_cancel.o
LOAD ./out/CPU_B/GCC_timer_create.o
LOAD ./out/CPU_B/GCC_timer_delete.o
LOAD ./out/CPU_B/GCC_timer_set_abs.o
LOAD ./out/CPU_B/GCC_timer_set_rel.o
LOAD ./out/CPU_B/GCC_os_cpu_c.o
LOAD ./out/CPU_B/GCC_GM_Mathlib.o
LOAD ./out/CPU_B/GCC_GM_PROSTACK_Arp.o
LOAD ./out/CPU_B/GCC_GM_PROSTACK_Can.o
LOAD ./out/CPU_B/GCC_GM_PROSTACK_Cop.o
LOAD ./out/CPU_B/GCC_GM_PROSTACK_Eth.o
LOAD ./out/CPU_B/GCC_GM_PROSTACK_Icmp.o
LOAD ./out/CPU_B/GCC_GM_PROSTACK_Ip.o
LOAD ./out/CPU_B/GCC_GM_PROSTACK_Ip_tsk.o
LOAD ./out/CPU_B/GCC_GM_PROSTACK_Udp.o
LOAD ./out/CPU_B/GCC_GM_PROSTACK_Vote.o
LOAD ./out/CPU_B/GCC_GM_Tftp.o
LOAD ./out/CPU_B/GCC_guest.o
LOAD ./out/CPU_B/GCC_guest_fuse.o
LOAD ./out/CPU_B/GCC_guest_isolation.o
LOAD ./out/CPU_B/GCC_guest_outputport.o
LOAD ./out/CPU_B/GCC_guest_public.o
LOAD ./out/CPU_B/GCC_guest_readback.o
LOAD ./out/CPU_B/GCC_crc_result.o

.vector_ram     0x81000000        0x0

.sram           0x81000000        0x0

.ext_sdram_data
                0x44000000        0x0

.ext_flash      0x20000000        0x0

.sram_user      0x81000500        0x0

.ext_sdram_code
                0x40000000        0x0

.ext_flash_ES   0x20320000        0x0

.boot           0x20000000     0x2be4
                0x20000000                __START_VECTOR_ROM = .
 *(.textvectors)
 .textvectors   0x20000000      0x800 ./out/CPU_B/GCC_exceptions.o
                0x20000000                _BOOT_VECTOR_ROM
                0x20000400                _BOOT_VECTOR_TO_RAM
 *(.rodatavectors)
                0x20000800                __END_VECTOR_ROM = .
                0x20000800                __START_BOOT_ROM = .
 *(.textboot)
 .textboot      0x20000800        0xc ./out/CPU_B/GCC_VCU_Exception_Asm.o
                0x20000800                BOOT_MCF5441x_F_AsmRomExceptionHandler
 .textboot      0x2000080c       0x28 ./out/CPU_B/GCC_VCU_Start_Asm.o
                0x2000080c                _startup
                0x20000814                _VCU_BOOT_F_StartMeUp
 .textboot      0x20000834       0x56 ./out/CPU_B/GCC_mcf5xxx_lo.o
                0x20000834                BOOT_MCFXXXX_F_LoWrCacr
                0x20000840                BOOT_MCFXXXX_F_LoWrAcr0
                0x2000084c                BOOT_MCFXXXX_F_LoWrAcr1
                0x20000858                BOOT_MCFXXXX_F_LoWrAcr2
                0x20000864                BOOT_MCFXXXX_F_LoWrAcr3
                0x20000870                mcf5xxx_wr_vbr
                0x2000087c                _cpu_cache_flush
 .textboot      0x2000088a       0x80 ./out/CPU_B/GCC_VCU_Start.o
                0x2000088a                main
 .textboot      0x2000090a     0x1084 ./out/CPU_B/GCC_Drv_Boot_Module.o
                0x2000090a                BOOT_F_Init
                0x20000d00                BOOT_F_Set_uninit_var
                0x20000da4                BOOT_F_Copy_data_to_ram
                0x20001048                BOOT_F_Check_Flash_Crc
                0x200012ec                BOOT_F_IsHotReboot
                0x200012fa                BOOT_F_IsTransplantable
                0x20001308                BOOT_F_GetParameters
                0x200013fe                BOOT_F_FuseCheck
                0x2000182a                BOOT_F_CheckCRC32CCITT
                0x20001910                BOOT_F_IsRunningInRAM
                0x20001920                BOOT_F_MemoryTestSignatureGet
 .textboot      0x2000198e      0x87c ./out/CPU_B/GCC_Drv_Boot_Utils.o
                0x2000198e                BOOT_F_Fuse
                0x20001a64                Drv_Clk_F_Init
                0x20001b8e                Drv_FlexBus_F_Pin_Init
                0x20001bc0                Drv_CS_F_Init
                0x20001c5c                Drv_Spi_F_Pin_Init
                0x20001d00                Drv_Can_F_Pin_Init
                0x20001d76                Drv_Channel_Config_Pin_Init
                0x20001da6                Drv_CAN_ETH_F_Init
                0x20001dd6                Drv_CAN_ETH_F_Enable
                0x20001df6                Drv_Ext_WatchDog_F_Init
                0x20001e26                Drv_Uart_F_Pin_Init
                0x20001e58                Drv_Fec_F_Pin_Init
                0x20001e76                Drv_Eport_F_Init
                0x20001fee                Drv_Device_F_Power
                0x200020ea                Drv_Device_F_Pin_Init
 .textboot      0x2000220a      0x238 ./out/CPU_B/GCC_Drv_Cache_Lib.o
                0x2000220a                Drv_Cache_F_Init
                0x2000242a                Drv_Cache_F_Disable
 .textboot      0x20002442      0x118 ./out/CPU_B/GCC_Drv_MMU_Lib.o
                0x20002442                Drv_Mmu_Add_Region
 .textboot      0x2000255a      0x232 ./out/CPU_B/GCC_Drv_SDRAM_Lib.o
                0x2000255a                Drv_SDRAM_F_Init
 .textboot      0x2000278c       0x46 ./out/CPU_B/GCC_exceptions.o
                0x2000278c                BOOT_INT_HANDLERS_F_IrqHandler
 *(.rodataboot)
 *fill*         0x200027d2        0x2 
 .rodataboot    0x200027d4       0x10 ./out/CPU_B/GCC_Drv_Boot_Module.o
 .rodataboot    0x200027e4      0x400 ./out/CPU_B/GCC_Drv_Boot_Utils.o
                0x200027e4                BOOT_Table_CRC32_CCITT
 *(.rodataboot.str1.1)
                0x20002be4                . = ALIGN (0x4)
                0x20002be4                __END_BOOT_ROM = .
                0x20000000                __EXT_FLASH = ADDR (.boot)
                0x20002be4                __CRC_FLASH_START = (__EXT_FLASH + (__END_BOOT_ROM - __START_VECTOR_ROM))

.crc            0x20002be4       0x50
                0x20002be4                __CRC_ROM_START = .
                0x20002be4        0x4 LONG 0x23544845
                0x20002be8        0x4 LONG 0x53484f57
                0x20002bec        0x4 LONG 0x4d555354
                0x20002bf0        0x4 LONG 0x474f4f4e
 *(.CRC)
 .CRC           0x20002bf4       0x40 ./out/CPU_B/GCC_crc_result.o
                0x20002bf4                p_CPU_A_Crc_boot
                0x20002bf8                p_CPU_A_Crc_vector
                0x20002bfc                p_CPU_A_Crc_code
                0x20002c00                p_CPU_A_Crc_code_sram
                0x20002c04                p_CPU_A_Crc_sram
                0x20002c08                p_CPU_A_Crc_const_sram
                0x20002c0c                p_CPU_A_Crc_ext_sdram
                0x20002c10                p_CPU_A_Crc_const_ext_sdram
                0x20002c14                p_CPU_B_Crc_boot
                0x20002c18                p_CPU_B_Crc_vector
                0x20002c1c                p_CPU_B_Crc_code
                0x20002c20                p_CPU_B_Crc_code_sram
                0x20002c24                p_CPU_B_Crc_sram
                0x20002c28                p_CPU_B_Crc_const_sram
                0x20002c2c                p_CPU_B_Crc_ext_sdram
                0x20002c30                p_CPU_B_Crc_const_ext_sdram
                0x20002c34                . = ALIGN (0x4)
                0x20002c34                __CRC_ROM_END = .
                0x20002c34                __CODE_FLASH_START = (__CRC_FLASH_START + (__CRC_ROM_END - __CRC_ROM_START))

.code           0x40000000    0x9568c load address 0x20002c34
                0x40000000                __START_CODE_ROM = .
 *(.rodata.str1.1)
 *(.text)
 .text          0x40000000       0x42 ./out/CPU_B/GCC_mstep_isr.o
                0x40000000                MSTEP_ISR_F_GuestHandler
 *fill*         0x40000042        0x2 
 .text          0x40000044       0x50 ./out/CPU_B/GCC_wdg_irq_handler.o
                0x40000044                WDG_IRQ_HANDLER_F_Timer
 .text          0x40000094        0x0 ./out/CPU_B/GCC_Drv_Sha1_Functions_Asm.o
 .text          0x40000094      0x120 ./out/CPU_B/GCC_Drv_Can_Isr_Asm.o
                0x40000094                Drv_CAN_F_Asm_IsrCan0BusOff
                0x400000e4                Drv_CAN_F_Asm_IsrCan1BusOff
                0x40000134                Drv_CAN_F_Asm_IsrCan0Buffer
                0x40000174                Drv_CAN_F_Asm_IsrCan1Buffer
 .text          0x400001b4       0xa0 ./out/CPU_B/GCC_Drv_Fec_Isr_Asm.o
                0x400001b4                Drv_Fec_F_Asm_EthRxHandler
                0x40000204                Drv_Fec_F_Asm_EthRxHandler1
 .text          0x40000254      0x140 ./out/CPU_B/GCC_Drv_Timer_Isr_Asm.o
                0x40000254                Drv_Timer_F_Asm_Handler_0
                0x400002a4                Drv_Timer_F_Asm_Handler_1
                0x400002f4                Drv_Timer_F_Asm_Handler_2
                0x40000344                Drv_Timer_F_Asm_Handler_3
 .text          0x40000394       0xd0 ./out/CPU_B/GCC_Drv_Uart_Vote_Isr_Asm.o
                0x40000394                Drv_Uart_F_Asm_EndOfTxHandler
                0x400003e4                Drv_Uart_F_Asm_EndOfRxHandler
                0x40000424                Drv_Uart_F_Asm_RxHandler
 .text          0x40000464       0x46 ./out/CPU_B/GCC_VCU_Exception_Asm.o
                0x40000464                GDF_ISR_F_Asm_FuseXirq
                0x4000048e                OSAsmExceptionHandler
 *fill*         0x400004aa        0x2 
 .text          0x400004ac        0x0 ./out/CPU_B/GCC_VCU_Start_Asm.o
 .text          0x400004ac       0x16 ./out/CPU_B/GCC_mcf5xxx_lo.o
                0x400004ac                BOOT_MCFXXXX_F_LoWrCacr1
                0x400004b8                mcf5xxx_wr_sr
 *fill*         0x400004c2        0x2 
 .text          0x400004c4        0x0 ./out/CPU_B/GCC_coldfire_cache.o
 .text          0x400004c4        0x0 ./out/CPU_B/GCC_entry.o
 .text          0x400004c4       0x24 ./out/CPU_B/GCC_os_cpu_a.o
                0x400004c4                OS_CPU_SR_Save
                0x400004d4                OS_CPU_SR_Restore
                0x400004d8                OSInitVBR
 .text          0x400004e8     0x1c04 ./out/CPU_B/GCC_mstep.o
                0x400004e8                MSTEP_F_PDAAskFlush
                0x40000508                MSTEP_F_PDAWrite
                0x40000582                MSTEP_F_PDARead
                0x40000608                MSTEP_F_PDAReserveArea
                0x40000776                MSTEP_F_TftpServiceSubscribe
                0x40000812                MSTEP_F_MaintSNTPServerAvailability
                0x40000824                MSTEP_F_MaintVersionsGet
                0x400008c8                MSTEP_F_MaintCanBusStatusGet
                0x40000982                MSTEP_F_CryptlibKeyScramble
                0x400009a6                MSTEP_F_StatIpstackInternalFrameDropGet
                0x40000a14                MSTEP_F_StatFecOverflowCountGet
                0x40000a28                MSTEP_F_StatCPUUsageGet
                0x40000a42                MSTEP_F_StatCPUUsageMaxGet
                0x40000a5c                MSTEP_F_StatFSFB2NbBrokenSessionGet
                0x40000a6c                MSTEP_F_StatNbEthCrcErrorGet
                0x40000a84                MSTEP_F_StatNbEthCrcOkGet
                0x40000aa8                MSTEP_F_UDPSend
                0x40000b4a                MSTEP_F_UDPFlush
                0x40000b8a                MSTEP_F_UDPRecv
                0x40000ca2                MSTEP_F_UDPClose
                0x40000ce2                MSTEP_F_UDPOpen
                0x40000d80                MSTEP_F_GetSoftwareDataID
                0x40000df0                MSTEP_F_SpiProcess
                0x40000ff4                MSTEP_F_CpuIdGet
                0x4000100e                MSTEP_F_GpioRead
                0x40001050                MSTEP_F_GpioToggle
                0x40001094                MSTEP_F_GpioSetOff
                0x400010d8                MSTEP_F_GpioSetOn
                0x4000111c                MSTEP_F_CanActiveBusGet
                0x4000113c                MSTEP_F_ConfigBoardEthMacAddressGet
                0x400011a8                MSTEP_F_TimeGet
                0x400011e8                MSTEP_F_ConfigBoardPositionGet
                0x40001256                MSTEP_F_PeriodTableMinGet
                0x400012c4                MSTEP_F_SafetyFlagBreak
                0x4000133a                MSTEP_F_SafetyFlagChkWdGet
                0x400013b6                MSTEP_F_ConfigGuestSubAreaGet
                0x400013f6                MSTEP_F_CryptlibDESCompute
                0x40001486                MSTEP_F_CryptlibCRC32FSFB2ChanOneCompute
                0x40001506                MSTEP_F_CryptlibCRC32CCITTCompute
                0x400015a8                MSTEP_F_CryptlibCRC16CCITTCompute
                0x40001622                MSTEP_F_K2oo2CycleBegin
                0x40001630                MSTEP_F_K2oo2CycleEndExt
                0x4000168e                MSTEP_F_K2oo2CpuWaitExt
                0x40001704                MSTEP_F_K2oo2CpuSendExt
                0x400017a8                MSTEP_F_K2oo2CpuExchangeExt
                0x4000184c                MSTEP_F_GuestTaskIdGet
                0x400018be                MSTEP_F_NotifyEndOfRestrictiveTransition
                0x4000190c                MSTEP_F_TaskFlagSet
                0x4000198e                MSTEP_F_IodbRequest
                0x40001a16                MSTEP_F_IodbSubmit
                0x40001a5a                MSTEP_F_IsrAck
                0x40001a94                MSTEP_F_IsrConfigure
                0x40001b68                MSTEP_F_IsrDisable
                0x40001ba2                MSTEP_F_IsrEnable
                0x40001bdc                MSTEP_F_StatInit
                0x40001c06                MSTEP_F_StatEnable
                0x40001c1a                MSTEP_F_StatIsEnabled
                0x40001c2e                MSTEP_F_StatDisable
                0x40001c42                MSTEP_F_StatReset
                0x40001c56                MSTEP_F_StatStoreValue
                0x40001c6e                MSTEP_F_StatGetGlobalMinValue
                0x40001c86                MSTEP_F_StatGetGlobalMaxValue
                0x40001c9e                MSTEP_F_StatGetGlobalNbValues
                0x40001cb8                MSTEP_F_StatGetGlobalSumValue
                0x40001cd0                MSTEP_F_StatGetGlobalAverageValue
                0x40001ce8                MSTEP_F_StatGetMinValueFromRecords
                0x40001d00                MSTEP_F_StatGetMaxValueFromRecords
                0x40001d18                MSTEP_F_StatGetAverageValueFromRecords
                0x40001d30                MSTEP_F_StatResetStopwatch
                0x40001d46                MSTEP_F_StatStartStopwatch
                0x40001d5a                MSTEP_F_StatStopStopwatch
                0x40001d6e                MSTEP_F_StatStopwatchElapsedTime
                0x40001d86                MSTEP_F_CommonTimeGet
                0x40001e08                MSTEP_F_FaultFilteringAcknowledge
                0x40001e18                MSTEP_F_FaultFilteringStateGet
                0x40001e50                MSTEP_F_IodbNotificationAdd
                0x40001ed4                MSTEP_F_IsCommonTimeSynchronized
                0x40001ee2                MSTEP_F_NbFaultFilteringRebootGet
                0x40001ef0                MSTEP_F_K2oo2StatGet
                0x40001f30                MSTEP_F_RegisterTriggeredFunction
                0x40001fea                MSTEP_F_StatNumberOfIpConflictDetectedGet
                0x40001ff8                MSTEP_F_TFTPClientWrite
                0x400020d0                MSTEP_F_SyncCurNumGet
                0x400020de                MSTEP_F_PDORestrictStatusGet
 .text          0x400020ec     0x2324 ./out/CPU_B/GCC_BIT.o
                0x400020ec                BIT_F_FaultFilteringTimerStart
                0x4000215a                BIT_F_IsFaultFilteringAllowed
                0x40002196                BIT_F_DistantCpuPowerSupervision
                0x40002258                BIT_F_GetDistantPowerSupplyFailure
                0x40002266                BIT_F_ResetBoard
                0x4000235c                BIT_F_CheckUnusedMem
                0x4000250c                BIT_F_PerformAction
                0x400029ea                BIT_F_AbrahamInit
                0x40002a7e                BIT_F_AbrahamStep1
                0x40002b9e                BIT_F_AbrahamStep2
                0x40002cbe                BIT_F_AbrahamStep3
                0x40002dde                BIT_F_AbrahamStep4
                0x40002efe                BIT_F_AbrahamStep5
                0x40003026                BIT_F_AbrahamStep6
                0x4000314e                BIT_F_AbrahamReset
                0x4000321e                BIT_F_AbrahamStep7
                0x40003346                BIT_F_AbrahamStep8
                0x4000346e                BIT_F_AbrahamTestBoot
                0x4000359a                BIT_F_AbrahamTestLive
                0x40003ab0                BIT_F_CheckMemoryLive
                0x40003c8a                BIT_F_Create
                0x40003d8e                BIT_F_Config
                0x40003dd2                BIT_F_Start
                0x40003e78                BIT_F_EndRebootLoggedCallback
                0x40004010                BIT_F_Task
                0x400043be                BIT_F_IsTaskActivated
 .text          0x40004410     0x19c0 ./out/CPU_B/GCC_BIT_fuse.o
                0x40004410                BIT_FUSE_F_FuseInit
                0x40004980                BIT_FUSE_F_IsFlashAsyncFinished
                0x40004996                BIT_FUSE_F_EndFlashAsync
                0x40004a06                BIT_FUSE_F_EndReprogAsync
                0x40004aba                BIT_FUSE_F_FusesReadFromAddr
                0x40004be4                BIT_FUSE_F_FuseToggleRead
                0x40004c74                BIT_FUSE_F_AddressFuseGet
                0x40004e0a                BIT_FUSE_F_FusesRead
                0x40004e9c                BIT_FUSE_F_FuseSectorErase
                0x40004f5a                BIT_FUSE_F_AddressIdFuseGet
                0x40005062                BIT_FUSE_F_FusesWrite
                0x400051c2                BIT_FUSE_F_FuseCheck
                0x4000580c                BIT_F_SafetyFlagBreak
                0x400059ca                BIT_FUSE_F_SysChkWdInit
                0x40005a9a                BIT_F_SysChkWdReset
                0x40005ab6                BIT_F_SysChkWdGet
                0x40005b0a                BIT_F_RestoreFlag
                0x40005d38                BIT_F_SafetyFlagChkWdGet
 .text          0x40005dd0     0x18a8 ./out/CPU_B/GCC_BIT_survey.o
                0x40005dd0                BIT_F_FlashCrcsCheckStart
                0x40005de2                BIT_F_ComputeCrcWithTimeDly
                0x40005f42                BIT_F_VectorTableLock
                0x40005fc8                BIT_F_DcaSectionLock
                0x400060c4                BIT_SURVEY_F_Init
                0x400061c0                BIT_SURVEY_F_TaskCheck
                0x4000634e                BIT_SURVEY_F_FreeTasksStackLevelCheck
                0x4000654c                BIT_SURVEY_F_FreeItStackLevelCheck
                0x400065fc                BIT_SURVEY_F_CpuUsageCheck
                0x40006816                BIT_SURVEY_F_OSPrioTcbCrcCheck
                0x400068b6                BIT_SURVEY_F_SwFuseCheck
                0x400069ea                BIT_SURVEY_F_CrcCheckIdGet
                0x40006a90                BIT_SURVEY_F_SectionStartAndLengthGet
                0x40006c4e                BIT_SURVEY_F_ComputeCrc
                0x40006e08                BIT_SURVEY_F_LocalReferenceCrcGet
                0x40006ec2                BIT_SURVEY_F_DistantReferenceCrcGet
                0x40006f7c                BIT_SURVEY_F_CheckExecutionCounterUpdate
                0x40007154                BIT_SURVEY_F_GetRequiredCycles
                0x4000728a                BIT_SURVEY_F_CrcsCheck
                0x4000744c                BIT_SURVEY_F_IsCrcAndFuseCheckAllowed
                0x40007582                BIT_F_GetParameters
 .text          0x40007678     0x1e42 ./out/CPU_B/GCC_can.o
                0x40007678                CAN_F_IsCanMaster
                0x4000769a                CAN_F_ConfigBoardTypeGet
                0x400076a8                CAN_F_IsRunningModeDetermined
                0x400076d4                CAN_F_MyModuleIdGet
                0x40007718                CAN_F_MyNodeIdGet
                0x40007726                CAN_F_MasterStatusGet
                0x40007734                CAN_F_TimerReset
                0x400077c8                CAN_F_TimerCountReset
                0x400077d8                CAN_F_InitArdSaddle
                0x40007804                CAN_F_InitModuleInfoKey
                0x400078e6                CAN_F_PrepareBootWithFuseInfo
                0x4000790c                CAN_F_CanBusActiveChannelGet
                0x4000791a                CAN_F_CanMgtMessageTreat
                0x40007ca2                CAN_F_CanMgtSyncMessageProcess
                0x40007e3c                CAN_F_CanMgtHbMessageProcess
                0x40007fd6                CAN_F_CanMgtMessageProcess
                0x4000820a                CAN_F_CanMgtFlagProcess
                0x4000839e                CAN_F_MgtTask
                0x40008410                CAN_F_FlushFifo
                0x40008546                CAN_F_MgtStart
                0x40008766                CAN_F_FlashingValueGet
                0x4000880a                CAN_F_TimerModeNotDefinedHandler
                0x40008828                CAN_F_TimerModeDefinedHandler
                0x40008b4c                CAN_F_TimerHandler
                0x40008bbe                CAN_F_MgtCreate
                0x40008e36                CAN_F_SwitchMode
                0x40008eba                CAN_F_MgtCanMessagePost
                0x40009228                CAN_F_FlashingManage
                0x4000927a                CAN_F_IPoverCANVersionGet
                0x400092ca                CAN_F_IsDistantODSupported
                0x40009374                CAN_F_MasterStatusSet
                0x400093ec                CAN_F_InternalStateGet
 *fill*         0x400094ba        0x2 
 .text          0x400094bc      0xf64 ./out/CPU_B/GCC_can_ard.o
                0x400094bc                CAN_ARD_F_SendFragmentationFlagClear
                0x400094ce                CAN_ARD_F_FirstFrameMemblockGet
                0x400094fe                CAN_ARD_F_ReleaseFrame
                0x40009580                CAN_ARD_F_SendFrame
                0x400097b8                CAN_ARD_F_ReserveFreeFrame
                0x400098a4                CAN_ARD_F_GetFragmentToSend
                0x40009cd8                CAN_ARD_F_RecvFrame
                0x4000a2e4                CAN_ARD_F_Init
 .text          0x4000a420      0x9b4 ./out/CPU_B/GCC_can_config.o
                0x4000a420                CAN_CONF_F_GetCobIDMinRx
                0x4000a42e                CAN_CONF_F_GetCobIDMaxRx
                0x4000a43c                CAN_CONF_F_GetCobIDMinStandby
                0x4000a44a                CAN_CONF_F_GetCobIDMaxStandby
                0x4000a458                CAN_CONF_F_GetFlashingPeriod
                0x4000a466                CAN_CONF_F_MinMaxBuild
                0x4000a708                CAN_CONF_F_GetTxPDOStruct
                0x4000a776                CAN_CONF_F_GetNbOfTxPDO
                0x4000a7dc                CAN_CONF_F_GetRxPDOStruct
                0x4000a84a                CAN_CONF_F_GetNbOfRxPDO
                0x4000a8b0                CAN_CONF_F_Init
                0x4000a8c6                CAN_CONF_F_SafeDataConsistencyCheck
                0x4000ad2c                CAN_CONF_F_ConfCheckAndBuild
                0x4000ad8a                CAN_CONF_F_IsStepperRedundancy
                0x4000ad98                CAN_CONF_F_RedundancyBuild
 .text          0x4000add4      0x520 ./out/CPU_B/GCC_can_emcy.o
                0x4000add4                CAN_F_EmcyGet
                0x4000ae8e                CAN_EMCY_F_EmcyReceive
                0x4000b168                CAN_F_EmcySend
                0x4000b2d4                CAN_EMCY_F_Init
 .text          0x4000b2f4     0x19dc ./out/CPU_B/GCC_can_od.o
                0x4000b2f4                CAN_OD_F_OdInit
                0x4000b89e                CAN_OD_F_TableIndexFind
                0x4000ba2e                CAN_OD_F_IsMonitoringDatasTable
                0x4000bb2e                CAN_OD_F_IndexTableCheck
                0x4000bcce                CAN_OD_F_SdoChannelGet
                0x4000bd96                CAN_OD_F_ObjectTypeGet
                0x4000bfb8                CAN_OD_F_OdObjectSet
                0x4000c1d8                CAN_OD_F_ODDataSet
                0x4000c34a                CAN_F_SdoObjectSet
                0x4000c4f0                CAN_OD_F_OdObjectGet
                0x4000c6f0                CAN_OD_F_ODDataGet
                0x4000c8cc                CAN_F_SdoObjectGet
                0x4000cc80                CAN_F_ODVersionGet
 .text          0x4000ccd0      0x34c ./out/CPU_B/GCC_can_odplug.o
                0x4000ccd0                CAN_ODPLUG_F_Init
                0x4000ccf8                CAN_ODPLUG_F_CheckFilter
                0x4000ce76                CAN_ODPLUG_F_AddRule
 .text          0x4000d01c     0x2c38 ./out/CPU_B/GCC_can_open.o
                0x4000d01c                CAN_F_GuestIsStarted
                0x4000d09e                CAN_F_NmtCubicleStatusGet
                0x4000d140                CAN_F_MaintenanceInfoGet
                0x4000d292                CAN_F_ModuleIsPresent
                0x4000d35a                CAN_F_NmtIsNormalBoardHere
                0x4000d54a                CAN_OPEN_F_MasterModeSet
                0x4000d596                CAN_OPEN_F_MasterOperationalStateSet
                0x4000d688                CAN_OPEN_F_CanOpenStatusInit
                0x4000d6f0                CAN_OPEN_F_Init
                0x4000d892                CAN_OPEN_F_NmtSend
                0x4000daf4                CAN_OPEN_F_NmtProcess
                0x4000ded0                CAN_OPEN_F_HeartBeatSend
                0x4000e224                CAN_OPEN_F_HeartBeatProcess
                0x4000e96e                CAN_OPEN_F_BusOffProcess
                0x4000eb2c                CAN_OPEN_F_MediumOutOfOrder
                0x4000ecd6                CAN_OPEN_F_TimeStampSend
                0x4000ee30                CAN_OPEN_F_SyncSend
                0x4000ef3e                CAN_OPEN_F_StatsNmtManage
                0x4000f038                CAN_OPEN_F_NmtStartNode
                0x4000f1b0                CAN_OPEN_F_MyStatusGet
                0x4000f1f6                CAN_OPEN_F_ModuleStatusGet
                0x4000f4d0                CAN_OPEN_F_IsNodeHere
                0x4000f620                CAN_OPEN_F_Flush
                0x4000f6f4                CAN_OPEN_F_BusSwitch
                0x4000f7d8                CAN_OPEN_F_ODVersionSet
                0x4000f836                CAN_OPEN_F_ModuleIdInternalStateGet
                0x4000fa7e                CAN_OPEN_F_IPoverCANVersionSet
                0x4000fadc                CAN_OPEN_F_DecodeHeartBeat
 .text          0x4000fc54      0xb90 ./out/CPU_B/GCC_can_saddle.o
                0x4000fd36                CAN_F_SaddleExtractCanPrio
                0x4000feec                CAN_F_SaddleProtocolSubscribe
                0x40010050                CAN_SADDLE_F_StoreRecvFrame
                0x400102e2                CAN_F_SaddleRecv
                0x4001057a                CAN_F_SaddleSend
                0x400107ae                CAN_SADDLE_F_Init
 .text          0x400107e4     0x1b04 ./out/CPU_B/GCC_can_safety.o
                0x400107e4                CAN_F_SafetyConfigure
                0x40010814                CAN_SAFETY_F_NextSyncNumberToSendGet
                0x400108c0                CAN_SAFETY_F_GetCurrentSyncNumberRecv
                0x400108ce                CAN_SAFETY_F_CanMessagePost
                0x40010c50                CAN_SAFETY_F_SafetyIDFind
                0x40010d6a                CAN_SAFETY_F_SafetyLayerBuild
                0x40010e90                CAN_SAFETY_F_PdoIdFind
                0x40010f90                CAN_SAFETY_F_PdoSend
                0x400110b8                CAN_SAFETY_F_PdosFindAndSend
                0x4001119c                CAN_SAFETY_F_SafetyLayerCheck
                0x400113f6                CAN_SAFETY_F_PdoCheckAndWrite
                0x400115f0                CAN_SAFETY_F_PdoReceptionMgt
                0x4001168e                CAN_SAFETY_F_SyncConsistencyCheck
                0x400117a6                CAN_F_GetBooleanRedundancyDefault
                0x40011890                CAN_SAFETY_F_PdoIdConversionTableBuildFor
                0x40011a00                CAN_F_SafetyCreate
                0x40011bdc                CAN_F_SafetyConfig
                0x40011be6                CAN_F_SafetyStart
                0x40011cc4                CAN_F_SafetyTask
 .text          0x400122e8     0x798e ./out/CPU_B/GCC_can_sdo.o
                0x400122e8                CAN_SDO_F_ConvertErrorCode
                0x40012374                CAN_SDO_F_ClientGet
                0x4001258c                CAN_SDO_F_DisplayErr
                0x400125c2                CAN_SDO_F_ClientPrepare
                0x400129d8                CAN_SDO_F_SdoPost
                0x400130b0                CAN_SDO_F_Send
                0x40013354                CAN_SDO_F_TempoChange
                0x400133e6                CAN_SDO_F_ReleaseWaitSemaphore
                0x400134a6                CAN_SDO_F_AllSegmentReceived
                0x40013538                CAN_SDO_F_EraseCurrentBlockInfo
                0x40013590                CAN_SDO_F_InitGlobalSDOParameter
                0x40013702                CAN_SDO_F_ResetContext
                0x40013794                CAN_SDO_F_EndBlockDownload
                0x400139dc                CAN_SDO_F_EndBlockUpload
                0x40013b76                CAN_SDO_F_DownloadBlock
                0x40013e16                CAN_SDO_F_UploadBlock
                0x4001404c                CAN_SDO_F_InitiateBlockDownload
                0x400142c6                CAN_SDO_F_InitiateBlockUpload
                0x40014500                CAN_SDO_F_DownloadSegment
                0x400147fa                CAN_SDO_F_UploadSegment
                0x40014bb0                CAN_SDO_F_Abort
                0x40014cfe                CAN_SDO_F_ClientTransfertEnd
                0x40015708                CAN_SDO_F_ClientTransfertWait
                0x40015840                CAN_SDO_F_isCommunicationOpened
                0x400159b0                CAN_SDO_F_checkIndexSubindex
                0x40015b1a                CAN_SDO_F_MessageBlkTransfer
                0x40015f38                CAN_SDO_F_InitiateDownload
                0x400162d4                CAN_SDO_F_InitiateUpload
                0x40016610                CAN_SDO_F_ClientSendIfNew
                0x40016ad8                CAN_SDO_F_TempoChannelUpdate
                0x40016bc4                CAN_SDO_F_ClientProceedEnd
                0x40016c1c                CAN_SDO_F_AbortCommand_0x4
                0x40016e44                CAN_SDO_F_Req_Com_0x0
                0x400172ae                CAN_SDO_F_Req_Com_0x1
                0x4001770a                CAN_SDO_F_Req_Com_0x2
                0x40017814                CAN_SDO_F_Req_Com_0x3
                0x40017940                CAN_SDO_F_Req_Com_0x5_Sub_0x0
                0x40017bee                CAN_SDO_F_Req_Com_0x5_Sub_0x2
                0x40017cc0                CAN_SDO_F_Req_Com_0x5
                0x40017e36                CAN_SDO_F_Req_Com_0x6
                0x400184d2                CAN_SDO_F_ProceedRequest
                0x400186da                CAN_SDO_F_Resp_Com_0x0
                0x40018ac2                CAN_SDO_F_Resp_Com_0x1
                0x40018bea                CAN_SDO_F_Resp_Com_0x2
                0x40018fc4                CAN_SDO_F_Resp_Com_0x3
                0x400190bc                CAN_SDO_F_Resp_Com_0x5_Sub_0x0
                0x40019200                CAN_SDO_F_Resp_Com_0x5_Sub_0x2
                0x400192da                CAN_SDO_F_Resp_Com_0x5
                0x40019460                CAN_SDO_F_Resp_Com_0x6_Sub_0x0
                0x400196d6                CAN_SDO_F_Resp_Com_0x6_Sub_0x1
                0x40019914                CAN_SDO_F_Resp_Com_0x6
                0x400199be                CAN_SDO_F_ProceedResponse
 *fill*         0x40019c76        0x2 
 .text          0x40019c78      0x95a ./out/CPU_B/GCC_can_time.o
                0x40019cc4                CAN_F_TimeCanOpenGet
                0x40019d06                CAN_TIME_F_Init
                0x40019d60                CAN_TIME_F_CanTimeGet
                0x40019d6e                CAN_TIME_F_HeartBeatCycleGet
                0x40019d7c                CAN_TIME_F_HeartBeatCycleSet
                0x40019d90                CAN_TIME_F_HeartBeatCycleReset
                0x40019da0                CAN_F_TimeNtpSet
                0x40019ef4                CAN_F_TimeNtpGet
                0x4001a020                CAN_TIME_F_TimeStampGet
                0x4001a088                CAN_TIME_F_TimeStampSet
                0x4001a204                CAN_TIME_F_TimeStampUpdate
                0x4001a440                CAN_TIME_F_CanTimeUpdate
                0x4001a4fe                CAN_TIME_F_HeartBeatPeriodGet
                0x4001a50c                CAN_TIME_F_HeartBeatSpreadAndPeriodInitialize
 *fill*         0x4001a5d2        0x2 
 .text          0x4001a5d4      0x4bc ./out/CPU_B/GCC_CONF.o
                0x4001a5d4                CONF_F_SetConfKeyStatus
                0x4001a5e8                CONF_F_GetConfKeyStatus
                0x4001a5f6                CONF_F_ValidationFuncSubscribe
                0x4001a684                CONF_F_ExternalValidation
                0x4001a7d0                CONF_F_OKNotificationCbSubscribe
                0x4001a85e                CONF_F_NotifyOkCallBack
                0x4001a902                CONF_F_GetModuleIoInfo
                0x4001aa22                CONF_F_FaultFilteringAcknowledge
                0x4001aa5e                CONF_F_ReconfReparamVersionGet
 .text          0x4001aa90     0x3816 ./out/CPU_B/GCC_CONF_autho.o
                0x4001aa90                CONF_AUTHO_F_PrintBootFailedInf
                0x4001ab10                CONF_AUTHO_F_InitializeAndEnableStatistic
                0x4001ab90                CONF_AUTHO_F_StatisticsInitialization
                0x4001abac                CONF_AUTHO_F_IsBootFailedConditionFulfilled
                0x4001ae08                CONF_AUTHO_F_IsNominalConditionFulfilled
                0x4001af5c                CONF_AUTHO_F_IsDatasetConfValid
                0x4001b156                CONF_AUTHO_F_IsElectronicStampFoolProofingOK
                0x4001b31e                CONF_F_IsBoardMaster
                0x4001b328                CONF_AUTHO_F_FreeTFTPDataBlockGet
                0x4001b390                CONF_AUTHO_F_AnalyzeEstampStatus
                0x4001b448                CONF_AUTHO_F_GetFunctionalModeVoted
                0x4001b728                CONF_F_PrepareBootWithFuseInfo
                0x4001b79a                CONF_F_FinalizeBootWithFuseInfo
                0x4001b7b2                CONF_AUTHO_F_CreateXXXFile
                0x4001b866                CONF_AUTHO_F_CreateModuleDatasetFiles
                0x4001bae2                CONF_AUTHO_F_AddKeySourceToMyModuleDatasetFiles
                0x4001bc40                CONF_AUTHO_F_AddSourcesToModuleDatasetDataFiles
                0x4001be38                CONF_AUTHO_F_NextFileForFootprintCalculation
                0x4001c114                CONF_AUTHO_F_FootprintFileWrite
                0x4001c34a                CONF_AUTHO_F_FootprintCalculation
                0x4001c5d6                CONF_AUTHO_F_GetAuthorizationData
                0x4001c870                CONF_AUTHO_F_GetAuthorizationType
                0x4001c8dc                CONF_AUTHO_F_CheckAuthorizationFreshness
                0x4001c942                CONF_AUTHO_F_CheckAuthorizationIntegrity
                0x4001cad6                CONF_AUTHO_F_GetFootprintVerificationStatusVoted
                0x4001cbd0                CONF_AUTHO_F_CheckAuthorization
                0x4001ceda                CONF_AUTHO_F_ModuleDatasetStorageAndStartBistFlashCheckCb
                0x4001cf86                CONF_AUTHO_F_StoreFileInFlash
                0x4001d11a                CONF_AUTHO_F_StoreModuleDatasetAndStartBistFlashCheck
                0x4001d482                CONF_AUTHO_F_SetMyModuleDatasetToOutdated
                0x4001d6c0                CONF_AUTHO_F_CheckModuleDatasetAuthorization
                0x4001d816                CONF_AUTHO_F_FootprintComputationReset
                0x4001d828                CONF_AUTHO_F_InvalidateModuleDatasetsCache
                0x4001d856                CONF_AUTHO_F_SetRunningMode
                0x4001d9e2                CONF_F_Create
                0x4001dd06                CONF_F_Config
                0x4001dd48                CONF_F_Start
                0x4001e0de                CONF_F_Task
 *fill*         0x4001e2a6        0x2 
 .text          0x4001e2a8      0x9f8 ./out/CPU_B/GCC_CONF_check.o
                0x4001e2a8                CONF_CHECK_F_CheckDataRange
                0x4001e30a                CONF_CHECK_F_InitAtDefaultValue
                0x4001e574                CONF_CHECK_F_CheckKeyArea
 .text          0x4001eca0     0x3f04 ./out/CPU_B/GCC_CONF_dataset.o
                0x4001eca0                CONF_DATASET_F_InitModuleAreaMotherTable
                0x4001f2ee                CONF_DATASET_F_InitDatasetConf
                0x4001f5d8                CONF_DATASET_F_IsBoardIntA
                0x4001f64a                CONF_DATASET_F_FuseIfNotBoardIntA
                0x4001f6c8                CONF_DATASET_F_GetModuleBoardCode
                0x4001f704                CONF_DATASET_F_GetOverTempThreshold
                0x4001f73e                CONF_DATASET_F_GetModuleDataVersion
                0x4001f77a                CONF_DATASET_F_GetCanFlashingPeriod
                0x4001f7ae                CONF_DATASET_F_IsFaultFiltering_Active
                0x4001f7e8                CONF_DATASET_F_GetOutputSafeData
                0x4001f824                CONF_DATASET_F_GetInputSafeData
                0x4001f860                CONF_DATASET_F_GetGenericRedundancyArray
                0x4001f89c                CONF_DATASET_F_GetBooleanRedundancyArray
                0x4001f8d8                CONF_DATASET_F_GetFreezingTimer
                0x4001f954                CONF_DATASET_F_GetPDOStruct
                0x4001fa0c                CONF_DATASET_F_GetSafetyID
                0x4001fa7a                CONF_DATASET_F_GetSntpIp
                0x4001fc00                CONF_DATASET_F_GetSnmpIp
                0x4001fd86                CONF_DATASET_F_GetFsfb2SinglePort
                0x4001fdd4                CONF_DATASET_F_GetFsfb2RedoundedPort
                0x4001fe22                CONF_DATASET_F_GetRssp1NormPortOfPrimary
                0x4001fe70                CONF_DATASET_F_GetRssp1RedundPortOfPrimary
                0x4001febe                CONF_DATASET_F_GetRssp1NormPortOfSecondary
                0x4001ff0c                CONF_DATASET_F_GetRssp1RedundPortOfSecondary
                0x4001ff5a                CONF_DATASET_F_GetUnsafetyNormPort
                0x4001ffa8                CONF_DATASET_F_GetUnsafetyRedundPort
                0x4001fff6                CONF_DATASET_F_GetUsigUevolRedundancyInfo
                0x4002008c                CONF_DATASET_F_GetIpStackInfo
                0x40020b7e                CONF_DATASET_F_IsRedundancyStandalone
                0x40020c16                CONF_DATASET_F_GetUsigRedStructByIdx
                0x40020cf4                CONF_DATASET_F_GetUsigRedundancyStruct
                0x40020dd2                CONF_DATASET_F_GetUsigIdentParamByDynId
                0x40020ece                CONF_DATASET_F_GetUsigIdentParamByEqId
                0x40021014                CONF_DATASET_F_GetSrttTimeoutByEqId
                0x400210b4                CONF_DATASET_F_GetUsigOperation
                0x4002112a                CONF_DATASET_F_GetUsigSafetyIdByIndex
                0x4002122c                CONF_DATASET_F_GetUsigSafetyParamByEqId
                0x4002180e                CONF_DATASET_F_GetReprogIpStackInfo
                0x400220b6                CONF_DATASET_F_GetMessageArray
                0x40022144                CONF_DATASET_F_GetAppliSubArea
                0x400221ce                CONF_DATASET_F_CheckPdoArray
                0x4002256a                CONF_DATASET_F_CheckDatasetConfIntegrity
                0x400228d6                CONF_DATASET_F_GetDatasetConfHeaderSize
                0x400228e0                CONF_DATASET_F_GetDatasetConfRealSize
                0x40022988                CONF_DATASET_F_GetMyDatasetConfRealSize
                0x40022abe                CONF_DATASET_F_CheckDatasetUserData
                0x40022b96                CONF_DATASET_F_GetDatasetConfIntAMinimumSize
 .text          0x40022ba4     0x3e60 ./out/CPU_B/GCC_CONF_local.o
                0x40022ba4                CONF_LOCAL_F_FileStatusNotifyCb
                0x40022d20                CONF_LOCAL_F_CreateReprogFile
                0x40022da6                CONF_LOCAL_F_CreateEstampFile
                0x40022e8e                CONF_LOCAL_F_CreateBidFile
                0x40022f76                CONF_LOCAL_F_Init
                0x400231d6                CONF_LOCAL_F_StatisticInit
                0x40023206                CONF_LOCAL_F_CreateIpConfigurationArea
                0x40023236                CONF_LOCAL_F_ResetIpConfiguration
                0x4002327c                CONF_LOCAL_F_RestoreLastIpConfiguration
                0x40023328                CONF_LOCAL_F_BidCheck
                0x40023408                CONF_LOCAL_F_BidWaitAndCheck
                0x4002368c                CONF_LOCAL_F_EstampWaitAndCheck
                0x400238ec                CONF_LOCAL_F_MemoryAreaMyConfGet
                0x400238fa                CONF_LOCAL_F_CreateAndAddSourcesToMyDatasetFiles
                0x40023a7a                CONF_LOCAL_F_MaintenanceInit
                0x40023b7c                CONF_LOCAL_F_BidCycleCheck
                0x40024156                CONF_LOCAL_F_FaultFilteringEndResetState
                0x400241c6                CONF_LOCAL_F_FaultFilteringEndReadState
                0x40024546                CONF_LOCAL_F_FaultFilteringUpdate
                0x40024578                CONF_LOCAL_F_RunningHoursUpdate
                0x40024730                CONF_LOCAL_F_RunningTimeUpdate
                0x400248cc                CONF_LOCAL_F_Periodic
                0x400248e8                CONF_F_IsTransplantable
                0x400248f6                CONF_LOCAL_F_GetIpStackInfoFromUserData
                0x40024ed2                CONF_LOCAL_F_PrepareMyDatasetFileDescriptors
                0x40024fd4                CONF_LOCAL_F_GetIpStackInfo
                0x400252a8                CONF_LOCAL_F_GetBoardCode
                0x400252c8                CONF_F_GetOverTempThreshold
                0x400252e0                CONF_F_GetDataVersion
                0x400252f8                CONF_F_GetCanFlashingPeriod
                0x40025310                CONF_F_IsFaultFilteringActive
                0x40025328                CONF_F_GetPDOStruct
                0x40025344                CONF_F_GetRestrictiveValuesByPdoID
                0x40025414                CONF_F_GetSafetyID
                0x40025428                CONF_F_GetOutputSafeData
                0x40025440                CONF_F_GetInputSafeData
                0x40025458                CONF_F_GetGenericRedundancyArray
                0x40025470                CONF_F_GetBooleanRedundancyArray
                0x40025488                CONF_F_GetFreezingTimer
                0x400254ae                CONF_F_GetFreezingTimerByPdoId
                0x40025564                CONF_F_GetSnmpInfo
                0x400256cc                CONF_F_GetSntpIpServer
                0x40025790                CONF_F_GetFsfb2SinglePort
                0x400257a8                CONF_F_GetFsfb2RedoundedPort
                0x400257c0                CONF_F_GetRSSP1_PrimaryCpuA_Port
                0x400257d8                CONF_F_GetRSSP1_PrimaryCpuB_Port
                0x400257f0                CONF_F_GetRSSP1_SecondaryCpuA_Port
                0x40025808                CONF_F_GetRSSP1_SecondaryCpuB_Port
                0x40025820                CONF_F_GetUnsafetyNormPort
                0x40025838                CONF_F_GetUnsafetyRedundPort
                0x40025850                CONF_F_GetUsigUevolRedundancyInfo
                0x4002586e                CONF_F_GetIpStackInfoForValidationConfig
                0x40025918                CONF_F_GetIpStackInfo
                0x40025b82                CONF_F_IsRedundancyStandalone
                0x40025bec                CONF_F_GetUsigRedStructByIdx
                0x40025c0e                CONF_F_GetUsigRssp1RedStructByIdx
                0x40025c30                CONF_F_GetUsigRedundancyStruct
                0x40025c5c                CONF_F_GetUsigRssp1RedundancyStruct
                0x40025c88                CONF_F_GetUsigIdentParamByDynId
                0x40025cb8                CONF_F_GetUsigRssp1IdentParamByDynId
                0x40025ce8                CONF_F_GetUsigIdentParamByEqId
                0x40025d18                CONF_F_GetUsigRssp1IdentParamByEqId
                0x40025d48                CONF_F_GetUsigParamStruct
                0x40025d76                CONF_F_GetUsiggRssp1ParamStruct
                0x40025da4                CONF_F_GetSrttTimeoutByEqId
                0x40025dca                CONF_F_GetUsigOperation
                0x40025df0                CONF_F_GetUsigFsfb2IdByIndex
                0x40025e22                CONF_F_GetFsfb2ParamByEqId
                0x40025e58                CONF_F_GetMessageArray
                0x40025e7e                CONF_F_GetAppliSubArea
                0x40025e9e                CONF_F_GetBoardTypeInKey
                0x40025f00                CONF_F_GuessBoardType
                0x40025f6c                CONF_F_GetRackAndSlot
                0x40026094                CONF_F_GetMyBoardNumber
                0x400260de                CONF_F_GetCanOpenODInfo
                0x4002640c                CONF_F_GetHwAndSwVersions
                0x40026592                CONF_F_AddSourcesToFilesWithFuseInfo
                0x400268ce                CONF_LOCAL_F_SaveLastIpConfiguration
                0x4002693e                CONF_F_GetCobIdOfPdoTime
                0x4002694a                CONF_F_GetCobIdByPdoID
 .text          0x40026a04      0x428 ./out/CPU_B/GCC_CONF_reconf.o
                0x40026a04                CONF_F_ReconfTaskCreate
                0x40026b24                CONF_F_ReconfTaskConfig
                0x40026b2e                CONF_F_ReconfTaskStart
                0x40026b40                CONF_F_ReconfTask
 .text          0x40026e2c     0x1b92 ./out/CPU_B/GCC_CONF_src.o
                0x40026e2c                CONF_SRC_ASYNC_F_EndReadAction
                0x40026f52                CONF_SRC_ASYNC_F_EndWriteAction
                0x40027042                CONF_SRC_ASYNC_F_EndReadActionCallBack
                0x400270ba                CONF_SRC_ASYNC_F_EndWriteActionCallBack
                0x40027132                CONF_SRC_ASYNC_F_ReadDefault
                0x400271ea                CONF_SRC_ASYNC_F_ReadHeaderActionCallBack
                0x400273c2                CONF_SRC_ASYNC_F_ReadHeader
                0x4002747a                CONF_SRC_ASYNC_F_ReadHeaderParallelFlashActionCallBack
                0x400275c6                CONF_SRC_ASYNC_F_ReadHeaderParallelFlash
                0x4002767e                CONF_SRC_ASYNC_F_AsyncFileOpProcess
                0x40027820                CONF_SRC_ASYNC_F_SetDefaultSize
                0x40027868                Drv_BID_F_SourcePeriodicTask
                0x4002794e                Drv_BID_F_SourceIsVolatile
                0x40027958                Drv_BID_F_SourceFileOpen
                0x40027a40                Drv_BID_F_SourceFileGetSize
                0x40027aac                Drv_BID_F_SourceFileAsyncFillCache
                0x40027baa                Drv_BID_F_Create
                0x40027c34                Drv_BID_F_SourceInstanceGet
                0x40027cc4                CONF_SRC_FLASH_F_EndReadActionCallBack
                0x40027d70                CONF_SRC_FLASH_F_SourceFileFind
                0x40027e18                CONF_SRC_FLASH_F_EndWriteActionCallBack
                0x40027ea6                CONF_SRC_FLASH_F_EraseCallBack
                0x40027f86                CONF_SRC_FLASH_F_SourcePeriodicTask
                0x40027ff4                CONF_SRC_FLASH_F_SourceIsVolatile
                0x40027ffe                CONF_SRC_FLASH_F_SourceInstanceGet
                0x4002807e                CONF_SRC_FLASH_F_Write
                0x40028170                CONF_SRC_FLASH_F_SourceFileOpen
                0x40028496                CONF_SRC_FLASH_F_SourceFileGetSize
                0x40028526                CONF_SRC_FLASH_F_SourceFileAsyncFlushCache
                0x40028658                CONF_SRC_FLASH_F_SourceFileAsyncFillCache
                0x40028744                CONF_SRC_FLASH_F_Create
 *fill*         0x400289be        0x2 
 .text          0x400289c0      0x7ec ./out/CPU_B/GCC_FCODE.o
                0x400289c0                FCODE_F_Init
                0x40028a52                FCODE_F_MaintenanceReadyNotify
                0x40028a68                FCODE_F_LogDefaultToOBD
                0x40028b72                FCODE_F_FailureCodeClear
                0x40028e4a                FCODE_F_FailureCodeSetExt
                0x400290f4                FCODE_F_FailureCodeSet
 .text          0x400291ac     0x5936 ./out/CPU_B/GCC_FILESYS.o
                0x400291ac                FILESYS_F_MemoryAreaInit
                0x4002926a                FILESYS_F_BufferAllocator
                0x400293d0                FILESYS_F_DefaultCacheAllocator
                0x4002949a                FILESYS_F_SubscribeSource
                0x400296c6                FILESYS_F_FindFileInList
                0x40029822                FILESYS_F_FindFileInFs
                0x40029944                FILESYS_F_FileCreate
                0x40029c86                FILESYS_F_FileCreateExt
                0x40029d60                FILESYS_F_SymLinkCreate
                0x40029fd8                FILESYS_F_SymLinkCreateExt
                0x4002a08c                FILESYS_F_RequestResetFileCache
                0x4002a22a                FILESYS_F_TryAllocation
                0x4002a4da                FILESYS_F_FileBuildUserFileDesc
                0x4002a714                FILESYS_F_FileStatusSet
                0x4002aa9c                FILESYS_F_FileStatusGet
                0x4002ac20                FILESYS_F_SourceAppend
                0x4002add4                FILESYS_F_VirtualSourceSet
                0x4002af4a                FILESYS_F_FileWrite
                0x4002b098                FILESYS_F_FileReadSeq
                0x4002b226                FILESYS_F_FileRead
                0x4002b2f8                FILESYS_F_FileOpen
                0x4002b3b0                FILESYS_F_FileGetSize
                0x4002b49a                FILESYS_F_FileRegisterNotificationCB
                0x4002b52c                FILESYS_F_FileDescSetOutdated
                0x4002b682                FILESYS_F_FileSetOutdated
                0x4002b7f8                FILESYS_F_FileVirtualSetUpToDate
                0x4002b986                FILESYS_F_FileAskReFill
                0x4002bb1a                FILESYS_F_FileAskFlush
                0x4002bcc4                FILESYS_F_FileRefresh
                0x4002be24                FILESYS_F_FileGetAccess
                0x4002bf52                FILESYS_F_InvalidateCache
                0x4002bfd6                FILESYS_F_FileVirtualSetUnavailable
                0x4002c148                FILESYS_F_FileCacheInvalidate
                0x4002c268                FILESYS_F_DoubleBufferNewDataAvailable
                0x4002c3c4                FILESYS_F_DoubleBufferSwitch
                0x4002c632                FILESYS_F_SourceRecover
                0x4002c79c                FILESYS_F_CopySourceInstanceGet
                0x4002c8a8                FILESYS_F_MonitorFileActivity
                0x4002c936                FILESYS_F_IsAMonitoredFile
                0x4002ca80                FILESYS_F_ResetFileCache
                0x4002cf86                FILESYS_F_MoveElemToDestListTail
                0x4002d048                FILESYS_F_ManageResetCacheAction
                0x4002d110                FILESYS_F_ManageFlushFileAction
                0x4002d41a                FILESYS_F_FileFillCacheNotifyCb
                0x4002d5ac                FILESYS_F_FillCache
                0x4002dc68                FILESYS_F_ManageSourceOfOutdatedFile
                0x4002e0aa                FILESYS_F_ReFillingCacheOfFile
                0x4002e28a                FILESYS_F_ProcessSourcePeriodicTask
                0x4002e462                FILESYS_F_Create
                0x4002e6cc                FILESYS_F_Config
                0x4002e6e6                FILESYS_F_Task
                0x4002e9ca                FILESYS_F_DatasetRetreivalAllow
                0x4002e9e6                FILESYS_F_DatasetRetreivalIsInProgressGet
                0x4002ea10                FILESYS_F_ProtocolVersionGet
                0x4002ea58                FILESYS_F_TFTPServiceInit
 *fill*         0x4002eae2        0x2 
 .text          0x4002eae4      0x414 ./out/CPU_B/GCC_FILESYS_int.o
                0x4002eae4                FILESYS_INT_SRC_F_SourceIsVolatile
                0x4002eaee                FILESYS_INT_SRC_F_SourceFileOpen
                0x4002ed0e                FILESYS_INT_SRC_F_SourceFileGetSize
                0x4002edba                FILESYS_INT_SRC_F_CopySourceFileAsyncFillCache
                0x4002ee98                FILESYS_INT_SRC_F_SourceInit
 .text          0x4002eef8     0x41f4 ./out/CPU_B/GCC_FILESYS_tftp.o
                0x4002eef8                FILESYS_TFTP_SRC_F_EntryReset
                0x4002f154                FILESYS_TFTP_SRC_F_SourceInstanceCreate
                0x4002f2a8                FILESYS_TFTP_SRC_F_IsSourceVolatile
                0x4002f2b2                FILESYS_TFTP_SRC_F_SourceFileGetSize
                0x4002f342                FILESYS_TFTP_SRC_F_SourceFileAsyncFillCache
                0x4002f648                FILESYS_TFTP_SRC_F_SourceInstanceGet
                0x4002f794                FILESYS_TFTP_SRC_SourceFileOpen
                0x4002fc66                FILESYS_TFTP_SRC_F_CheckPendingTimerStatus
                0x4002fd0a                FILESYS_TFTP_F_ServiceClose
                0x4002fd5c                FILESYS_TFTP_F_GetPrioFromIPAddr
                0x4002fe00                FILESYS_TFTP_SRC_F_FileStatusGet
                0x40030126                FILESYS_TFTP_SRC_F_FileContentRead
                0x4003044c                FILESYS_TFTP_SRC_F_FileStatusGetCheck
                0x40030c98                FILESYS_TFTP_SRC_F_FileContentReadCheck
                0x40030fde                FILESYS_TFTP_SRC_F_PeriodicTask
                0x40031fcc                FILESYS_TFTP_F_ServiceOpen
                0x40032476                FILESYS_TFTP_F_ManageCommandDetail
                0x40032978                FILESYS_TFTP_F_ManageCommandRead
                0x40032cf4                FILESYS_TFTP_F_ManageCommandInfo
                0x40032e82                FILESYS_TFTP_F_GetNewSession
                0x40032f8a                FILESYS_TFTP_F_ExtractGivenFile
 .text          0x400330ec      0x270 ./out/CPU_B/GCC_Flash.o
                0x400330ec                FLASH_F_PreInit
                0x40033102                FLASH_F_Create
                0x40033154                FLASH_F_Task
                0x400331b6                FLASH_F_SuspendDirect
                0x400331f2                FLASH_F_ResumeDirect
                0x4003322e                FLASH_F_EraseDirect
                0x40033274                FLASH_F_WriteDirect
                0x400332be                FLASH_F_ReadDirect
                0x40033308                FLASH_F_MemsetDirect
 .text          0x4003335c     0x1636 ./out/CPU_B/GCC_Flash_Async.o
                0x4003335c                FLASH_ASYNC_F_Init
                0x400333b4                FLASH_ASYNC_F_GetSubscribedDev
                0x40033434                FLASH_ASYNC_F_SubscribeFlashDevice
                0x4003392c                FLASH_ASYNC_F_GetFlashDevice
                0x40033964                FLASH_ASYNC_F_MallocAction
                0x40033a08                FLASH_ASYNC_F_PostActionToPrioQ
                0x40033b6e                FLASH_F_AskLock
                0x40033bf0                FLASH_F_Unlock
                0x40033c40                FLASH_F_EraseAsync
                0x40033cd2                FLASH_F_WriteAsync
                0x40033d74                FLASH_F_MemsetAsync
                0x40033e1e                FLASH_F_ReadAsync
                0x40033eea                FLASH_ASYNC_F_GetCurrentActionInfo
                0x40034138                FLASH_ASYNC_F_StoreInCurrentActionList
                0x40034246                FLASH_ASYNC_F_BoostPrioSuspendedAction
                0x40034330                FLASH_ASYNC_F_EvaluateActionsOnAllFlash
                0x400347a0                FLASH_ASYNC_F_ActionProcess
 *fill*         0x40034992        0x2 
 .text          0x40034994      0xca0 ./out/CPU_B/GCC_Flash_Direct.o
                0x40034994                FLASH_DRV_F_InitActionCtx
                0x400349f4                FLASH_DRV_F_ContinueLastOperation
                0x40034ba0                FLASH_DRV_F_GetPartAccessSize
                0x40034e0c                FLASH_DRV_F_StartNewOperation
                0x400351b2                FLASH_DRV_F_AccessPart
                0x400352a0                FLASH_DRV_F_Suspend
                0x400352f0                FLASH_DRV_F_Resume
                0x40035340                FLASH_DRV_F_Erase
                0x400353f2                FLASH_DRV_F_Write
                0x400354be                FLASH_DRV_F_Read
                0x4003558a                FLASH_DRV_F_Memset
 .text          0x40035634      0xa88 ./out/CPU_B/GCC_gdf.o
                0x40035680                GDF_F_FileNameCrcCompute
                0x4003572e                GDF_F_FusesWrite
                0x4003582e                GDF_F_FuseSwBurnArea
                0x40035872                GDF_F_FuseSystemInSafety
                0x40035dc6                GDF_F_FuseXirq
                0x40035f4a                GDF_F_LogInternal
                0x40035fb4                GDF_F_DumpStack
                0x4003604c                GDF_F_FaultInternal
 .text          0x400360bc      0x8cc ./out/CPU_B/GCC_gdf_dump_tools.o
                0x400360bc                GDF_DUMP_TOOLS_F_MemorizeModeBeforeGdf
                0x400360e6                GDF_DUMP_TOOLS_F_WritePart
                0x400363d8                GDF_DUMP_TOOLS_F_DumpBuffer
                0x400364c4                GDF_DUMP_TOOLS_F_DumpMemory
                0x40036900                GDF_DUMP_TOOLS_F_FaultFilteringStoreInfo
 .text          0x40036988     0x134e ./out/CPU_B/GCC_LZW.o
                0x40036988                LZW_F_CodeListInit
                0x40036a08                LZW_F_ReadChar
                0x40036a92                LZW_F_WriteChar
                0x40036b3a                LZW_F_BitFilePutChar
                0x40036bb2                LZW_F_BitFilePutBit
                0x40036c6a                LZW_F_BitFilePutBitsLE
                0x40036de0                LZW_F_BitFilePutBitsBE
                0x40036f72                LZW_F_BitFileGetChar
                0x40037080                LZW_F_BitFileGetBit
                0x4003714e                LZW_F_BitFileGetBitsLE
                0x40037382                LZW_F_BitFileGetBitsBE
                0x400375be                LZW_F_BitFileGetBitsNum
                0x40037654                LZW_F_BitFileToFile
                0x40037712                LZW_F_MakeBitFile
                0x4003792e                LZW_F_DecodeFile
 *fill*         0x40037cd6        0x2 
 .text          0x40037cd8      0x4d6 ./out/CPU_B/GCC_MATH.o
                0x40037cd8                MATH_F_ComputeCRC32CCITT
                0x40037d8e                MATH_F_LfsrShiftRight
                0x40037de0                MATH_F_LfsrPost
                0x40037e0a                MATH_F_LfsrSub
                0x40037e34                MATH_F_LfsrAdd
                0x40037e9c                MATH_F_ComputeCRC32FSFB2ChanOne
                0x40037f96                MATH_F_ComputeCRC16CCITT
                0x400380a2                MATH_F_KeyScramble
 *fill*         0x400381ae        0x2 
 .text          0x400381b0     0x2500 ./out/CPU_B/GCC_osw.o
                0x400381b0                OSW_F_MemCreate
                0x4003830a                OSW_F_MemGet
                0x400384de                OSW_F_MemPut
                0x4003854e                OSW_F_SemCreate
                0x40038578                OSW_F_SemPend
                0x400386a4                OSW_F_SemPost
                0x400386e8                OSW_F_SemAccept
                0x4003872c                OSW_F_QCreate
                0x4003877e                OSW_F_QPost
                0x400387ee                OSW_F_QPostFront
                0x4003885e                OSW_F_QPend
                0x40038994                OSW_F_QAccept
                0x40038a04                OSW_F_FlagCreate
                0x40038a50                OSW_F_FlagPost
                0x40038ad4                OSW_F_FlagAccept
                0x40038b5c                OSW_F_FlagPend
                0x40038ca6                OSW_F_TimeDly
                0x40038cc6                OSW_F_TickGet
                0x40038cd4                OSW_F_TempoStart
                0x40038d54                OSW_F_TempoReload
                0x40038e74                OSW_F_TempoState
                0x40038f18                OSW_F_TempoRemainingTick
                0x4003904c                OSW_F_TempoStop
                0x400390a8                OSW_F_TaskPrioGet
                0x400390f0                OSW_F_IsOsStarted
                0x40039114                OSW_F_PrioQCreate
                0x400391fa                OSW_F_PrioQAddLevel
                0x400394d4                OSW_F_ExtractMostPrioMessage
                0x400395de                OSW_F_PrioQPend
                0x40039790                OSW_F_PrioQAccept
                0x4003988c                OSW_F_PrioQPost
                0x40039a9c                OSW_F_PrioQHasPrioMessage
                0x40039b52                OSW_F_ListInit
                0x40039bb0                OSW_F_ListInsertBefore
                0x40039c7c                OSW_F_ListAddToTail
                0x40039d48                OSW_F_ListInsertAfter
                0x40039e18                OSW_F_ListAddToHead
                0x40039ee8                OSW_F_ListExtractFromHead
                0x40039fde                OSW_F_ListExtractFromTail
                0x4003a0c8                OSW_F_ListRemove
                0x4003a1c8                OSW_F_ListGetNext
                0x4003a240                OSW_F_FifoInit
                0x4003a330                OSW_F_FifoExtract
                0x4003a418                OSW_F_FifoInsert
                0x4003a53a                OSW_F_QQuery
                0x4003a5b8                OSW_F_SemQuery
                0x4003a632                OSW_F_MemQuery
 .text          0x4003a6b0     0x1348 ./out/CPU_B/GCC_print.o
                0x4003a6b0                PRINT_F_HardwareInit
                0x4003aac8                PRINT_F_PrintfWithTaintInfo
                0x4003add6                PRINT_F_PrintfInternal
                0x4003ae2c                PRINT_F_Create
                0x4003b038                PRINT_F_Config
                0x4003b042                PRINT_F_Start
                0x4003b064                PRINT_F_Task
                0x4003b0f8                PRINT_F_ReportActiveIntegration
                0x4003b126                PRINT_F_PrintfAuth
                0x4003b304                PRINT_F_Report
                0x4003b8d8                PRINT_F_Printf
                0x4003b94c                DTXT_F_Report
                0x4003b990                DTXT_F_Printf
 .text          0x4003b9f8     0x12ea ./out/CPU_B/GCC_RECORD.o
                0x4003b9f8                RECORD_F_CheckIntegrity
                0x4003be92                RECORD_F_EStampGetContents
                0x4003c478                RECORD_F_Task
                0x4003c54e                RECORD_F_Start
                0x4003c6c4                RECORD_F_StMainIdle
                0x4003c7a8                RECORD_F_StMainEventWrite
                0x4003c920                RECORD_F_StMainBackupLog
                0x4003ca98                RECORD_F_StMainFlush
                0x4003cbec                RECORD_F_Create
                0x4003cc92                RECORD_F_GetElecStampStatus
                0x4003cca0                RECORD_F_SetElecStampStatus
 *fill*         0x4003cce2        0x2 
 .text          0x4003cce4     0x11a8 ./out/CPU_B/GCC_RECORD_evt.o
                0x4003cce4                RECORD_EVT_F_IsBackupNeeded
                0x4003cd0a                RECORD_EVT_F_LogInit
                0x4003cd92                RECORD_EVT_F_LogRun
                0x4003ce68                RECORD_EVT_F_BackupInit
                0x4003cec6                RECORD_EVT_F_BackupRun
                0x4003cef8                RECORD_EVT_F_StEvtLock
                0x4003d006                RECORD_EVT_F_EventDirectWrite
                0x4003d0c8                RECORD_EVT_F_StEvtWrite
                0x4003d1ac                RECORD_EVT_F_StEvtBckRead
                0x4003d554                RECORD_EVT_F_StEvtBckErase
                0x4003d674                RECORD_EVT_F_StEvtBckVersionCrc
                0x4003d7c4                RECORD_EVT_F_IsEvtLogNeeded
                0x4003d83c                RECORD_EVT_F_EventStructureVersionCheck
                0x4003d9c8                RECORD_F_EventLogFreeSpaceManage
                0x4003dbce                RECORD_F_EventDirectLog
                0x4003dc38                RECORD_F_EventLog
                0x4003ddde                RECORD_EVT_F_Create
 .text          0x4003de8c     0x2444 ./out/CPU_B/GCC_RECORD_pda.o
                0x4003ded8                RECORD_PDA_F_SwitchFrontAndBackAreaBuffers
                0x4003df06                RECORD_PDA_F_GetAreaIndexFromId
                0x4003dfc6                RECORD_F_AskFlush
                0x4003e0c2                RECORD_F_AskFlushDirect
                0x4003e10e                RECORD_F_ReserveArea
                0x4003e3c6                RECORD_PDA_F_IsFlushNeeded
                0x4003e402                RECORD_PDA_F_FlushRun
                0x4003e434                RECORD_PDA_F_InitRun
                0x4003e466                RECORD_PDA_F_StInitCompareFrontAndBack
                0x4003e6a4                RECORD_PDA_F_FlushInit
                0x4003e70c                RECORD_PDA_F_InitInit
                0x4003e77c                RECORD_PDA_F_StFlushInit
                0x4003ebf6                RECORD_PDA_F_StFlushEnd
                0x4003ef3c                RECORD_PDA_F_StFlushWriteSecondSector
                0x4003f014                RECORD_PDA_F_StFlushWriteFirstSector
                0x4003f138                RECORD_PDA_F_StInitCopyRefSector
                0x4003f260                RECORD_PDA_F_StInitCheckHeaders
                0x4003f59c                RECORD_PDA_F_StInitResetAll
                0x4003f796                RECORD_PDA_F_Create
                0x4003f7f2                RECORD_PDA_F_StInitOk
                0x4003f912                RECORD_PDA_F_StInitHeaderDiffCheckRef
                0x4003fa50                RECORD_PDA_F_StInitHeaderEqualCheckSecond
                0x4003fb60                RECORD_PDA_F_StInitHeaderEqualCheckFirst
                0x4003fc68                RECORD_F_Write
                0x4003ff98                RECORD_F_WriteDirect
                0x40040028                RECORD_F_Read
 .text          0x400402d0     0x186c ./out/CPU_B/GCC_RECORD_sector.o
                0x400402d0                RECORD_SECTOR_F_RunReadSector
                0x40040302                RECORD_SECTOR_F_RunWriteSector
                0x40040334                RECORD_SECTOR_F_StRdPrepareNextRead
                0x400404e2                RECORD_SECTOR_F_StRdStart
                0x4004058a                RECORD_SECTOR_F_InitReadSector
                0x400406a2                RECORD_SECTOR_F_InitWriteSector
                0x40040790                RECORD_SECTOR_F_StRdAreaHeader
                0x40040afe                RECORD_SECTOR_F_StRdAreaData
                0x40040eb0                RECORD_SECTOR_F_StRdEnd
                0x40040f84                RECORD_SECTOR_F_StWrSectErase
                0x400410a8                RECORD_SECTOR_F_StWrSectStatus
                0x400411e6                RECORD_SECTOR_F_StWrSectCpt
                0x40041322                RECORD_SECTOR_F_StWrSectWriteAreaHeaderStatus
                0x400415be                RECORD_SECTOR_F_StWrSectWriteAreaHeaderCrc
                0x40041866                RECORD_SECTOR_F_StWrSectWriteAreaData
 .text          0x40041b3c     0x10a8 ./out/CPU_B/GCC_RECORD_stat.o
                0x40041b88                RECORD_STAT_F_CreatePareto
                0x40041c32                RECORD_STAT_F_EnablePareto
                0x40041c8a                RECORD_STAT_F_UpdatePareto
                0x40041d94                RECORD_STAT_F_DisablePareto
                0x40041dec                RECORD_STAT_F_InitStatistic
                0x40041eea                RECORD_STAT_F_EnableStatistic
                0x40041f58                RECORD_STAT_F_DisableStatistic
                0x40041fc8                RECORD_STAT_F_IsStatisticEnabled
                0x40042000                RECORD_STAT_F_ResetStatistic
                0x400420a0                RECORD_STAT_F_StartStopwatch
                0x4004213a                RECORD_STAT_F_StopStopwatch
                0x40042280                RECORD_STAT_F_ResetStopwatch
                0x400422f8                RECORD_STAT_F_StopwatchElapsedTime
                0x40042442                RECORD_STAT_F_StoreStatisticValue
                0x40042636                RECORD_STAT_F_GetGlobalMinValue
                0x400426bc                RECORD_STAT_F_GetGlobalMaxValue
                0x40042742                RECORD_STAT_F_GetGlobalNbValues
                0x400427ae                RECORD_STAT_F_GetGlobalSumValue
                0x40042834                RECORD_STAT_F_GetGlobalAverageValue
                0x400428d0                RECORD_STAT_F_GetMinValueFromRecords
                0x400429be                RECORD_STAT_F_GetMaxValueFromRecords
                0x40042aac                RECORD_STAT_F_GetAverageValueFromRecords
 .text          0x40042be4      0x738 ./out/CPU_B/GCC_RECORD_utl.o
                0x40042c30                RECORD_UTL_F_StChIsFinished
                0x40042c88                RECORD_UTL_F_StChChangeState
                0x40042cda                RECORD_UTL_F_StChRunState
                0x40042dd4                RECORD_UTL_F_StChInit
                0x40042e2a                RECORD_UTL_F_LogEnteringState
                0x40042ea4                RECORD_UTL_F_FlashEndOperationNotif
                0x40042fb6                RECORD_UTL_F_InitFlashEndOpNotif
                0x4004305a                RECORD_UTL_F_SpiFlashReadWaitFlag
                0x40043154                RECORD_UTL_F_SpiFlashWriteWaitFlag
                0x4004324e                RECORD_UTL_F_SpiFlashEraseWaitFlag
 .text          0x4004331c     0x1df6 ./out/CPU_B/GCC_Schedule.o
                0x4004331c                SCHED_F_GetFlashingGpioState
                0x400433a6                SCHED_F_TickHook
                0x400449d6                SCHED_F_PreInit
                0x40044b4c                SCHED_F_CreateAndStart
                0x40044c20                SCHED_P_Task
                0x40044e6c                SCHED_F_FlashingHalfPeriodSet
                0x40044e88                SCHED_F_CommonTimeInit
                0x40044ed4                SCHED_F_CommonTimeGet
                0x40044f2e                SCHED_F_CommonTimeReSynchronization
                0x400450f6                SCHED_F_IsCommonTimeSynchronized
                0x40045104                SCHED_F_RunlevelGet
 *fill*         0x40045112        0x2 
 .text          0x40045114      0x9e0 ./out/CPU_B/GCC_Schedule_gentask.o
                0x40045114                SCHED_GENTASK_F_TaskCreate
                0x400454fc                SCHED_GENTASK_F_TaskConfig
                0x40045582                SCHED_GENTASK_F_TaskStart
                0x400455ca                SCHED_GENTASK_F_TaskGenericBody
 .text          0x40045af4      0x884 ./out/CPU_B/GCC_Schedule_gta.o
                0x40045b48                SCHED_GTA_F_Init
                0x40045bea                SCHED_GTA_F_Create
                0x40045df2                SCHED_GTA_F_WaitForConfig
                0x40045f1a                SCHED_GTA_F_Config
                0x40046042                SCHED_GTA_F_WaitForStart
                0x400461d0                SCHED_GTA_F_Start
                0x400462f6                SCHED_GTA_F_StartCompleted
 .text          0x40046378     0x2418 ./out/CPU_B/GCC_Schedule_launcher.o
                0x40046378                SCHED_LAUNCHER_F_BootFailedDisableUnusedTasks
                0x400464a2                SCHED_F_GetTaskIdFromPriority
                0x40046534                SCHED_F_GetPriorityFromTaskId
                0x400465c2                SCHED_F_SetTaskRestrictiveModeOk
                0x400466b0                SCHED_F_IsTaskStarted
                0x400467bc                SCHED_F_GetNumberNominalTask
                0x4004680c                SCHED_LAUNCHER_F_EvaluateCycleWakeUp
                0x40046afa                SCHED_LAUNCHER_F_WakeupAllPeriodicTasks
                0x40046cee                SCHED_LAUNCHER_F_RunLevelConfig
                0x40046dbe                SCHED_LAUNCHER_F_RunLevelStart
                0x40046fc2                SCHED_LAUNCHER_F_RunLevelLaunch
                0x4004701e                SCHED_LAUNCHER_F_CreateAllTasks
                0x400470b0                SCHED_LAUNCHER_F_CreateWDG
                0x4004847a                SCHED_LAUNCHER_F_PrepareStartup
 .text          0x40048790     0x10d6 ./out/CPU_B/GCC_Schedule_utl.o
                0x40048790                SCHED_F_SetBootFuseState
                0x400487a4                SCHED_F_BootFuseState
                0x400487b2                SCHED_UTL_F_SetBoardMode
                0x400487c6                SCHED_F_GetBoardMode
                0x400487d4                SCHED_UTL_F_SetNetworkLeds
                0x400487f2                SCHED_F_GetLedCan
                0x40048800                SCHED_F_GetLedEth
                0x4004880e                SCHED_F_EthLedClear
                0x4004885a                SCHED_F_EthLedToggle
                0x400488a6                SCHED_UTL_F_SetFlashingGpio
                0x40048956                SCHED_F_GetFlashingGpioInter
                0x40048964                SCHED_F_GetFlashingGpioIntra
                0x40048972                SCHED_UTL_F_SetMaintenanceTable
                0x400489b4                SCHED_F_GetMaintenanceTable
                0x40048a20                SCHED_UTL_F_SetForceBid
                0x40048a54                SCHED_F_IsBidForced
                0x40048a62                SCHED_F_GetForcedBidValue
                0x40048a8c                SCHED_UTL_F_UserDataSet
                0x40048ae0                SCHED_F_UserDataGet
                0x40048b08                SCHED_F_UserDataIsProvided
                0x40048b16                SCHED_F_SetReprogSafetyFlagValue
                0x40048b2a                SCHED_F_GetReprogSafetyFlagValue
                0x40048b38                SCHED_F_SetReprogAuthoCallBack
                0x40048b4c                SCHED_F_GetReprogAuthoCallBack
                0x40048b5a                SCHED_UTL_F_GuestMemoryInfoSet
                0x40048b8c                SCHED_F_GuestKeyMemoryGet
                0x40048bba                SCHED_F_GuestConfMemoryGet
                0x40048c30                SCHED_F_SetConfigKeyStatus
                0x40048c9e                SCHED_UTL_F_GetConfigKeyStatus
                0x40048cac                SCHED_F_SetInitialFunctionalMode
                0x40048da0                SCHED_F_SetFunctionalModeSafeState
                0x40048dba                SCHED_UTL_F_SetFunctionalMode
                0x40048de2                SCHED_F_IsFunctionalModeDefined
                0x40048df0                SCHED_F_GetFunctionalMode
                0x40048dfe                SCHED_UTL_F_IsNominalModeReached
                0x40048e0c                SCHED_UTL_F_GetRestrictiveTransitionState
                0x40048e1a                SCHED_F_IsRestrictiveTransition
                0x40048e44                SCHED_F_EndRestrictiveEventReasonLoggedCallback
                0x40048e56                SCHED_F_SwitchRestrictiveMode
                0x40048f62                SCHED_UTL_F_NotifyRestrictiveRequestSent
                0x40048f74                SCHED_UTL_F_NotifyRemoteTransitionState
                0x40048fd6                SCHED_UTL_F_ManageRestrictiveSwitch
                0x400492fc                SCHED_UTL_F_RestrictiveTransitionProtection
                0x4004935c                SCHED_F_IsBoardRestrictive
                0x4004936a                SCHED_F_ResetWhenInRestrictiveMode
                0x4004937c                SCHED_F_GetResetWhenInRestrictiveMode
                0x4004938a                SCHED_F_SwitchRestrictiveModeAndReset
                0x400493ae                SCHED_F_IsResetNeeded
                0x4004963e                SCHED_F_RecordSwicthModeCB
                0x40049720                SCHED_F_BootStateSet
                0x40049734                SCHED_F_BootStateGet
                0x40049742                SCHED_F_NbFaultFilteringRebootSet
                0x40049756                SCHED_F_NbFaultFilteringRebootGet
                0x40049764                SCHED_F_ExtractRunningMode
                0x4004980c                SCHED_F_TaskInfoConfigure
 *fill*         0x40049866        0x2 
 .text          0x40049868        0x0 ./out/CPU_B/GCC_VCU_Start.o
 .text          0x40049868     0x4060 ./out/CPU_B/GCC_SDB.o
                0x40049868                SDB_F_Init
                0x40049b5c                SDB_F_IsSynchronised
                0x40049b88                SDB_F_PresenceTableRead
                0x40049c94                SDB_F_PresenceTableFill
                0x40049d5a                SDB_F_NotificationAdd
                0x40049e6e                SDB_F_IsReadyToSendPdo
                0x40049f1c                SDB_F_InputPdoDefaultGet
                0x40049f5c                SDB_F_DatabaseRead
                0x4004a2ec                SDB_F_MessageIdSubmit
                0x4004a4be                SDB_F_MessageIdRequest
                0x4004a9c6                SDB_F_DataIdRequest
                0x4004ad4c                SDB_F_DataIdSubmit
                0x4004b212                SDB_F_ReceivedDataAdd
                0x4004b330                SDB_F_CurrentTransmitDBRead
                0x4004b448                SDB_F_NextTimeoutGet
                0x4004b54e                SDB_F_MergePdoTable
                0x4004b658                SDB_F_IntALifeTimeMgt
                0x4004b820                SDB_F_NoficationFlagsPost
                0x4004c224                SDB_F_FunctionalModeMgt
                0x4004c466                SDB_F_CheckIntALifeTime
                0x4004d1b8                SDB_F_MainProcess
                0x4004d33a                SDB_F_Schedule
                0x4004d678                SDB_F_PreInitAPI
                0x4004d688                SDB_F_MaxLifeTimeStatusGet
 .text          0x4004d8c8      0xbf8 ./out/CPU_B/GCC_SDB_api.o
                0x4004d8c8                SDB_API_F_PdoTableFromAlignedEqptClear
                0x4004dbb6                SDB_API_F_ConvertMessIdToPdoTable
                0x4004dfd6                SDB_API_F_PdoTableWithDefaultMessageFill
                0x4004e05c                SDB_API_F_InitUpdateMask
                0x4004e10e                SDB_API_F_BlockMessageIdFill
                0x4004e218                SDB_API_F_DbMemBlockGet
                0x4004e28e                SDB_API_F_ReadDbAndKoo2Exchange
                0x4004e338                SDB_API_F_DbMemBlockPut
                0x4004e428                SDB_API_F_MemoryPartDbCreation
                0x4004e494                SDB_API_F_PreInit
                0x4004e4ae                SDB_API_F_ValidConfig
 .text          0x4004e4c0      0xc66 ./out/CPU_B/GCC_SDB_intercpu.o
                0x4004e4c0                SDB_INTERCPU_F_ReceivedMsgRelease
                0x4004e4e0                SDB_INTERCPU_F_BlockFomReceivedMsgGet
                0x4004e730                SDB_INTERCPU_F_MsgWait
                0x4004ea8c                SDB_INTERCPU_F_MsgToSendReinit
                0x4004ece4                SDB_INTERCPU_F_MsgSend
                0x4004ed2a                SDB_INTERCPU_F_BlockInMsgAppend
 *fill*         0x4004f126        0x2 
 .text          0x4004f128     0x10c6 ./out/CPU_B/GCC_SDB_ioplug.o
                0x4004f174                SDB_IOPLUG_F_Init
                0x4004f1ce                SDB_IOPLUG_F_Reset
                0x4004f250                SDB_IOPLUG_F_InputDefaultTableUpdate
                0x4004f470                SDB_F_BooleanInputDefaultGet
                0x4004f50c                SDB_IOPLUG_F_InputPdoDefaultGet
                0x4004f59c                SDB_IOPLUG_F_SteeringRedundancyProcess
                0x4004f73e                SDB_IOPLUG_F_DetectedGenericRedundancy
                0x4004fa9a                SDB_IOPLUG_F_DetectedBooleanRedundancy
                0x4004ff7e                SDB_IOPLUG_F_DetectedRedundancyProcess
                0x40050092                SDB_IOPLUG_F_ManagePDOTimeUpdateSteering
                0x40050124                SDB_IOPLUG_F_ManagePDOTimeUpdateDetected
 *fill*         0x400501ee        0x2 
 .text          0x400501f0     0x127c ./out/CPU_B/GCC_SDB_update.o
                0x400501f0                SDB_UPDATE_F_DBAccessPrepare
                0x40050262                SDB_UPDATE_F_UpdatedIOGet
                0x4005033a                SDB_UPDATE_F_Init
                0x400503a0                SDB_UPDATE_F_DbToRestrictiveSet
                0x4005042a                SDB_UPDATE_F_SteeringCanMerge
                0x400506b4                SDB_UPDATE_F_DetectedCanMerge
                0x40050ca4                SDB_UPDATE_F_RemainingUpdateBlocksAge
                0x40050e1c                SDB_UPDATE_F_UpdateBlockMerge
                0x4005142c                SDB_UPDATE_F_PDORestrictStatusGet
 .text          0x4005146c     0x1244 ./out/CPU_B/GCC_SDB_updatelist.o
                0x4005146c                SDB_UPDATELIST_F_BlockAddPdo
                0x400518d2                SDB_UPDATELIST_F_BlockRead
                0x40051a10                SDB_UPDATELIST_F_CRCListGet
                0x40051be0                SDB_UPDATELIST_F_BlockCreate
                0x40051dee                SDB_UPDATELIST_F_SetBlockToRelease
                0x40051ed6                SDB_UPDATELIST_F_BlockToReleaseClean
                0x40052280                SDB_UPDATELIST_F_BlockWrite
                0x4005251e                SDB_UPDATELIST_F_Init
                0x40052598                SDB_UPDATELIST_F_BlockRelease
 .text          0x400526b0     0x1bb6 ./out/CPU_B/GCC_std.o
                0x400526b0                __clear
                0x40052a52                STD_F_Printk
                0x40053674                STD_F_VSnprintf
                0x4005371e                STD_F_Snprintf
                0x400537b6                STD_F_Strlen
                0x400537fa                STD_F_Strncat
                0x400538e8                STD_F_Strncpy
                0x40053a1c                STD_F_Strncmp
                0x40053af4                STD_F_Memcpy
                0x40053c9c                STD_F_StrnLowerCaseSet
                0x40053d42                STD_F_Memset
                0x40053dae                STD_F_Memcmp
                0x40053e7e                STD_F_Strtoul
                0x4005418a                STD_F_GenericPause
                0x4005423c                STD_F_WaitOneMs
 *fill*         0x40054266        0x2 
 .text          0x40054268     0x19cc ./out/CPU_B/GCC_VOTE.o
                0x40054268                VOTE_F_Init
                0x40054288                VOTE_F_GetAndResetStat
                0x40054a5c                VOTE_F_CpuWaitExt
                0x40054b92                VOTE_F_ReadExt
                0x40054cc8                VOTE_F_Send
                0x4005504a                VOTE_F_SendToCPU
                0x400555ca                VOTE_F_CpuSendExt
                0x400556d4                VOTE_F_WriteExt
                0x40055780                VOTE_F_CpuExchangeExt
                0x4005589a                VOTE_F_System2oo2CheckExt
                0x40055966                VOTE_F_CycleEndExt
                0x40055ae4                VOTE_F_CycleBegin
                0x40055c20                VOTE_F_K2oo2StatGet
 .text          0x40055c34     0x273e ./out/CPU_B/GCC_VOTE_com.o
                0x40056066                VOTE_F_SendAck
                0x400560ec                VOTE_F_CanSend
                0x4005612e                VOTE_F_EmissionLoop
                0x40056452                VOTE_F_CheckTimeouts
                0x4005804a                VOTE_F_ReceptionLoop
                0x4005821e                VOTE_F_ComInit
 *fill*         0x40058372        0x2 
 .text          0x40058374      0x996 ./out/CPU_B/GCC_VOTE_tsk.o
                0x40058374                VOTE_F_ModeRunningState
                0x40058390                VOTE_TSK_F_GetSubscriptionInfoFromTaskId
                0x400583e0                VOTE_F_SetFragmentationsize
                0x40058476                VOTE_F_Subscribe
                0x4005877e                VOTE_F_Task
                0x400588b4                VOTE_F_Start
                0x400588e4                VOTE_F_Create
                0x40058b6a                VOTE_TSK_F_EvaluateNotification
 *fill*         0x40058d0a        0x2 
 .text          0x40058d0c      0x59e ./out/CPU_B/GCC_wdg.o
                0x40058d58                WDG_F_GetCPUUsageMax
                0x40058d66                WDG_F_Enable
                0x40058d78                WDG_F_PeriodTableMinGet
                0x40058de8                WDG_F_Load
                0x40058fca                WDG_F_GetRemainingTickToEnableWdg
                0x40059002                WDG_F_SwWatchdog
                0x40059212                WDG_F_Create
 *fill*         0x400592aa        0x2 
 .text          0x400592ac     0x67d6 ./out/CPU_B/GCC_viv.o
                0x400592f8                VIV_F_ImageMemoryGet
                0x40059322                VIV_F_EndFlashAsync
                0x40059392                VIV_F_FlashGetSectorNbFromAddr
                0x400593e2                VIV_F_GetMemoryType
                0x400594da                VIV_F_GetSession
                0x400596c0                VIV_F_InitService
                0x4005985e                VIV_F_IsFlashSectorAllowed
                0x40059916                VIV_F_LockSession
                0x400599c0                VIV_F_UnlockSession
                0x40059a2c                VIV_F_ManageCommandCpuReset
                0x40059ca6                VIV_F_ManageCommandGetAllVersion
                0x4005a08e                VIV_F_ManageCommandGetVivVersion
                0x4005a19e                VIV_F_ManageCommandEraseSector
                0x4005a624                VIV_F_ManageCommandMemRead
                0x4005aaf0                VIV_F_ManageCommandMemReadInit
                0x4005ae4c                VIV_F_ManageCommandStatus
                0x4005b4fa                VIV_F_ManageCommandTrigger
                0x4005b8ea                VIV_F_ManageCommandWatchpoint
                0x4005bd34                VIV_F_ManageCommandReprog
                0x4005c0d8                VIV_F_ManageCommandReprogLock
                0x4005c4ea                VIV_V_GetOldestSession
                0x4005c5a8                VIV_F_ManageCommandSessionOpen
                0x4005c8e8                VIV_F_ManageCommandBreakpoint
                0x4005cbd4                VIV_F_ManageCommandMemWrite
                0x4005d032                VIV_F_ManageCommandKill
                0x4005d2b6                VIV_F_ManageCommandInfo
                0x4005d55e                VIV_F_ManageCommandResetDump
                0x4005d7f2                VIV_F_ManageCommandSessionClose
                0x4005daca                VIV_F_ManageCommandMemReadInitRequestCheck
                0x4005e066                VIV_F_RegisterTriggeredFunction
                0x4005e1e4                VIV_F_ManageCommandMemReadInitCheckAsyncRead
                0x4005e52c                VIV_F_EndEraseImageCallback
                0x4005e666                VIV_F_EndWriteImageCallback
                0x4005e72a                VIV_F_EndlogCallback
                0x4005e7d8                VIV_F_ManageCommandUpdate
                0x4005ea3a                VIV_F_ManageCommandVersion
                0x4005ebe6                VIV_F_OpenCases
                0x4005f036                VIV_F_OpenConnectionVivisection
                0x4005f2dc                VIV_F_RegularClose
                0x4005f32a                VIV_F_CommandKillClose
                0x4005f386                VIV_F_MemWriteClose
                0x4005f3c8                VIV_F_EraseSectorClose
                0x4005f4d4                VIV_F_ResetClose
                0x4005f528                VIV_F_BreakpointClose
                0x4005f5ce                VIV_F_WatchpointClose
                0x4005f69a                VIV_F_MemReadInitClose
                0x4005f716                VIV_F_TriggerClose
                0x4005f7f2                VIV_F_ResetDumpClose
                0x4005f87c                VIV_F_UpdateClose
                0x4005f8ce                VIV_F_CloseConnectionVivisection
 *fill*         0x4005fa82        0x2 
 .text          0x4005fa84      0x2d0 ./out/CPU_B/GCC_Drv_CAU_Lib.o
                0x4005fa84                MATH_F_ComputeDES
                0x4005fc4e                MATH_F_ComputeSHA1
 .text          0x4005fd54      0x6b2 ./out/CPU_B/GCC_Drv_BID_Lib.o
                0x4005fd54                Drv_BID_F_GpioExpanderReadReg
                0x4005fe2a                Drv_BID_F_InitializeGpioExpander
                0x4005ff88                Drv_BID_F_GpioExpanderWriteReg
                0x4006003c                Drv_BID_F_GpioExpanderSetAndCheck
                0x40060162                Drv_BID_F_BidRead
 *fill*         0x40060406        0x2 
 .text          0x40060408      0x2b2 ./out/CPU_B/GCC_Drv_Boot_Module.o
                0x40060408                BOOT_F_Check_Copied_Crc
 *fill*         0x400606ba        0x2 
 .text          0x400606bc      0x20a ./out/CPU_B/GCC_Drv_Boot_Utils.o
                0x40060708                Drv_CAN_ETH_F_Disable
                0x40060728                Drv_Ext_WatchDog_F_Enable
                0x40060748                Drv_Ext_WatchDog_F_Disable
                0x40060768                Drv_Ext_WatchDog_F_Feed
                0x40060788                Drv_F_IRQ7_Disable
                0x400607d6                Drv_F_IRQ7_Enable
                0x40060824                Drv_Version_Get
 *fill*         0x400608c6        0x2 
 .text          0x400608c8       0x2e ./out/CPU_B/GCC_Drv_Cache_Lib.o
                0x400608c8                Drv_Cache_F_Invalidate
 *fill*         0x400608f6        0x2 
 .text          0x400608f8      0x2de ./out/CPU_B/GCC_Drv_Can_Isr.o
                0x400608f8                Drv_CAN_F_IsrCan0_Handler
                0x40060a66                Drv_CAN_F_IsrCan1_Handler
 *fill*         0x40060bd6        0x2 
 .text          0x40060bd8     0x40de ./out/CPU_B/GCC_Drv_Can_Lib.o
                0x40060bd8                Drv_CAN_F_CanBusActiveChannelGet
                0x40060be6                Drv_CAN_F_FlexcanTochannel
                0x40060c36                Drv_CAN_F_TxInterruptStop
                0x40060c40                Drv_CAN_F_TxInterruptStart
                0x40060c4a                Drv_CAN_F_OSVectSet
                0x40060cd2                Drv_CAN_F_BusStateGet
                0x40060d18                Drv_CAN_F_Start
                0x40060dd8                Drv_CAN_F_Stop
                0x40060e9a                Drv_CAN_F_HardwareInit
                0x400612cc                Drv_CAN_F_PreviousCycleEndCheck
                0x4006144e                Drv_CAN_F_CanBusStateGet
                0x400614d0                Drv_CAN_F_FrameSend
                0x40061a0a                Drv_CAN_F_ErrorTest
                0x40061b38                Drv_CAN_F_BusOffTest
                0x40061c80                Drv_CAN_F_IsrCan1BusOff
                0x40061cd0                Drv_CAN_F_IsrCan0BusOff
                0x40061d22                Drv_CAN_F_FullBufferProcess
                0x400623a8                Drv_CAN_F_TopHalfISR
                0x40062c24                Drv_CAN_F_SendExtFrame
                0x40062d84                Drv_CAN_F_SendExtFrameStartPump
                0x40062e1e                Drv_CAN_F_TxExtInterrupt
                0x40062f20                Drv_CAN_F_SdoFreeTxBufferFind
                0x40063054                Drv_CAN_F_PdoFreeTxBufferFind
                0x40063230                Drv_CAN_F_WriteFrameRequestViaFifo
                0x400635c4                Drv_CAN_F_WriteFrameRequest
                0x400639e0                Drv_CAN_F_TxPdoInterrupt
                0x40063c8c                Drv_CAN_F_TxSdoInterrupt
                0x40063f38                Drv_CAN_F_Init
                0x40064150                Drv_CAN_F_Flush
                0x400642b4                Drv_CAN_F_ActiveBusSet
                0x40064328                CAN_F_IsrBottomHalfTaskStart
                0x40064376                CAN_F_IsrBottomHalfTaskCreate
                0x4006449a                CAN_F_IsrBottomHalfTask
                0x40064996                Drv_CAN_F_CheckMBAfterFifo
                0x40064bda                Drv_CAN_F_KickToSendFifo
 *fill*         0x40064cb6        0x2 
 .text          0x40064cb8     0x2e06 ./out/CPU_B/GCC_Drv_Fec_Lib.o
                0x40064d04                Drv_Fec_F_IsFrameToBeReceived
                0x40065266                Drv_Fec_F_FrameProcessing
                0x4006578a                Drv_Fec_F_ReceiveStoreFrame
                0x40065e7c                Drv_Fec_F_ConflictIpCheck
                0x40066008                IPSTACK_F_NumberOfIpConflictDetectedGet
                0x4006604c                Drv_Fec_F_Disable
                0x40066110                Drv_Fec_F_Enable
                0x40066548                Drv_Fec_F_RxHandler
                0x400665ae                Drv_Fec_F_RxHandler1
                0x40066aba                Drv_Fec_F_InitHW
                0x40066f8a                Drv_Fec_F_ConflictIPStartFiltering
                0x40066fda                Drv_Fec_F_ConflictIPAllowStart
                0x4006702a                IPSTACK_F_OverflowCountGet
                0x400670c4                Drv_Fec_F_CheckFloodTempo
                0x400671e2                IPSTACK_F_NbCrcErrorGet
                0x400672d8                IPSTACK_F_NbCrcOKGet
                0x400673ce                Drv_Fec_F_Send
                0x400679fc                Drv_Fec_F_PHYSTS_Get
 *fill*         0x40067abe        0x2 
 .text          0x40067ac0      0xdba ./out/CPU_B/GCC_Drv_Flash_Parallel_Lib.o
                0x40067ac0                Drv_FLASH_PARALLEL_F_Init
                0x40067c42                Drv_FLASH_PARALLEL_F_AccessEraseAddresses
                0x40067ca6                Drv_FLASH_PARALLEL_F_AccessMaxReadSize
                0x40067d40                Drv_FLASH_PARALLEL_F_AccessMaxWriteSize
                0x40067dda                Drv_FLASH_PARALLEL_F_FlashUnlockByPassModeEnter
                0x40067e5c                Drv_FLASH_PARALLEL_F_FlashUnlockByPassModeExit
                0x40067ece                Drv_FLASH_PARALLEL_F_FlashUnlockWordWrite
                0x40067f64                Drv_FLASH_PARALLEL_F_FlashReady
                0x400680fc                Drv_FLASH_PARALLEL_F_CheckOperationAuth
                0x400681ea                Drv_FLASH_PARALLEL_F_OperationSuspend
                0x400682f4                Drv_FLASH_PARALLEL_F_OperationResume
                0x400683b2                Drv_FLASH_PARALLEL_F_Erase
                0x400684de                Drv_FLASH_PARALLEL_F_Write
                0x40068654                Drv_FLASH_PARALLEL_F_Read
                0x400686d6                Drv_FLASH_PARALLEL_F_Memset
                0x40068786                Drv_FLASH_PARALLEL_F_OperationStatus
 *fill*         0x4006887a        0x2 
 .text          0x4006887c      0xf40 ./out/CPU_B/GCC_Drv_Flash_Spi_Lib.o
                0x4006887c                Drv_FLASH_SPI_F_Write_Enable
                0x40068916                Drv_FLASH_SPI_F_PageEndSize
                0x40068976                Drv_FLASH_SPI_F_AccessEraseAddresses
                0x40068a22                Drv_FLASH_SPI_F_AccessMaxReadSize
                0x40068a74                Drv_FLASH_SPI_F_AccessMaxWriteSize
                0x40068abc                Drv_FLASH_SPI_F_Erase
                0x40068c72                Drv_FLASH_SPI_F_Write
                0x40068ec8                Drv_FLASH_SPI_F_Read
                0x4006910a                Drv_FLASH_SPI_F_Memset
                0x400691e0                Drv_FLASH_SPI_F_OperationStatus
                0x400693a2                Drv_FLASH_SPI_F_Init
                0x4006964e                Drv_FLASH_SPI_F_Is_Missing
 .text          0x400697bc      0x94c ./out/CPU_B/GCC_Drv_Gpio.o
                0x400697bc                GPIO_F_CpuIdGet
                0x400697e6                GPIO_F_InitGuest
                0x40069b40                GPIO_F_CSInitGuest
                0x40069ca0                GPIO_F_Set
                0x40069db8                GPIO_F_Toggle
                0x40069f66                GPIO_F_Read
                0x40069fea                GPIO_F_Clear
 .text          0x4006a108       0xc0 ./out/CPU_B/GCC_Drv_Led_Lib.o
                0x4006a108                Drv_Hmi_F_CPU_ERR_Set
                0x4006a128                Drv_Hmi_F_CPU_ERR_Clear
                0x4006a148                Drv_Hmi_F_CPU_OK_Set
                0x4006a168                Drv_Hmi_F_CPU_OK_Clear
                0x4006a188                Drv_Hmi_F_CPU_OK_Toggle
                0x4006a1a8                Drv_Hmi_F_CPU_ERR_Toggle
 .text          0x4006a1c8        0x0 ./out/CPU_B/GCC_Drv_MMU_Lib.o
 .text          0x4006a1c8        0x0 ./out/CPU_B/GCC_Drv_SDRAM_Lib.o
 .text          0x4006a1c8      0x636 ./out/CPU_B/GCC_Drv_Spi_Lib.o
                0x4006a214                Drv_SPI_F_Init
                0x4006a27c                Drv_SPI_F_WaitAvailable
                0x4006a37c                Drv_SPI_F_Process
 *fill*         0x4006a7fe        0x2 
 .text          0x4006a800      0x65e ./out/CPU_B/GCC_Drv_Timer_Lib.o
                0x4006a8d4                Drv_Timer_F_Handler_0
                0x4006a90e                Drv_Timer_F_Handler_1
                0x4006a948                Drv_Timer_F_Handler_2
                0x4006a982                Drv_Timer_F_Handler_3
                0x4006a9bc                Drv_Timer_F_Enable
                0x4006aa2a                Drv_Timer_F_Int_Clear
                0x4006aa98                Drv_Timer_F_Init
                0x4006ad18                Drv_Timer_F_Count_Reset
 *fill*         0x4006ae5e        0x2 
 .text          0x4006ae60     0x1a40 ./out/CPU_B/GCC_Drv_Uart_Vote.o
                0x4006aeac                Drv_Uart_F_EvaluateWriteIndex
                0x4006af72                Drv_Uart_F_CheckUartError
                0x4006b074                Drv_Uart_F_TestDmaErrorTxConfig
                0x4006b0e6                Drv_Uart_F_TestDmaErrorRxConfig
                0x4006b296                Drv_Uart_F_EndOfRx
                0x4006b3a4                Drv_Uart_F_TxHandler
                0x4006b740                Drv_Uart_F_SendFrame
                0x4006be06                Drv_Uart_F_WaitForStartUART
                0x4006c04e                Drv_Uart_F_RxHandler
                0x4006c180                Drv_Uart_F_HardwareInit
 .text          0x4006c8a0       0x70 ./out/CPU_B/GCC_bsp.o
                0x4006c8a0                BSP_CPU_ClkFreq
                0x4006c8dc                BSP_F_OS_Tick_Init
 .text          0x4006c910      0x6f0 ./out/CPU_B/GCC_exceptions.o
                0x4006c910                exception_VectorProc
                0x4006cd4e                OS_exception_handler
 .text          0x4006d000      0x196 ./out/CPU_B/GCC_os_core.o
                0x4006d0a0                OSInit
                0x4006d0c0                OSIntEnter
                0x4006d0d0                OSIntExit
                0x4006d0e0                OSSchedLock
                0x4006d0f0                OSSchedUnlock
                0x4006d100                OSStart
                0x4006d110                OSStatInit
                0x4006d128                OS_StrLen
                0x4006d154                OS_StrCopy
 *fill*         0x4006d196        0x2 
 .text          0x4006d198      0x450 ./out/CPU_B/GCC_os_flag.o
                0x4006d198                OSFlagAccept
                0x4006d254                OSFlagCreate
                0x4006d2c4                OSFlagDel
                0x4006d3b6                OSFlagPend
                0x4006d49e                OSFlagPendGetFlagsRdy
                0x4006d4ac                OSFlagPost
                0x4006d568                OSFlagQuery
 .text          0x4006d5e8        0x0 ./out/CPU_B/GCC_os_hooks.o
 .text          0x4006d5e8      0x604 ./out/CPU_B/GCC_os_mbox.o
                0x4006d5e8                OSMboxAccept
                0x4006d63e                OSMboxCreate
                0x4006d6fa                OSMboxDel
                0x4006d888                OSMboxPend
                0x4006d9a6                OSMboxPost
                0x4006da32                OSMboxPostOpt
                0x4006db56                OSMboxQuery
 .text          0x4006dbec      0x54a ./out/CPU_B/GCC_os_mem.o
                0x4006dbec                OSMemCreate
                0x4006dd02                OSMemGet
                0x4006dd94                OSMemNameGet
                0x4006de44                OSMemNameSet
                0x4006df1e                OSMemPut
                0x4006df9c                OSMemQuery
                0x4006e054                OS_MemInit
 *fill*         0x4006e136        0x2 
 .text          0x4006e138      0x5b6 ./out/CPU_B/GCC_os_mutex.o
                0x4006e138                OSMutexAccept
                0x4006e230                OSMutexCreate
                0x4006e352                OSMutexDel
                0x4006e46c                OSMutexPend
                0x4006e54c                OSMutexPost
                0x4006e604                OSMutexQuery
 *fill*         0x4006e6ee        0x2 
 .text          0x4006e6f0      0x616 ./out/CPU_B/GCC_os_q.o
                0x4006e6f0                OSQAccept
                0x4006e782                OSQCreate
                0x4006e828                OSQDel
                0x4006e946                OSQFlush
                0x4006e9b4                OSQPend
                0x4006ea8e                OSQPost
                0x4006eafe                OSQPostFront
                0x4006eb6e                OSQPostOpt
                0x4006ec72                OSQQuery
 *fill*         0x4006ed06        0x2 
 .text          0x4006ed08      0x45e ./out/CPU_B/GCC_os_sem.o
                0x4006ed08                OSSemAccept
                0x4006ed60                OSSemCreate
                0x4006ee00                OSSemDel
                0x4006ef1e                OSSemPend
                0x4006efde                OSSemPost
                0x4006f050                OSSemQuery
                0x4006f0da                OSSemSet
 *fill*         0x4006f166        0x2 
 .text          0x4006f168      0xa98 ./out/CPU_B/GCC_os_task.o
                0x4006f168                OSTaskChangePrio
                0x4006f2ae                OSTaskCreate
                0x4006f38a                OSTaskCreateExt
                0x4006f4a2                OSTaskDel
                0x4006f5b6                OSTaskNameGet
                0x4006f6f0                OSTaskNameSet
                0x4006f85c                OSTaskResume
                0x4006f91c                OSTaskSuspend
                0x4006f9e6                OSTaskStkChk
                0x4006fad0                OSTaskQuery
                0x4006fbc0                OS_TaskNameInit
 .text          0x4006fc00       0xfe ./out/CPU_B/GCC_os_time.o
                0x4006fc00                OSTimeDly
                0x4006fc28                OSTimeDlyResume
                0x4006fcca                OSTimeGet
                0x4006fcd8                OSTimeSet
                0x4006fcee                OSTimeTick
 *fill*         0x4006fcfe        0x2 
 .text          0x4006fd00      0x1d6 ./out/CPU_B/GCC_arch_cache.o
                0x4006fd00                archCacheEnableData
                0x4006fd64                archCacheEnableInstruction
                0x4006fde4                archCacheDisableData
                0x4006fe28                archCacheDisableInstruction
                0x4006fe82                archCacheInvalidateData
                0x4006feac                archCacheInvalidateInstruction
 *fill*         0x4006fed6        0x2 
 .text          0x4006fed8        0x0 ./out/CPU_B/GCC_core.o
 .text          0x4006fed8        0x0 ./out/CPU_B/GCC_coretask.o
 .text          0x4006fed8      0x428 ./out/CPU_B/GCC_idletaskcreate.o
                0x4007029a                idleTaskEntry
                0x400702c6                idleTaskCreate
 .text          0x40070300        0x0 ./out/CPU_B/GCC_cache_disable_data.o
 .text          0x40070300        0x0 ./out/CPU_B/GCC_cache_disable_instruction.o
 .text          0x40070300        0x0 ./out/CPU_B/GCC_cache_enable_data.o
 .text          0x40070300        0x0 ./out/CPU_B/GCC_cache_enable_instruction.o
 .text          0x40070300        0x0 ./out/CPU_B/GCC_cache_flush_data.o
 .text          0x40070300        0x0 ./out/CPU_B/GCC_cache_invalidate_data.o
 .text          0x40070300        0x0 ./out/CPU_B/GCC_cache_invalidate_instruction.o
 .text          0x40070300        0x0 ./out/CPU_B/GCC_counter.o
 .text          0x40070300        0x0 ./out/CPU_B/GCC_counter_create.o
 .text          0x40070300        0x0 ./out/CPU_B/GCC_counter_delete.o
 .text          0x40070300        0x0 ./out/CPU_B/GCC_counter_increment.o
 .text          0x40070300        0x0 ./out/CPU_B/GCC_counter_tick_get.o
 .text          0x40070300        0x0 ./out/CPU_B/GCC_counter_tick_set.o
 .text          0x40070300      0x102 ./out/CPU_B/GCC_event.o
                0x400703b8                eventModuleInit
 *fill*         0x40070402        0x2 
 .text          0x40070404      0x5c4 ./out/CPU_B/GCC_event_clear.o
                0x40070752                event_clear
 .text          0x400709c8      0x26a ./out/CPU_B/GCC_event_group_create.o
                0x40070b98                event_group_create
 *fill*         0x40070c32        0x2 
 .text          0x40070c34      0x258 ./out/CPU_B/GCC_event_group_delete.o
                0x40070dd0                event_group_delete
 .text          0x40070e8c      0x48c ./out/CPU_B/GCC_event_group_delete_force.o
                0x40071222                event_group_delete_force
 .text          0x40071318      0x126 ./out/CPU_B/GCC_event_group_info.o
                0x400713d2                event_group_info
 *fill*         0x4007143e        0x2 
 .text          0x40071440      0x602 ./out/CPU_B/GCC_event_notify.o
                0x4007178e                event_notify
 *fill*         0x40071a42        0x2 
 .text          0x40071a44       0x7e ./out/CPU_B/GCC_event_ready_get.o
                0x40071a90                event_ready_get
 *fill*         0x40071ac2        0x2 
 .text          0x40071ac4      0x5c0 ./out/CPU_B/GCC_event_set.o
                0x40071e12                event_set
 .text          0x40072084      0x2c4 ./out/CPU_B/GCC_event_try_wait.o
                0x4007213e                event_try_wait
 .text          0x40072348      0x6c0 ./out/CPU_B/GCC_event_wait.o
                0x40072654                event_wait
 .text          0x40072a08       0x22 ./out/CPU_B/GCC_fatal_error_raise.o
                0x40072a08                fatal_error_raise
 *fill*         0x40072a2a        0x2 
 .text          0x40072a2c       0x2e ./out/CPU_B/GCC_irq_is_enabled.o
                0x40072a4e                irq_is_enabled
 *fill*         0x40072a5a        0x2 
 .text          0x40072a5c       0x24 ./out/CPU_B/GCC_irq_resume.o
                0x40072a6c                irq_resume
 .text          0x40072a80       0x28 ./out/CPU_B/GCC_irq_suspend.o
                0x40072a9c                irq_suspend
 .text          0x40072aa8       0x10 ./out/CPU_B/GCC_isr.o
                0x40072aa8                isrModuleInit
 .text          0x40072ab8       0x4c ./out/CPU_B/GCC_isr_enter.o
 .text          0x40072b04      0x15e ./out/CPU_B/GCC_isr_exit.o
 *fill*         0x40072c62        0x2 
 .text          0x40072c64        0xe ./out/CPU_B/GCC_isr_level_get.o
                0x40072c64                isr_level_get
 *fill*         0x40072c72        0x2 
 .text          0x40072c74      0x106 ./out/CPU_B/GCC_mempart.o
                0x40072d2c                mempartModuleInit
 *fill*         0x40072d7a        0x2 
 .text          0x40072d7c      0x17e ./out/CPU_B/GCC_mempart_alloc.o
                0x40072e3a                mempart_alloc
 *fill*         0x40072efa        0x2 
 .text          0x40072efc      0x2e2 ./out/CPU_B/GCC_mempart_create.o
                0x400730f4                mempart_create
 *fill*         0x400731de        0x2 
 .text          0x400731e0      0x16c ./out/CPU_B/GCC_mempart_free.o
                0x4007329e                mempart_free
 .text          0x4007334c      0x192 ./out/CPU_B/GCC_mempart_info.o
                0x4007340a                mempart_info
 *fill*         0x400734de        0x2 
 .text          0x400734e0      0x106 ./out/CPU_B/GCC_message_queue.o
                0x40073598                messageQueueModuleInit
 *fill*         0x400735e6        0x2 
 .text          0x400735e8      0x542 ./out/CPU_B/GCC_message_queue_broadcast.o
                0x40073962                message_queue_broadcast
 *fill*         0x40073b2a        0x2 
 .text          0x40073b2c      0x2d4 ./out/CPU_B/GCC_message_queue_create.o
                0x40073d30                message_queue_create
 .text          0x40073e00      0x288 ./out/CPU_B/GCC_message_queue_delete.o
                0x40073fcc                message_queue_delete
 .text          0x40074088      0x508 ./out/CPU_B/GCC_message_queue_delete_force.o
                0x4007449a                message_queue_delete_force
 .text          0x40074590      0x13a ./out/CPU_B/GCC_message_queue_flush.o
                0x4007464e                message_queue_flush
 *fill*         0x400746ca        0x2 
 .text          0x400746cc      0x162 ./out/CPU_B/GCC_message_queue_info.o
                0x4007478a                message_queue_info
 *fill*         0x4007482e        0x2 
 .text          0x40074830      0x4c8 ./out/CPU_B/GCC_message_queue_receive.o
                0x40074b36                message_queue_receive
 .text          0x40074cf8      0x480 ./out/CPU_B/GCC_message_queue_send.o
                0x4007505a                message_queue_send
 .text          0x40075178      0x480 ./out/CPU_B/GCC_message_queue_send_first.o
                0x400754da                message_queue_send_first
 .text          0x400755f8      0x1a6 ./out/CPU_B/GCC_message_queue_try_receive.o
                0x400756b6                message_queue_try_receive
 *fill*         0x4007579e        0x2 
 .text          0x400757a0      0x10a ./out/CPU_B/GCC_mutex.o
                0x40075858                mutexModuleInit
 *fill*         0x400758aa        0x2 
 .text          0x400758ac      0x2be ./out/CPU_B/GCC_mutex_create.o
                0x40075a7e                mutex_create
 *fill*         0x40075b6a        0x2 
 .text          0x40075b6c      0x238 ./out/CPU_B/GCC_mutex_delete.o
                0x40075cde                mutex_delete
 .text          0x40075da4      0x726 ./out/CPU_B/GCC_mutex_delete_force.o
                0x40076376                mutex_delete_force
 *fill*         0x400764ca        0x2 
 .text          0x400764cc      0x162 ./out/CPU_B/GCC_mutex_info.o
                0x4007658e                mutex_info
 *fill*         0x4007662e        0x2 
 .text          0x40076630      0x69a ./out/CPU_B/GCC_mutex_lock.o
                0x40076af6                mutex_lock
 *fill*         0x40076cca        0x2 
 .text          0x40076ccc      0x188 ./out/CPU_B/GCC_mutex_try_lock.o
                0x40076d8e                mutex_try_lock
 .text          0x40076e54      0x69c ./out/CPU_B/GCC_mutex_unlock.o
                0x40077376                mutex_unlock
 .text          0x400774f0       0x40 ./out/CPU_B/GCC_os_init.o
                0x400774f0                os_init
 .text          0x40077530       0x12 ./out/CPU_B/GCC_os_safety_critical.o
                0x40077530                os_safety_critical
 *fill*         0x40077542        0x2 
 .text          0x40077544       0x3c ./out/CPU_B/GCC_os_shutdown.o
                0x40077560                os_shutdown
 .text          0x40077580       0xe4 ./out/CPU_B/GCC_os_start.o
                0x40077644                os_start
 .text          0x40077664       0xac ./out/CPU_B/GCC_sched_lock.o
                0x400776b0                sched_lock
 .text          0x40077710      0x1ce ./out/CPU_B/GCC_sched_unlock.o
                0x4007786e                sched_unlock
 *fill*         0x400778de        0x2 
 .text          0x400778e0      0x10a ./out/CPU_B/GCC_semaphore.o
                0x40077998                semaphoreModuleInit
 *fill*         0x400779ea        0x2 
 .text          0x400779ec      0x12e ./out/CPU_B/GCC_semaphore_count_get.o
                0x40077aae                semaphore_count_get
 *fill*         0x40077b1a        0x2 
 .text          0x40077b1c      0x176 ./out/CPU_B/GCC_semaphore_count_set.o
                0x40077bf6                semaphore_count_set
 *fill*         0x40077c92        0x2 
 .text          0x40077c94      0x266 ./out/CPU_B/GCC_semaphore_create.o
                0x40077e60                semaphore_create
 *fill*         0x40077efa        0x2 
 .text          0x40077efc      0x28c ./out/CPU_B/GCC_semaphore_delete.o
                0x400780cc                semaphore_delete
 .text          0x40078188      0x50c ./out/CPU_B/GCC_semaphore_delete_force.o
                0x4007859e                semaphore_delete_force
 .text          0x40078694      0x42e ./out/CPU_B/GCC_semaphore_give.o
                0x400789fa                semaphore_give
 *fill*         0x40078ac2        0x2 
 .text          0x40078ac4      0x12e ./out/CPU_B/GCC_semaphore_info.o
                0x40078b86                semaphore_info
 *fill*         0x40078bf2        0x2 
 .text          0x40078bf4      0x440 ./out/CPU_B/GCC_semaphore_take.o
                0x40078efe                semaphore_take
 .text          0x40079034      0x168 ./out/CPU_B/GCC_semaphore_try_take.o
                0x400790f6                semaphore_try_take
 .text          0x4007919c       0x10 ./out/CPU_B/GCC_sys_tick.o
                0x4007919c                sysTickModuleInit
 .text          0x400791ac       0x74 ./out/CPU_B/GCC_sys_tick_get.o
                0x400791f8                sys_tick_get
 .text          0x40079220      0x3c8 ./out/CPU_B/GCC_sys_tick_increment.o
                0x40079528                sys_tick_increment
 .text          0x400795e8       0x72 ./out/CPU_B/GCC_sys_tick_set.o
                0x40079634                sys_tick_set
 *fill*         0x4007965a        0x2 
 .text          0x4007965c      0x32e ./out/CPU_B/GCC_task.o
                0x400798ee                taskModuleInit
 *fill*         0x4007998a        0x2 
 .text          0x4007998c       0xda ./out/CPU_B/GCC_task_check_idle_stack.o
                0x40079a06                task_check_idle_stack
 *fill*         0x40079a66        0x2 
 .text          0x40079a68      0x198 ./out/CPU_B/GCC_task_check_stack.o
                0x40079b58                task_check_stack
 .text          0x40079c00      0x75e ./out/CPU_B/GCC_task_create.o
                0x4007a1fe                task_create
 *fill*         0x4007a35e        0x2 
 .text          0x4007a360      0x28c ./out/CPU_B/GCC_task_delay.o
                0x4007a58e                task_delay
 .text          0x4007a5ec      0x342 ./out/CPU_B/GCC_task_delay_cancel.o
                0x4007a878                task_delay_cancel
 *fill*         0x4007a92e        0x2 
 .text          0x4007a930      0x4fe ./out/CPU_B/GCC_task_delete.o
                0x4007ad46                task_delete
 *fill*         0x4007ae2e        0x2 
 .text          0x4007ae30       0xfc ./out/CPU_B/GCC_task_get_by_priority.o
                0x4007ae7c                task_get_by_priority
 .text          0x4007af2c      0x146 ./out/CPU_B/GCC_task_get_priority.o
                0x4007afee                task_get_priority
 *fill*         0x4007b072        0x2 
 .text          0x4007b074      0x18a ./out/CPU_B/GCC_task_info.o
                0x4007b136                task_info
 *fill*         0x4007b1fe        0x2 
 .text          0x4007b200      0x2fc ./out/CPU_B/GCC_task_resume.o
                0x4007b428                task_resume
 .text          0x4007b4fc      0x53e ./out/CPU_B/GCC_task_set_priority.o
                0x4007b94e                task_set_priority
 *fill*         0x4007ba3a        0x2 
 .text          0x4007ba3c       0x7e ./out/CPU_B/GCC_task_statis_info.o
                0x4007ba88                task_statis_info
 *fill*         0x4007baba        0x2 
 .text          0x4007babc       0xcc ./out/CPU_B/GCC_task_statis_init.o
                0x4007bb08                task_statis_init
 .text          0x4007bb88      0x30a ./out/CPU_B/GCC_task_suspend.o
                0x4007bdca                task_suspend
 *fill*         0x4007be92        0x2 
 .text          0x4007be94        0x0 ./out/CPU_B/GCC_timer.o
 .text          0x4007be94        0x0 ./out/CPU_B/GCC_timer_cancel.o
 .text          0x4007be94        0x0 ./out/CPU_B/GCC_timer_create.o
 .text          0x4007be94        0x0 ./out/CPU_B/GCC_timer_delete.o
 .text          0x4007be94        0x0 ./out/CPU_B/GCC_timer_set_abs.o
 .text          0x4007be94        0x0 ./out/CPU_B/GCC_timer_set_rel.o
 .text          0x4007be94      0x4dc ./out/CPU_B/GCC_os_cpu_c.o
                0x4007bee0                OSVectSet
                0x4007bf28                OSVectGet
                0x4007bf6a                OS_GetFreeItStackPercentage
                0x4007bfd6                OSInitHookEnd
                0x4007bfe0                OSTCBInitHook
                0x4007bfea                OSHptGet
                0x4007c0de                OSHptAdd
                0x4007c182                OSHptSubstract
                0x4007c23c                OSHptIsBigger
                0x4007c2b8                OSCpuReset
                0x4007c2d8                OSWriteDebugControlRegister
                0x4007c2ea                OSIntCtxSwMgt
                0x4007c318                OS_TcbPrioTblCRC
 .text          0x4007c370      0x396 ./out/CPU_B/GCC_GM_Mathlib.o
                0x4007c370                GM_MATHLIB_F_Add
                0x4007c4e6                GM_MATHLIB_F_Sub
                0x4007c5ee                GM_MATHLIB_F_DivideBy2
                0x4007c6b8                GM_MATHLIB_F_Has64BitsOverflow
                0x4007c6e6                GM_MATHLIB_F_Is64BitsNegative
 *fill*         0x4007c706        0x2 
 .text          0x4007c708     0x21cc ./out/CPU_B/GCC_GM_PROSTACK_Arp.o
                0x4007c754                GM_PROS_ARP_F_SameSubnet
                0x4007c80a                GM_PROS_ARP_F_ClearEntry
                0x4007c8c2                GM_PROS_ARP_F_AddEntry
                0x4007cbc6                GM_PROS_ARP_F_AddStaticEntry
                0x4007cc10                GM_PROS_ARP_F_SendRequest
                0x4007cf18                GM_PROS_ARP_F_PeriodicCheck
                0x4007d168                GM_PROS_ARP_F_GratuitousARPRequest
                0x4007d6aa                GM_PROS_ARP_F_ProbeSend
                0x4007db84                GM_PROS_ARP_F_ProbeStatus_1
                0x4007dc2c                GM_PROS_ARP_F_ProbeStatus_2
                0x4007dcd4                GM_PROS_ARP_F_ProbeStoreReply
                0x4007dd7c                GM_PROS_ARP_F_ProbeReset
                0x4007ddbe                GM_PROS_ARP_F_Init
                0x4007ded0                GM_PROS_ARP_F_FindEntry
                0x4007e118                GM_PROS_ARP_F_Reply
                0x4007e47c                GM_PROS_ARP_F_ManageFrame
 .text          0x4007e8d4      0xb4a ./out/CPU_B/GCC_GM_PROSTACK_Can.o
                0x4007e8d4                GM_PROS_CAN_F_GetInternalFifo
                0x4007e8e2                GM_PROS_CAN_F_GetCanAddrFromIP
                0x4007e970                GM_PROS_CAN_F_Send
                0x4007ed46                GM_PROS_CAN_F_ProcessFunc
                0x4007f18c                GM_PROS_CAN_F_Start
                0x4007f1d0                GM_PROS_CAN_F_Create
                0x4007f27c                GM_PROSTACK_F_CanAddressCheck
                0x4007f30a                GM_PROS_CAN_F_GetCanPrioFromIP
                0x4007f3b4                GM_PROS_CAN_F_GetIPOverCANAddr
                0x4007f3c2                GM_PROS_CAN_F_MemBlockIdGet
 *fill*         0x4007f41e        0x2 
 .text          0x4007f420     0x10e0 ./out/CPU_B/GCC_GM_PROSTACK_Cop.o
                0x4007f46c                GM_PROS_COP_F_ServiceClose
                0x4007fb3e                GM_PROS_COP_F_IsCanRoutingAuthorized
                0x4007fcbe                GM_PROS_COP_F_Init
                0x4007fd46                GM_PROS_COP_F_ManageCommandInfo
                0x4007fe5c                GM_PROS_COP_F_ManageOpenCommand
                0x40080218                GM_PROS_COP_F_ServiceOpen
 .text          0x40080500      0xf7c ./out/CPU_B/GCC_GM_PROSTACK_Eth.o
                0x4008054c                GM_PROS_ETH_F_RepeatFrame
                0x40080616                GM_PROS_ETH_F_SendIp
                0x400808c0                GM_PROS_ETH_F_ManageRepetition
                0x40080ce0                GM_PROS_ETH_F_UpdateStat
                0x40080e12                GM_PROS_ETH_F_IpReceptionProcess
                0x400812f0                GM_PROS_ETH_F_Start
                0x400813fa                GM_PROS_ETH_F_Create
 .text          0x4008147c      0x57a ./out/CPU_B/GCC_GM_PROSTACK_Icmp.o
                0x400814c8                GM_PROS_ICMP_F_Reception
 *fill*         0x400819f6        0x2 
 .text          0x400819f8     0x28d6 ./out/CPU_B/GCC_GM_PROSTACK_Ip.o
                0x40081a44                GM_PROS_IP_F_GetInternalFifo
                0x40081a52                GM_PROS_IP_F_SetTtl
                0x40081a6e                GM_PROS_IP_F_GetSubnetInterface
                0x40081bc4                GM_PROS_IP_F_ForceGateway
                0x40081c9e                GM_PROS_IP_F_Drop
                0x40081cfc                GM_PROS_IP_F_LocalReceive_FSFB2
                0x40081d64                GM_PROS_IP_F_LocalReceive_RSSP1
                0x40081dcc                GM_PROS_IP_F_LocalReceive_IP1
                0x40081e34                GM_PROS_IP_F_LocalReceive_IP2
                0x40081e9c                GM_PROS_IP_F_Checksum
                0x40081f78                GM_PROS_IP_F_PrepareIpHeader
                0x400820ba                GM_PROS_IP_F_AddItf
                0x4008214e                GM_PROS_IP_F_AddRule
                0x4008232c                GM_PROS_IP_F_RemoveItf
                0x4008251a                GM_PROS_IP_F_CopyFrame
                0x40082592                GM_PROS_IP_F_FreeBuffer
                0x4008272c                GM_PROS_IP_F_CheckSendInterface
                0x40082806                GM_PROS_IP_F_SendToInterface
                0x40082d50                GM_PROS_IP_F_Send
                0x40082f6a                GM_PROS_IP_F_InitBufferManagement
                0x40083094                GM_PROS_IP_F_Init
                0x40083162                GM_PROS_IP_F_ReserveBuffer
                0x400832ca                GM_PROS_IP_F_ManageFrameFiltering
                0x40083500                GM_PROS_IP_F_CheckFilter
                0x40083708                GM_PROS_IP_F_ApplyRule
                0x40083894                GM_PROS_IP_F_FilteringPostRouting
                0x400838dc                GM_PROS_IP_F_DispatchReceivedFrame
                0x40083994                GM_PROS_IP_F_Routing
                0x40083b36                GM_PROS_IP_F_EmissionProcess
                0x40083c54                GM_PROS_IP_F_ReceiveFrame
                0x40084128                GM_PROS_IP_F_ProcessAllItf
 *fill*         0x400842ce        0x2 
 .text          0x400842d0     0x5cca ./out/CPU_B/GCC_GM_PROSTACK_Ip_tsk.o
                0x4008431c                GM_PROS_IP_TSK_F_GetNonSafetyIp_1
                0x40084352                GM_PROS_IP_TSK_F_GetNonSafetyIp_2
                0x40084388                GM_PROS_IP_TSK_F_GetLocalIp_1
                0x400843be                GM_PROS_IP_TSK_F_GetLocalIp_2
                0x400843f4                GM_PROS_IP_TSK_F_GetLocalNetMask_1
                0x4008442a                GM_PROS_IP_TSK_F_GetLocalNetMask_2
                0x40084460                GM_PROSTACK_F_UsigRedundedPortCpuAGet
                0x4008446c                GM_PROSTACK_F_UsigSinglePortCpuAGet
                0x40084478                GM_PROSTACK_F_Get_RSSP1_UART_Port
                0x40084484                GM_PROSTACK_F_SnmpPortNormalLinkGet
                0x40084490                GM_PROSTACK_F_SnmpPortRedundedLinkGet
                0x4008449c                GM_PROSTACK_F_SnmpTrapPortNormalLinkGet
                0x400844a8                GM_PROSTACK_F_SnmpTrapPortRedundedLinkGet
                0x400844b4                GM_PROSTACK_F_IsSameSubnet
                0x400844f8                GM_PROS_IP_F_GetEthernetIndex
                0x4008459e                GM_PROSTACK_F_OtherCpuPrivateEthIpAddrGet
                0x400845ec                GM_PROS_IP_TSK_F_ForceGatewayCanStepper
                0x4008479a                GM_PROS_IP_TSK_F_RouteCanUdpOut
                0x40084898                GM_PROS_IP_TSK_F_RouteCanUdpIn
                0x400849e8                GM_PROSTACK_F_InternalFrameDropGet
                0x40084a76                GM_PROS_IP_TSK_F_IsStandby
                0x40084be2                GM_PROS_IP_TSK_F_GatewayIpGet
                0x40084dd6                GM_PROSTACK_F_UsigSinglePortCpuBGet
                0x40084df2                GM_PROSTACK_F_UsigRedundedPortCpuBGet
                0x40084e08                GM_PROSTACK_F_Get_RSSP1_PrimaryCpuA_Port
                0x40084e24                GM_PROSTACK_F_Get_RSSP1_PrimaryCpuB_Port
                0x40084e40                GM_PROSTACK_F_Get_RSSP1_SecondaryCpuA_Port
                0x40084e5c                GM_PROSTACK_F_Get_RSSP1_SecondaryCpuB_Port
                0x40084e78                GM_PROSTACK_F_IsTaskActivated
                0x40084f76                GM_PROSTACK_F_IpTskCreate
                0x40085542                GM_PROS_IP_TSK_F_ValidConfig
                0x40086252                GM_PROS_IP_TSK_F_CheckConfDuplicateIP
                0x40086546                GM_PROS_IP_TSK_F_CheckConfMainStateChart
                0x400865de                GM_PROSTACK_F_IpTskTask
                0x40086a02                GM_PROS_IP_TSK_F_SnatCan
                0x40086cca                GM_PROS_IP_TSK_F_DnatCan
                0x400870b2                GM_PROS_IP_TSK_F_SDnatCanPrio
                0x40087304                GM_PROS_IP_TSK_F_ConfigFilteringFsfb2
                0x4008775a                GM_PROS_IP_TSK_F_ConfigFilteringRSSP1
                0x40087b9c                GM_PROS_IP_TSK_F_RouteSnmp
                0x40087c72                GM_PROS_IP_TSK_F_ConfigFilteringSnmp
                0x40087fd4                GM_PROS_IP_TSK_F_ConfigFilteringIPoverCAN
                0x40088154                GM_PROS_IP_TSK_F_ConfigureFiltering
                0x400884e4                GM_PROS_IP_TSK_F_StartAccordingtoConf
                0x40089d28                GM_PROS_IP_TSK_F_NotifyConfOK
                0x40089d6c                GM_PROSTACK_F_IpTskStart
                0x40089ef6                GM_PROS_IP_TSK_F_RouteItfCan
 *fill*         0x40089f9a        0x2 
 .text          0x40089f9c     0x23ec ./out/CPU_B/GCC_GM_PROSTACK_Udp.o
                0x40089fe8                GM_PROS_UDP_F_FindSocket
                0x4008a08e                GM_PROS_UDP_F_Checksum
                0x4008a1d2                GM_PROS_UDP_F_CheckChecksum
                0x4008a31c                GM_PROS_UDP_F_Nat
                0x4008a720                GM_PROSTACK_F_UdpGetPort
                0x4008a796                GM_PROS_UDP_F_Snat
                0x4008a824                GM_PROS_UDP_F_Dnat
                0x4008a9a2                GM_PROSTACK_F_UdpGetFreePort
                0x4008ac3a                GM_PROSTACK_F_UdpConfigFlagPost
                0x4008ace2                GM_PROS_UDP_F_DnatFSFB2
                0x4008b00a                GM_PROS_UDP_F_StoreRecvFrame
                0x4008b272                GM_PROS_UDP_F_Reception
                0x4008b5c0                GM_PROSTACK_F_UdpFlush
                0x4008b6ac                GM_PROSTACK_F_UdpRecv
                0x4008ba92                GM_PROSTACK_F_UdpSend
                0x4008be84                GM_PROSTACK_F_UdpClose
                0x4008bfc0                GM_PROSTACK_F_UdpOpen
                0x4008c2a4                GM_PROS_UDP_F_Init
 .text          0x4008c388      0x56c ./out/CPU_B/GCC_GM_PROSTACK_Vote.o
                0x4008c3d4                GM_PROS_VOTE_F_GetInternalFifo
                0x4008c3e2                GM_PROS_VOTE_F_Send
                0x4008c542                GM_PROS_VOTE_F_ProcessFunc
                0x4008c820                GM_PROS_VOTE_F_Init
 .text          0x4008c8f4     0x36cc ./out/CPU_B/GCC_GM_Tftp.o
                0x4008c940                GM_TFTP_F_Config
                0x4008c94a                GM_TFTP_F_ReadInt16UInMessage
                0x4008c9ba                GM_TFTP_F_WriteInt16UInBuffer
                0x4008ca28                GM_TFTP_F_ServiceSubscribe
                0x4008cc38                GM_TFTP_F_Start
                0x4008cdc8                GM_TFTP_F_FreeConnectionGet
                0x4008ceba                GM_TFTP_F_OpenConnection
                0x4008d0ae                GM_TFTP_F_OpenClientConnection
                0x4008d1d4                GM_TFTP_F_SendAck
                0x4008d2ee                GM_TFTP_F_SendRequestToServer
                0x4008d602                GM_TFTP_F_ResetConnection
                0x4008d76e                GM_TFTP_F_ClientRead
                0x4008d910                GM_TFTP_F_ClientWrite
                0x4008da7c                GM_TFTP_F_CloseConnection
                0x4008dc62                GM_TFTP_F_ManageEndOfTransfer
                0x4008dcda                GM_TFTP_F_SendError
                0x4008dfac                GM_TFTP_F_RecvError
                0x4008e07a                GM_TFTP_F_RecvMessage
                0x4008e260                GM_TFTP_F_RecvData
                0x4008e4d4                GM_TFTP_F_SendData
                0x4008e744                GM_TFTP_F_RecvAck
                0x4008e974                GM_TFTP_F_ManageConnection
                0x4008eb1a                GM_TFTP_F_ReadConnectionMessage
                0x4008f154                GM_TFTP_F_SearchService
                0x4008f2ba                GM_TFTP_F_CheckAndUnpackReqMessage
                0x4008f4a2                GM_TFTP_F_OpenServerConnection
                0x4008f756                GM_TFTP_F_ReadServerMessage
                0x4008fa2c                GM_TFTP_F_Task
                0x4008fc3a                GM_TFTP_F_Create
                0x4008fe14                GM_TFTP_F_Retransmission
 .text          0x4008ffc0     0x1392 ./out/CPU_B/GCC_guest.o
                0x4008ffca                GUEST_F_SystemSetup
                0x40090252                GUEST_F_IoSetupGet
                0x40090278                GUEST_F_On_GDFSafe
                0x4009030e                GUEST_F_On_GDFEnding
                0x400903ac                GUEST_F_On_BootFailed
                0x400903b6                GUEST_F_On_Printf
                0x400903f4                GUEST_F_AllocateMemorySpaceForKernel
                0x4009052e                GUEST_F_ConfigSubAreaCheck
                0x40090568                GUEST_F_On_SafetyFlagsInit
                0x4009067e                GUEST_F_On_MEVODefaultSet
                0x400906ba                GUEST_F_ApplicationSwVersionGet
                0x400906c8                GUEST_F_FaultFilteringTimerGet
                0x40090716                GUEST_F_FaultFilteringAuthorizeGet
                0x4009075c                GUEST_F_FaultFiltering_Init
                0x40090846                GUEST_F_FaultFiltering_Running
                0x4009133e                GUEST_F_PDOForgiveCntGet
                0x40091348                GUEST_F_GetPrintLevel
 *fill*         0x40091352        0x2 
 .text          0x40091354      0x3ce ./out/CPU_B/GCC_guest_fuse.o
                0x40091652                GUEST_F_FuseTestSetOn
                0x40091668                GUEST_F_FuseTestSetOff
                0x4009167e                GUEST_F_FUSE_Test
 *fill*         0x40091722        0x2 
 .text          0x40091724      0x3c4 ./out/CPU_B/GCC_guest_isolation.o
                0x40091982                GUEST_F_SetIsolationRelays
                0x40091a12                GUEST_F_ISO_Test
 .text          0x40091ae8      0xd3c ./out/CPU_B/GCC_guest_outputport.o
                0x40091bd8                GUEST_F_OPT
                0x40091ca8                GUEST_F_OPT_Check
                0x40091cea                GUEST_F_SCT
                0x400922fc                GUEST_F_RIT
                0x4009265a                GUEST_F_TT
 .text          0x40092824     0x2488 ./out/CPU_B/GCC_guest_public.o
                0x40092824                GUEST_F_RBOutput
                0x40092954                GUEST_F_DriveOutput
                0x40092992                GUEST_F_24VLED
                0x400929fa                GUEST_F_EXTLED
                0x40092a4e                GUEST_F_OutputLED
                0x40092ab8                GUEST_F_SetDYNStable
                0x40092ac8                GUEST_F_SetDYNActive
                0x40092ad8                GUEST_F_CheckFPGACNT
                0x40092bdc                GUEST_F_GetConfigPointer
                0x40092c5c                GUEST_F_GetBoardPosition
                0x40092ca6                GUEST_F_24V_Test
                0x40092d18                GUEST_F_12V_Test
                0x40092d86                GUEST_F_LED_Test
                0x40092e5c                GUEST_F_Output_Test
                0x4009314e                GUEST_F_ISRINIT
                0x400931a0                GUEST_F_WriteDataToTFTPBUF
                0x4009362e                GUEST_F_WriteFailCodeToTFTPBUF
                0x400937be                GUEST_F_ReadDataFromTFTPBUF
                0x4009392e                GUEST_F_ReadFailCodeFromTFTPBUF
                0x40093a9e                GUEST_F_ReadDataFromTFTPHandBUF
                0x40093b56                GUEST_F_GetDataInOneCPU
                0x40093bb8                GUEST_F_SendVerData
                0x40093d1a                GUEST_F_CheckBuf
                0x40093ed6                GUEST_F_TFTP_SendTestInfo
                0x400940ca                GUEST_F_TFTP_SendHandInfo
                0x4009420e                GUEST_F_EXTLightSetOn
                0x40094224                GUEST_F_EXTLightSetOff
                0x4009423a                GUEST_F_ResFPGASetOff
                0x40094250                GUEST_F_ResFPGASetOn
                0x40094266                GUEST_F_FeedWDog
                0x400942a0                GUEST_F_GetSnake
                0x400943c8                GUEST_F_LED_Snake
                0x4009444c                GUEST_F_IODB_GetCmd_VOOB
                0x40094530                GUEST_F_IODB_GetCmd_CDDM
                0x40094666                GUEST_F_IODB_GetCmd_PDDM
                0x40094740                GUEST_F_IODB_GetCmd_SDDM
                0x40094902                GUEST_F_IODB_DrvCmd_TCIM
                0x40094a96                GUEST_F_SendFBJState
                0x40094b5a                GUEST_F_RBPointStatus
 .text          0x40094cac      0x9e0 ./out/CPU_B/GCC_guest_readback.o
                0x40094cac                GUEST_F_TSPSTForOPT
                0x40094d26                GUEST_F_RBValue
                0x40095018                GUEST_F_OPT_RBValueFromFPGA
                0x4009546a                GUEST_F_MemoryBUSTest
 .text          0x4009568c        0x0 ./out/CPU_B/GCC_crc_result.o
 *(.code)
                0x4009568c                . = ALIGN (0x4)
                0x4009568c                __END_CODE_ROM = .
                0x200982c0                __CODE_SRAM_FLASH_START = (__CODE_FLASH_START + (__END_CODE_ROM - __START_CODE_ROM))

.sram_code      0x81000500      0x764 load address 0x200982c0
                0x81000500                __START_CODE_SRAM = .
 *(.textsram)
 .textsram      0x81000500      0x33a ./out/CPU_B/GCC_Drv_Sha1_Functions_Asm.o
                0x81000500                Drv_Cau_Sha1_Initialize_Output
                0x81000518                Drv_Cau_Sha1_Hash_N
                0x810006a0                Drv_Cau_Sha1_Update
                0x810006bc                Drv_Cau_Sha1_Hash
 *fill*         0x8100083a        0x2 
 .textsram      0x8100083c       0x3a ./out/CPU_B/GCC_coldfire_cache.o
                0x8100083c                _write_cacr
                0x81000848                archCacheFlushData
 *fill*         0x81000876        0x2 
 .textsram      0x81000878       0x66 ./out/CPU_B/GCC_entry.o
                0x81000878                _context_switch
                0x810008a4                _context_restore
                0x810008bc                _shutdown
                0x810008c4                default_handler
 .textsram      0x810008de       0x34 ./out/CPU_B/GCC_os_cpu_a.o
                0x810008de                OSGetSR
                0x810008e2                _OSIntExitCF
 .textsram      0x81000912       0xec ./out/CPU_B/GCC_wdg.o
                0x81000912                WDG_F_SWSetFlag
 .textsram      0x810009fe       0x68 ./out/CPU_B/GCC_Drv_Boot_Module.o
                0x810009fe                BOOT_F_Clear_Unused_Memory
 .textsram      0x81000a66      0x152 ./out/CPU_B/GCC_os_hooks.o
                0x81000a66                OSTaskIdleHook
                0x81000a7c                OSTaskStatHook
                0x81000a92                OSTimeTickHook
                0x81000b5c                Task_Idle_Hook
                0x81000b6a                Task_Statis_Hook
                0x81000b78                Time_Tick_Hook
                0x81000b86                Fatal_Error_Hook
 .textsram      0x81000bb8       0x52 ./out/CPU_B/GCC_isr_enter.o
                0x81000bb8                isr_enter
 .textsram      0x81000c0a       0x58 ./out/CPU_B/GCC_isr_exit.o
                0x81000c0a                isr_exit
                0x81000c64                . = ALIGN (0x4)
 *fill*         0x81000c62        0x2 
                0x81000c64                __END_CODE_SRAM = .
                0x20000000                . = ADDR (.ext_flash)
                0x20098a24                __DATA_SRAM_FLASH_START = (__CODE_SRAM_FLASH_START + (__END_CODE_SRAM - __START_CODE_SRAM))
                0x81000500                __DATA_RAM_START = ADDR (.sram_user)

.initialized_data_sram
                0x81000c64       0xc0 load address 0x20098a24
                0x81000c64                __DATA_SRAM_START = .
 *(.dataos)
 .dataos        0x81000c64        0x8 ./out/CPU_B/GCC_core.o
                0x81000c64                osState
                0x81000c68                osCritical
 .dataos        0x81000c6c        0x4 ./out/CPU_B/GCC_isr.o
                0x81000c6c                irqNestLvl
 .dataos        0x81000c70        0x4 ./out/CPU_B/GCC_sys_tick.o
                0x81000c70                sysCounter
 *(.sdataos)
 *(.idata_sram)
 .idata_sram    0x81000c74       0x88 ./out/CPU_B/GCC_BIT.o
 .idata_sram    0x81000cfc       0x11 ./out/CPU_B/GCC_VOTE_com.o
 *fill*         0x81000d0d        0x3 
 .idata_sram    0x81000d10        0x8 ./out/CPU_B/GCC_Drv_Boot_Module.o
                0x81000d12                BOOT_V_IsTransplantable
                0x81000d14                BOOT_V_MemoryTestSignature
 .idata_sram    0x81000d18        0x8 ./out/CPU_B/GCC_Drv_Fec_Lib.o
                0x81000d18                IPS_FECDRV_V_TxCounter
 .idata_sram    0x81000d20        0x4 ./out/CPU_B/GCC_Drv_Uart_Vote.o
                0x81000d20                VOTE_DRV_V_WritingBuff
 *(.databoot)
                0x81000d24                . = ALIGN (0x4)
                0x81000d24                __NO_TEST_SRAM_INIT_SECTION_START = .
 *(.idata_no_memtest_sram)
                0x81000d24                . = ALIGN (0x4)
                0x81000d24                __NO_TEST_SRAM_INIT_SECTION_END = .
                0x81000d24                __DATA_SRAM_END = .
                0x20098ae4                __CONST_SRAM_FLASH_START = (__DATA_SRAM_FLASH_START + (__DATA_SRAM_END - __DATA_SRAM_START))

.initialized_constant_sram
                0x81000d24        0xc load address 0x20098ae4
                0x81000d24                __CONST_SRAM_START = .
 *(.rodataos)
 .rodataos      0x81000d24        0xa ./out/CPU_B/GCC_VCU_Start.o
                0x81000d30                . = ALIGN (0x4)
 *fill*         0x81000d2e        0x2 
                0x81000d30                __CONST_SRAM_END = .
                0x81000d30                __DATA_END = .
                0x20098af0                __DATA_EXT_FLASH_START = (__CONST_SRAM_FLASH_START + (__CONST_SRAM_END - __CONST_SRAM_START))
                0x44000000                __DATA_EXT_START = ADDR (.ext_sdram_data)

.initialized_data_extram
                0x44000000     0x1950 load address 0x20098af0
                0x44000000                __DATA_EXT_SDRAM_DATA_START = .
 *(.data)
 .data          0x44000000        0x0 ./out/CPU_B/GCC_mstep_isr.o
 .data          0x44000000        0x0 ./out/CPU_B/GCC_wdg_irq_handler.o
 .data          0x44000000       0x30 ./out/CPU_B/GCC_Drv_Sha1_Functions_Asm.o
 .data          0x44000030        0x0 ./out/CPU_B/GCC_Drv_Can_Isr_Asm.o
 .data          0x44000030        0x0 ./out/CPU_B/GCC_Drv_Fec_Isr_Asm.o
 .data          0x44000030        0x0 ./out/CPU_B/GCC_Drv_Timer_Isr_Asm.o
 .data          0x44000030        0x0 ./out/CPU_B/GCC_Drv_Uart_Vote_Isr_Asm.o
 .data          0x44000030        0x0 ./out/CPU_B/GCC_VCU_Exception_Asm.o
 .data          0x44000030        0x0 ./out/CPU_B/GCC_VCU_Start_Asm.o
 .data          0x44000030        0x0 ./out/CPU_B/GCC_mcf5xxx_lo.o
 .data          0x44000030        0x0 ./out/CPU_B/GCC_coldfire_cache.o
 .data          0x44000030        0x0 ./out/CPU_B/GCC_entry.o
 .data          0x44000030        0x0 ./out/CPU_B/GCC_os_cpu_a.o
 .data          0x44000030        0x0 ./out/CPU_B/GCC_mstep.o
 .data          0x44000030        0x4 ./out/CPU_B/GCC_BIT.o
 .data          0x44000034       0xa1 ./out/CPU_B/GCC_BIT_fuse.o
                0x44000034                BIT_FUSE_V_Comp
                0x44000084                BIT_FUSE_V_CompDiff
 *fill*         0x440000d5        0x3 
 .data          0x440000d8        0x2 ./out/CPU_B/GCC_BIT_survey.o
 *fill*         0x440000da        0x2 
 .data          0x440000dc        0x8 ./out/CPU_B/GCC_can.o
                0x440000dc                CAN_V_MasterStatus
                0x440000e0                CAN_V_TSCount
 .data          0x440000e4        0x0 ./out/CPU_B/GCC_can_ard.o
 .data          0x440000e4        0x0 ./out/CPU_B/GCC_can_config.o
 .data          0x440000e4        0x0 ./out/CPU_B/GCC_can_emcy.o
 .data          0x440000e4      0x7a4 ./out/CPU_B/GCC_can_od.o
                0x440000e4                CAN_OD_V_IdentitySub0
                0x440000e5                CAN_OD_V_GenMaintDefaultName
                0x4400010f                CAN_OD_V_genMaintNbSubIdx
                0x44000110                CAN_OD_V_ODDeviceType
                0x44000114                CAN_OD_V_SyncId
                0x44000118                CAN_OD_V_CyclePeriod
                0x4400011c                CAN_OD_V_DeviceName
                0x44000124                CAN_OD_V_TimeStampId
                0x44000128                CAN_OD_V_EmergencyId
                0x4400012c                CAN_OD_V_ProducerHeartbeatTime
                0x4400012e                CAN_OD_V_HardwareName
                0x44000134                CAN_OD_V_ChecksumSub0
                0x44000138                CAN_OD_V_GeneralDeviceObj
                0x440002d0                CAN_OD_V_MonitoringDatas
                0x44000768                CAN_OD_V_ManufacturerSpecificObjects
                0x44000840                CAN_OD_V_SwitchModeRequestTable
                0x44000858                CAN_OD_V_StepperActivityTable
 .data          0x44000888        0x0 ./out/CPU_B/GCC_can_odplug.o
 .data          0x44000888        0x2 ./out/CPU_B/GCC_can_open.o
 *fill*         0x4400088a        0x2 
 .data          0x4400088c        0x0 ./out/CPU_B/GCC_can_saddle.o
 .data          0x4400088c        0x1 ./out/CPU_B/GCC_can_safety.o
 *fill*         0x4400088d        0x3 
 .data          0x44000890        0x0 ./out/CPU_B/GCC_can_sdo.o
 .data          0x44000890        0x0 ./out/CPU_B/GCC_can_time.o
 .data          0x44000890        0x4 ./out/CPU_B/GCC_CONF.o
                0x44000890                CONF_V_ConfKeyStatus
 .data          0x44000894       0xd5 ./out/CPU_B/GCC_CONF_autho.o
                0x44000894                CONF_AUTHO_V_bIsQuickBoot
                0x44000895                CONF_AUTHO_V_bIsFirstFootprintCalculation
 *fill*         0x44000969        0x3 
 .data          0x4400096c        0x0 ./out/CPU_B/GCC_CONF_check.o
 .data          0x4400096c      0x780 ./out/CPU_B/GCC_CONF_dataset.o
 .data          0x440010ec        0x0 ./out/CPU_B/GCC_CONF_local.o
 .data          0x440010ec        0x4 ./out/CPU_B/GCC_CONF_reconf.o
 .data          0x440010f0        0x8 ./out/CPU_B/GCC_CONF_src.o
                0x440010f0                CONF_SRC_FLASH_V_LastFlushedFile
 .data          0x440010f8      0x204 ./out/CPU_B/GCC_FCODE.o
 .data          0x440012fc       0x48 ./out/CPU_B/GCC_FILESYS.o
                0x440012fc                FILESYS_V_FsFileListArray
 .data          0x44001344        0x0 ./out/CPU_B/GCC_FILESYS_int.o
 .data          0x44001344        0x5 ./out/CPU_B/GCC_FILESYS_tftp.o
                0x44001344                FILESYS_TFTP_V_bModuleDatasetRetrivalAllowed
 *fill*         0x44001349        0x3 
 .data          0x4400134c        0x0 ./out/CPU_B/GCC_Flash.o
 .data          0x4400134c        0x0 ./out/CPU_B/GCC_Flash_Async.o
 .data          0x4400134c        0x0 ./out/CPU_B/GCC_Flash_Direct.o
 .data          0x4400134c        0x1 ./out/CPU_B/GCC_gdf.o
 *fill*         0x4400134d        0x3 
 .data          0x44001350        0x5 ./out/CPU_B/GCC_gdf_dump_tools.o
 *fill*         0x44001355        0x3 
 .data          0x44001358        0x0 ./out/CPU_B/GCC_LZW.o
 .data          0x44001358        0x0 ./out/CPU_B/GCC_MATH.o
 .data          0x44001358        0x0 ./out/CPU_B/GCC_osw.o
 .data          0x44001358        0xc ./out/CPU_B/GCC_print.o
                0x44001358                PRINT_V_bPrintfAuth
                0x4400135c                PRINT_V_PrintLevel
 .data          0x44001364        0x0 ./out/CPU_B/GCC_RECORD.o
 .data          0x44001364        0x4 ./out/CPU_B/GCC_RECORD_evt.o
 .data          0x44001368        0x8 ./out/CPU_B/GCC_RECORD_pda.o
                0x44001368                RECORD_PDA_V_RefSectorBaseAddr
 .data          0x44001370        0x0 ./out/CPU_B/GCC_RECORD_sector.o
 .data          0x44001370        0x0 ./out/CPU_B/GCC_RECORD_stat.o
 .data          0x44001370        0x0 ./out/CPU_B/GCC_RECORD_utl.o
 .data          0x44001370       0x14 ./out/CPU_B/GCC_Schedule.o
                0x44001370                SCHED_V_CommonTime
                0x44001374                SCHED_V_TickCptVar
 .data          0x44001384        0x0 ./out/CPU_B/GCC_Schedule_gentask.o
 .data          0x44001384        0x0 ./out/CPU_B/GCC_Schedule_gta.o
 .data          0x44001384        0x1 ./out/CPU_B/GCC_Schedule_launcher.o
 *fill*         0x44001385        0x3 
 .data          0x44001388        0x9 ./out/CPU_B/GCC_Schedule_utl.o
                0x44001388                SCHED_V_BootFuseState
 *fill*         0x44001391        0x3 
 .data          0x44001394        0x0 ./out/CPU_B/GCC_VCU_Start.o
 .data          0x44001394       0x14 ./out/CPU_B/GCC_SDB.o
                0x44001394                SDB_V_FunctionalMode
 .data          0x440013a8        0x0 ./out/CPU_B/GCC_SDB_api.o
 .data          0x440013a8        0x0 ./out/CPU_B/GCC_SDB_intercpu.o
 .data          0x440013a8        0x0 ./out/CPU_B/GCC_SDB_ioplug.o
 .data          0x440013a8       0x80 ./out/CPU_B/GCC_SDB_update.o
 .data          0x44001428        0x0 ./out/CPU_B/GCC_SDB_updatelist.o
 .data          0x44001428        0x0 ./out/CPU_B/GCC_std.o
 .data          0x44001428       0x14 ./out/CPU_B/GCC_VOTE.o
 .data          0x4400143c        0x8 ./out/CPU_B/GCC_VOTE_com.o
 .data          0x44001444        0x0 ./out/CPU_B/GCC_VOTE_tsk.o
 .data          0x44001444        0x0 ./out/CPU_B/GCC_wdg.o
 .data          0x44001444       0xa4 ./out/CPU_B/GCC_viv.o
                0x44001444                Cmptype
                0x44001448                VIV_V_MemoryTypes
 .data          0x440014e8        0x0 ./out/CPU_B/GCC_Drv_CAU_Lib.o
 .data          0x440014e8        0xe ./out/CPU_B/GCC_Drv_BID_Lib.o
 *fill*         0x440014f6        0x2 
 .data          0x440014f8        0x0 ./out/CPU_B/GCC_Drv_Boot_Module.o
 .data          0x440014f8        0x0 ./out/CPU_B/GCC_Drv_Boot_Utils.o
 .data          0x440014f8        0x0 ./out/CPU_B/GCC_Drv_Cache_Lib.o
 .data          0x440014f8        0x0 ./out/CPU_B/GCC_Drv_Can_Isr.o
 .data          0x440014f8       0x28 ./out/CPU_B/GCC_Drv_Can_Lib.o
                0x440014f8                CAN_DRIVER_V_IsFirstSync
                0x440014fc                CAN_DRIVER_V_RunningMode
                0x44001500                CAN_DRIVER_V_BusState
                0x44001508                CAN_DRIVER_V_ChannelStatus
 .data          0x44001520        0x4 ./out/CPU_B/GCC_Drv_Fec_Lib.o
                0x44001520                IPS_FECDRV_V_TransceiverModel
 .data          0x44001524        0x0 ./out/CPU_B/GCC_Drv_Flash_Parallel_Lib.o
 .data          0x44001524        0x0 ./out/CPU_B/GCC_Drv_Flash_Spi_Lib.o
 .data          0x44001524      0x220 ./out/CPU_B/GCC_Drv_Gpio.o
                0x44001524                VCU_GPIO_V_GPIOMapping
                0x44001634                VCU_GPIO_V_Mapping
 .data          0x44001744        0x0 ./out/CPU_B/GCC_Drv_Led_Lib.o
 .data          0x44001744        0x0 ./out/CPU_B/GCC_Drv_MMU_Lib.o
 .data          0x44001744        0x0 ./out/CPU_B/GCC_Drv_SDRAM_Lib.o
 .data          0x44001744        0x0 ./out/CPU_B/GCC_Drv_Spi_Lib.o
 .data          0x44001744       0x1c ./out/CPU_B/GCC_Drv_Timer_Lib.o
 .data          0x44001760        0x8 ./out/CPU_B/GCC_Drv_Uart_Vote.o
 .data          0x44001768        0x0 ./out/CPU_B/GCC_bsp.o
 .data          0x44001768        0x0 ./out/CPU_B/GCC_exceptions.o
 .data          0x44001768        0x0 ./out/CPU_B/GCC_os_core.o
 .data          0x44001768        0x0 ./out/CPU_B/GCC_os_flag.o
 .data          0x44001768        0x0 ./out/CPU_B/GCC_os_hooks.o
 .data          0x44001768        0x0 ./out/CPU_B/GCC_os_mbox.o
 .data          0x44001768        0x0 ./out/CPU_B/GCC_os_mem.o
 .data          0x44001768        0x0 ./out/CPU_B/GCC_os_mutex.o
 .data          0x44001768        0x0 ./out/CPU_B/GCC_os_q.o
 .data          0x44001768        0x0 ./out/CPU_B/GCC_os_sem.o
 .data          0x44001768        0x0 ./out/CPU_B/GCC_os_task.o
 .data          0x44001768        0x0 ./out/CPU_B/GCC_os_time.o
 .data          0x44001768        0x4 ./out/CPU_B/GCC_arch_cache.o
 .data          0x4400176c        0x0 ./out/CPU_B/GCC_core.o
 .data          0x4400176c        0x0 ./out/CPU_B/GCC_coretask.o
 .data          0x4400176c        0x0 ./out/CPU_B/GCC_idletaskcreate.o
 .data          0x4400176c        0x0 ./out/CPU_B/GCC_cache_disable_data.o
 .data          0x4400176c        0x0 ./out/CPU_B/GCC_cache_disable_instruction.o
 .data          0x4400176c        0x0 ./out/CPU_B/GCC_cache_enable_data.o
 .data          0x4400176c        0x0 ./out/CPU_B/GCC_cache_enable_instruction.o
 .data          0x4400176c        0x0 ./out/CPU_B/GCC_cache_flush_data.o
 .data          0x4400176c        0x0 ./out/CPU_B/GCC_cache_invalidate_data.o
 .data          0x4400176c        0x0 ./out/CPU_B/GCC_cache_invalidate_instruction.o
 .data          0x4400176c        0x0 ./out/CPU_B/GCC_counter.o
 .data          0x4400176c        0x0 ./out/CPU_B/GCC_counter_create.o
 .data          0x4400176c        0x0 ./out/CPU_B/GCC_counter_delete.o
 .data          0x4400176c        0x0 ./out/CPU_B/GCC_counter_increment.o
 .data          0x4400176c        0x0 ./out/CPU_B/GCC_counter_tick_get.o
 .data          0x4400176c        0x0 ./out/CPU_B/GCC_counter_tick_set.o
 .data          0x4400176c        0x0 ./out/CPU_B/GCC_event.o
 .data          0x4400176c        0x0 ./out/CPU_B/GCC_event_clear.o
 .data          0x4400176c        0x0 ./out/CPU_B/GCC_event_group_create.o
 .data          0x4400176c        0x0 ./out/CPU_B/GCC_event_group_delete.o
 .data          0x4400176c        0x0 ./out/CPU_B/GCC_event_group_delete_force.o
 .data          0x4400176c        0x0 ./out/CPU_B/GCC_event_group_info.o
 .data          0x4400176c        0x0 ./out/CPU_B/GCC_event_notify.o
 .data          0x4400176c        0x0 ./out/CPU_B/GCC_event_ready_get.o
 .data          0x4400176c        0x0 ./out/CPU_B/GCC_event_set.o
 .data          0x4400176c        0x0 ./out/CPU_B/GCC_event_try_wait.o
 .data          0x4400176c        0x0 ./out/CPU_B/GCC_event_wait.o
 .data          0x4400176c        0x0 ./out/CPU_B/GCC_fatal_error_raise.o
 .data          0x4400176c        0x0 ./out/CPU_B/GCC_irq_is_enabled.o
 .data          0x4400176c        0x0 ./out/CPU_B/GCC_irq_resume.o
 .data          0x4400176c        0x0 ./out/CPU_B/GCC_irq_suspend.o
 .data          0x4400176c        0x0 ./out/CPU_B/GCC_isr.o
 .data          0x4400176c        0x0 ./out/CPU_B/GCC_isr_enter.o
 .data          0x4400176c        0x0 ./out/CPU_B/GCC_isr_exit.o
 .data          0x4400176c        0x0 ./out/CPU_B/GCC_isr_level_get.o
 .data          0x4400176c        0x0 ./out/CPU_B/GCC_mempart.o
 .data          0x4400176c        0x0 ./out/CPU_B/GCC_mempart_alloc.o
 .data          0x4400176c        0x0 ./out/CPU_B/GCC_mempart_create.o
 .data          0x4400176c        0x0 ./out/CPU_B/GCC_mempart_free.o
 .data          0x4400176c        0x0 ./out/CPU_B/GCC_mempart_info.o
 .data          0x4400176c        0x0 ./out/CPU_B/GCC_message_queue.o
 .data          0x4400176c        0x0 ./out/CPU_B/GCC_message_queue_broadcast.o
 .data          0x4400176c        0x0 ./out/CPU_B/GCC_message_queue_create.o
 .data          0x4400176c        0x0 ./out/CPU_B/GCC_message_queue_delete.o
 .data          0x4400176c        0x0 ./out/CPU_B/GCC_message_queue_delete_force.o
 .data          0x4400176c        0x0 ./out/CPU_B/GCC_message_queue_flush.o
 .data          0x4400176c        0x0 ./out/CPU_B/GCC_message_queue_info.o
 .data          0x4400176c        0x0 ./out/CPU_B/GCC_message_queue_receive.o
 .data          0x4400176c        0x0 ./out/CPU_B/GCC_message_queue_send.o
 .data          0x4400176c        0x0 ./out/CPU_B/GCC_message_queue_send_first.o
 .data          0x4400176c        0x0 ./out/CPU_B/GCC_message_queue_try_receive.o
 .data          0x4400176c        0x0 ./out/CPU_B/GCC_mutex.o
 .data          0x4400176c        0x0 ./out/CPU_B/GCC_mutex_create.o
 .data          0x4400176c        0x0 ./out/CPU_B/GCC_mutex_delete.o
 .data          0x4400176c        0x0 ./out/CPU_B/GCC_mutex_delete_force.o
 .data          0x4400176c        0x0 ./out/CPU_B/GCC_mutex_info.o
 .data          0x4400176c        0x0 ./out/CPU_B/GCC_mutex_lock.o
 .data          0x4400176c        0x0 ./out/CPU_B/GCC_mutex_try_lock.o
 .data          0x4400176c        0x0 ./out/CPU_B/GCC_mutex_unlock.o
 .data          0x4400176c        0x0 ./out/CPU_B/GCC_os_init.o
 .data          0x4400176c        0x0 ./out/CPU_B/GCC_os_safety_critical.o
 .data          0x4400176c        0x0 ./out/CPU_B/GCC_os_shutdown.o
 .data          0x4400176c        0x0 ./out/CPU_B/GCC_os_start.o
 .data          0x4400176c        0x0 ./out/CPU_B/GCC_sched_lock.o
 .data          0x4400176c        0x0 ./out/CPU_B/GCC_sched_unlock.o
 .data          0x4400176c        0x0 ./out/CPU_B/GCC_semaphore.o
 .data          0x4400176c        0x0 ./out/CPU_B/GCC_semaphore_count_get.o
 .data          0x4400176c        0x0 ./out/CPU_B/GCC_semaphore_count_set.o
 .data          0x4400176c        0x0 ./out/CPU_B/GCC_semaphore_create.o
 .data          0x4400176c        0x0 ./out/CPU_B/GCC_semaphore_delete.o
 .data          0x4400176c        0x0 ./out/CPU_B/GCC_semaphore_delete_force.o
 .data          0x4400176c        0x0 ./out/CPU_B/GCC_semaphore_give.o
 .data          0x4400176c        0x0 ./out/CPU_B/GCC_semaphore_info.o
 .data          0x4400176c        0x0 ./out/CPU_B/GCC_semaphore_take.o
 .data          0x4400176c        0x0 ./out/CPU_B/GCC_semaphore_try_take.o
 .data          0x4400176c        0x0 ./out/CPU_B/GCC_sys_tick.o
 .data          0x4400176c        0x0 ./out/CPU_B/GCC_sys_tick_get.o
 .data          0x4400176c        0x0 ./out/CPU_B/GCC_sys_tick_increment.o
 .data          0x4400176c        0x0 ./out/CPU_B/GCC_sys_tick_set.o
 .data          0x4400176c        0x0 ./out/CPU_B/GCC_task.o
 .data          0x4400176c        0x0 ./out/CPU_B/GCC_task_check_idle_stack.o
 .data          0x4400176c        0x0 ./out/CPU_B/GCC_task_check_stack.o
 .data          0x4400176c        0x0 ./out/CPU_B/GCC_task_create.o
 .data          0x4400176c        0x0 ./out/CPU_B/GCC_task_delay.o
 .data          0x4400176c        0x0 ./out/CPU_B/GCC_task_delay_cancel.o
 .data          0x4400176c        0x0 ./out/CPU_B/GCC_task_delete.o
 .data          0x4400176c        0x0 ./out/CPU_B/GCC_task_get_by_priority.o
 .data          0x4400176c        0x0 ./out/CPU_B/GCC_task_get_priority.o
 .data          0x4400176c        0x0 ./out/CPU_B/GCC_task_info.o
 .data          0x4400176c        0x0 ./out/CPU_B/GCC_task_resume.o
 .data          0x4400176c        0x0 ./out/CPU_B/GCC_task_set_priority.o
 .data          0x4400176c        0x0 ./out/CPU_B/GCC_task_statis_info.o
 .data          0x4400176c        0x0 ./out/CPU_B/GCC_task_statis_init.o
 .data          0x4400176c        0x0 ./out/CPU_B/GCC_task_suspend.o
 .data          0x4400176c        0x0 ./out/CPU_B/GCC_timer.o
 .data          0x4400176c        0x0 ./out/CPU_B/GCC_timer_cancel.o
 .data          0x4400176c        0x0 ./out/CPU_B/GCC_timer_create.o
 .data          0x4400176c        0x0 ./out/CPU_B/GCC_timer_delete.o
 .data          0x4400176c        0x0 ./out/CPU_B/GCC_timer_set_abs.o
 .data          0x4400176c        0x0 ./out/CPU_B/GCC_timer_set_rel.o
 .data          0x4400176c        0x0 ./out/CPU_B/GCC_os_cpu_c.o
 .data          0x4400176c        0x0 ./out/CPU_B/GCC_GM_Mathlib.o
 .data          0x4400176c        0x0 ./out/CPU_B/GCC_GM_PROSTACK_Arp.o
 .data          0x4400176c        0x0 ./out/CPU_B/GCC_GM_PROSTACK_Can.o
 .data          0x4400176c        0x0 ./out/CPU_B/GCC_GM_PROSTACK_Cop.o
 .data          0x4400176c        0x0 ./out/CPU_B/GCC_GM_PROSTACK_Eth.o
 .data          0x4400176c        0x0 ./out/CPU_B/GCC_GM_PROSTACK_Icmp.o
 .data          0x4400176c        0x0 ./out/CPU_B/GCC_GM_PROSTACK_Ip.o
 .data          0x4400176c       0x44 ./out/CPU_B/GCC_GM_PROSTACK_Ip_tsk.o
                0x4400176c                GM_PROS_IP_TSK_V_EthernetItf_1
                0x44001780                GM_PROS_IP_TSK_V_EthernetItf_2
 .data          0x440017b0        0x0 ./out/CPU_B/GCC_GM_PROSTACK_Udp.o
 .data          0x440017b0        0x0 ./out/CPU_B/GCC_GM_PROSTACK_Vote.o
 .data          0x440017b0        0x0 ./out/CPU_B/GCC_GM_Tftp.o
 .data          0x440017b0       0x40 ./out/CPU_B/GCC_guest.o
 .data          0x440017f0        0x0 ./out/CPU_B/GCC_guest_fuse.o
 .data          0x440017f0        0x0 ./out/CPU_B/GCC_guest_isolation.o
 .data          0x440017f0        0x0 ./out/CPU_B/GCC_guest_outputport.o
 .data          0x440017f0       0x18 ./out/CPU_B/GCC_guest_public.o
                0x440017f0                g_LastTest
                0x440017f4                g_CycleNO
                0x440017f8                g_ISOTCycleNO
                0x440017fc                g_FUSETCycleNO
                0x44001800                g_TFTPCycleNO
                0x44001804                g_InterruptCNT
 .data          0x44001808       0x14 ./out/CPU_B/GCC_guest_readback.o
 .data          0x4400181c        0x0 ./out/CPU_B/GCC_crc_result.o
 *(.sdata)
                0x4400181c                . = ALIGN (0x4)
                0x4400181c                __DCA_INIT_SECTION_START = .
 *(.idata_dca)
 .idata_dca     0x4400181c       0x1a ./out/CPU_B/GCC_can.o
                0x4400181c                CAN_V_InfoKeyBoardType
                0x44001820                CAN_V_InternalState
                0x44001824                CAN_V_MyBoardModuleID
                0x44001825                CAN_V_MyCpuNodeID
                0x44001828                CAN_V_Led
                0x4400182c                CAN_V_FlashingGpio
                0x44001830                CAN_V_HBOffset
 .idata_dca     0x44001836        0x1 ./out/CPU_B/GCC_can_ard.o
 *fill*         0x44001837        0x1 
 .idata_dca     0x44001838       0x16 ./out/CPU_B/GCC_can_config.o
                0x44001838                CAN_CONF_V_MinRxCobID
                0x4400183c                CAN_CONF_V_MaxRxCobID
                0x44001840                CAN_CONF_V_MinStandbyCobID
                0x44001844                CAN_CONF_V_MaxStandbyCobID
                0x44001848                CAN_CONF_V_FlashingPeriod
                0x4400184c                CAN_CONF_V_isConfReady
 .idata_dca     0x4400184e        0x3 ./out/CPU_B/GCC_can_od.o
                0x4400184e                CAN_OD_V_IsODTableInitDone
                0x4400184f                CAN_OD_V_RackNumber
                0x44001850                CAN_OD_V_SlotNumber
 .idata_dca     0x44001851        0x1 ./out/CPU_B/GCC_can_open.o
                0x44001851                CAN_OPEN_V_MyNodeId
 *fill*         0x44001852        0x2 
 .idata_dca     0x44001854       0x34 ./out/CPU_B/GCC_can_sdo.o
                0x44001854                CAN_SDO_V_AbortErrorCodes
 .idata_dca     0x44001888        0x4 ./out/CPU_B/GCC_can_time.o
 .idata_dca     0x4400188c        0x6 ./out/CPU_B/GCC_CONF_local.o
                0x4400188c                CONF_LOCAL_V_ReconfIpAreaId
                0x44001890                CONF_LOCAL_V_bLastIpConfigurationAvailable
                0x44001891                CONF_LOCAL_V_Bid
 *fill*         0x44001892        0x2 
 .idata_dca     0x44001894        0x4 ./out/CPU_B/GCC_CONF_reconf.o
                0x44001894                CONF_RECONF_PDA_V_PairingAreaId
 .idata_dca     0x44001898        0x5 ./out/CPU_B/GCC_Flash_Async.o
                0x44001898                FLASH_ASYNC_V_pFlagGrp
                0x4400189c                FLASH_ASYNC_V_NbSubscribedDevice
 *fill*         0x4400189d        0x3 
 .idata_dca     0x440018a0        0x5 ./out/CPU_B/GCC_RECORD_pda.o
                0x440018a0                RECORD_PDA_V_NbReservedArea
                0x440018a4                RECORD_PDA_V_bReadyForReserve
 *fill*         0x440018a5        0x1 
 .idata_dca     0x440018a6        0x4 ./out/CPU_B/GCC_Schedule.o
                0x440018a6                SCHED_V_CommonTimeEnable
                0x440018a8                SCHED_V_FlashingHalfPeriod
 *fill*         0x440018aa        0x2 
 .idata_dca     0x440018ac       0x24 ./out/CPU_B/GCC_Schedule_utl.o
                0x440018b0                SCHED_UTL_V_FlashingGpioInterBoard
                0x440018b4                SCHED_UTL_V_FlashingGpioIntraBoard
                0x440018ba                SCHED_UTL_V_GuestAppProvideUserData
                0x440018bc                SCHED_V_ReprogSafetyValue
                0x440018c0                SCHED_V_ReprogCallback
 .idata_dca     0x440018d0       0x50 ./out/CPU_B/GCC_VOTE_tsk.o
 .idata_dca     0x44001920        0x8 ./out/CPU_B/GCC_GM_PROSTACK_Arp.o
                0x44001920                GM_PROS_ARP_V_pMacAddress_1
                0x44001924                GM_PROS_ARP_V_pMacAddress_2
 .idata_dca     0x44001928       0x28 ./out/CPU_B/GCC_GM_PROSTACK_Ip_tsk.o
                0x44001950                . = ALIGN (0x4)
                0x44001950                __DCA_INIT_SECTION_END = .
                0x44001950                . = ALIGN (0x4)
                0x44001950                __NO_TEST_INIT_SECTION_START = .
 *(.idata_no_memtest)
                0x44001950                . = ALIGN (0x4)
                0x44001950                __NO_TEST_INIT_SECTION_END = .
                0x44001950                __DATA_EXT_SDRAM_DATA_END = .
                0x2009a440                __CONST_EXT_FLASH_START = (__DATA_EXT_FLASH_START + (__DATA_EXT_SDRAM_DATA_END - __DATA_EXT_SDRAM_DATA_START))

.initialized_constant_extram
                0x4009568c     0x79e4 load address 0x2009a440
                0x4009568c                __CONST_EXT_SDRAM_CODE_START = .
 *(.rodata)
 .rodata        0x4009568c       0x2d ./out/CPU_B/GCC_mstep.o
 *fill*         0x400956b9        0x3 
 .rodata        0x400956bc      0x112 ./out/CPU_B/GCC_BIT.o
 .rodata        0x400957ce       0x58 ./out/CPU_B/GCC_BIT_fuse.o
 .rodata        0x40095826       0x18 ./out/CPU_B/GCC_BIT_survey.o
 .rodata        0x4009583e       0x55 ./out/CPU_B/GCC_can.o
 .rodata        0x40095893       0x30 ./out/CPU_B/GCC_can_ard.o
 .rodata        0x400958c3       0x18 ./out/CPU_B/GCC_can_config.o
 .rodata        0x400958db       0x4b ./out/CPU_B/GCC_can_emcy.o
 .rodata        0x40095926       0x93 ./out/CPU_B/GCC_can_od.o
 .rodata        0x400959b9       0x35 ./out/CPU_B/GCC_can_odplug.o
 .rodata        0x400959ee      0x249 ./out/CPU_B/GCC_can_open.o
 .rodata        0x40095c37       0xaa ./out/CPU_B/GCC_can_saddle.o
 .rodata        0x40095ce1       0xae ./out/CPU_B/GCC_can_safety.o
 .rodata        0x40095d8f      0x4fa ./out/CPU_B/GCC_can_sdo.o
 .rodata        0x40096289       0x16 ./out/CPU_B/GCC_can_time.o
 .rodata        0x4009629f       0x30 ./out/CPU_B/GCC_CONF.o
 .rodata        0x400962cf      0x28b ./out/CPU_B/GCC_CONF_autho.o
 .rodata        0x4009655a      0x146 ./out/CPU_B/GCC_CONF_check.o
 .rodata        0x400966a0      0x224 ./out/CPU_B/GCC_CONF_dataset.o
 .rodata        0x400968c4       0xd9 ./out/CPU_B/GCC_CONF_local.o
 .rodata        0x4009699d       0xe2 ./out/CPU_B/GCC_CONF_reconf.o
 .rodata        0x40096a7f       0xb6 ./out/CPU_B/GCC_CONF_src.o
 .rodata        0x40096b35       0x4a ./out/CPU_B/GCC_FCODE.o
 .rodata        0x40096b7f      0x2f9 ./out/CPU_B/GCC_FILESYS.o
 .rodata        0x40096e78       0x66 ./out/CPU_B/GCC_FILESYS_int.o
 .rodata        0x40096ede      0x352 ./out/CPU_B/GCC_FILESYS_tftp.o
 .rodata        0x40097230       0x15 ./out/CPU_B/GCC_Flash.o
 .rodata        0x40097245       0x1b ./out/CPU_B/GCC_Flash_Async.o
 .rodata        0x40097260       0x1c ./out/CPU_B/GCC_Flash_Direct.o
 .rodata        0x4009727c       0x8d ./out/CPU_B/GCC_gdf.o
 .rodata        0x40097309       0x8a ./out/CPU_B/GCC_gdf_dump_tools.o
 .rodata        0x40097393      0x13b ./out/CPU_B/GCC_LZW.o
 *fill*         0x400974ce        0x2 
 .rodata        0x400974d0      0x81c ./out/CPU_B/GCC_MATH.o
 .rodata        0x40097cec       0x11 ./out/CPU_B/GCC_osw.o
 .rodata        0x40097cfd       0x41 ./out/CPU_B/GCC_print.o
 .rodata        0x40097d3e       0xa7 ./out/CPU_B/GCC_RECORD.o
 .rodata        0x40097de5       0xee ./out/CPU_B/GCC_RECORD_evt.o
 .rodata        0x40097ed3       0x1b ./out/CPU_B/GCC_RECORD_pda.o
 .rodata        0x40097eee       0xf6 ./out/CPU_B/GCC_RECORD_sector.o
 .rodata        0x40097fe4       0x1c ./out/CPU_B/GCC_RECORD_stat.o
 .rodata        0x40098000       0x55 ./out/CPU_B/GCC_RECORD_utl.o
 *fill*         0x40098055        0x3 
 .rodata        0x40098058      0x8e9 ./out/CPU_B/GCC_Schedule.o
                0x40098058                MSTEP_C_CONFIGKernelTaskReprogInfo
                0x40098378                MSTEP_C_CONFIGKernelTaskInfo
 .rodata        0x40098941       0x63 ./out/CPU_B/GCC_Schedule_gentask.o
 .rodata        0x400989a4       0x1c ./out/CPU_B/GCC_Schedule_gta.o
 .rodata        0x400989c0       0xaa ./out/CPU_B/GCC_Schedule_launcher.o
 .rodata        0x40098a6a       0x82 ./out/CPU_B/GCC_Schedule_utl.o
 .rodata        0x40098aec      0x123 ./out/CPU_B/GCC_SDB.o
 .rodata        0x40098c0f       0x15 ./out/CPU_B/GCC_SDB_api.o
 .rodata        0x40098c24       0x1a ./out/CPU_B/GCC_SDB_intercpu.o
 .rodata        0x40098c3e       0x18 ./out/CPU_B/GCC_SDB_ioplug.o
 .rodata        0x40098c56       0x36 ./out/CPU_B/GCC_SDB_update.o
 .rodata        0x40098c8c       0x1c ./out/CPU_B/GCC_SDB_updatelist.o
 .rodata        0x40098ca8       0x11 ./out/CPU_B/GCC_std.o
 .rodata        0x40098cb9       0x13 ./out/CPU_B/GCC_VOTE.o
 .rodata        0x40098ccc      0x17f ./out/CPU_B/GCC_VOTE_com.o
 *fill*         0x40098e4b        0x1 
 .rodata        0x40098e4c       0x8c ./out/CPU_B/GCC_VOTE_tsk.o
 .rodata        0x40098ed8       0x11 ./out/CPU_B/GCC_wdg.o
 .rodata        0x40098ee9      0xb1c ./out/CPU_B/GCC_viv.o
 .rodata        0x40099a05       0x25 ./out/CPU_B/GCC_Drv_CAU_Lib.o
 .rodata        0x40099a2a       0x5b ./out/CPU_B/GCC_Drv_BID_Lib.o
 .rodata        0x40099a85       0x21 ./out/CPU_B/GCC_Drv_Boot_Module.o
 .rodata        0x40099aa6       0x27 ./out/CPU_B/GCC_Drv_Boot_Utils.o
 .rodata        0x40099acd      0x3eb ./out/CPU_B/GCC_Drv_Can_Lib.o
 .rodata        0x40099eb8      0x2be ./out/CPU_B/GCC_Drv_Fec_Lib.o
 .rodata        0x4009a176       0x28 ./out/CPU_B/GCC_Drv_Flash_Parallel_Lib.o
 .rodata        0x4009a19e       0x23 ./out/CPU_B/GCC_Drv_Flash_Spi_Lib.o
 *fill*         0x4009a1c1        0x3 
 .rodata        0x4009a1c4       0x92 ./out/CPU_B/GCC_Drv_Gpio.o
 .rodata        0x4009a256       0x1d ./out/CPU_B/GCC_Drv_Spi_Lib.o
 .rodata        0x4009a273       0x1f ./out/CPU_B/GCC_Drv_Timer_Lib.o
 .rodata        0x4009a292       0x1f ./out/CPU_B/GCC_Drv_Uart_Vote.o
 .rodata        0x4009a2b1      0x410 ./out/CPU_B/GCC_exceptions.o
 .rodata        0x4009a6c1       0x1c ./out/CPU_B/GCC_os_hooks.o
 .rodata        0x4009a6dd       0x14 ./out/CPU_B/GCC_os_task.o
 .rodata        0x4009a6f1       0x1d ./out/CPU_B/GCC_os_cpu_c.o
 .rodata        0x4009a70e       0x1d ./out/CPU_B/GCC_GM_Mathlib.o
 .rodata        0x4009a72b       0x22 ./out/CPU_B/GCC_GM_PROSTACK_Arp.o
 .rodata        0x4009a74d       0x6f ./out/CPU_B/GCC_GM_PROSTACK_Can.o
 .rodata        0x4009a7bc      0x52e ./out/CPU_B/GCC_GM_PROSTACK_Cop.o
 .rodata        0x4009acea      0x1a0 ./out/CPU_B/GCC_GM_PROSTACK_Eth.o
 .rodata        0x4009ae8a      0x132 ./out/CPU_B/GCC_GM_PROSTACK_Icmp.o
 .rodata        0x4009afbc      0x3a2 ./out/CPU_B/GCC_GM_PROSTACK_Ip.o
 .rodata        0x4009b35e      0x837 ./out/CPU_B/GCC_GM_PROSTACK_Ip_tsk.o
 .rodata        0x4009bb95      0x417 ./out/CPU_B/GCC_GM_PROSTACK_Udp.o
 .rodata        0x4009bfac       0x23 ./out/CPU_B/GCC_GM_PROSTACK_Vote.o
 .rodata        0x4009bfcf      0x4b3 ./out/CPU_B/GCC_GM_Tftp.o
 *fill*         0x4009c482        0x2 
 .rodata        0x4009c484      0x4cb ./out/CPU_B/GCC_guest.o
 .rodata        0x4009c94f       0xbc ./out/CPU_B/GCC_guest_fuse.o
 .rodata        0x4009ca0b      0x107 ./out/CPU_B/GCC_guest_isolation.o
 .rodata        0x4009cb12      0x131 ./out/CPU_B/GCC_guest_outputport.o
 .rodata        0x4009cc43      0x381 ./out/CPU_B/GCC_guest_public.o
 .rodata        0x4009cfc4       0xa9 ./out/CPU_B/GCC_guest_readback.o
                0x4009d070                . = ALIGN (0x4)
 *fill*         0x4009d06d        0x3 
                0x4009d070                __CONST_EXT_SDRAM_CODE_END = .
                0x4009d070                __DATA_EXT_END = .

.uninitialized_data_sram
                0x81000d30     0x59b0 load address 0x20098af0
                0x81000d30                __BSS_START = .
 *(.bssos)
 .bssos         0x81000d30      0x224 ./out/CPU_B/GCC_exceptions.o
                0x81000d30                OSCPU_V_PreviousSP
                0x81000d34                OSCPU_V_Stack
                0x81000f14                OSCPU_V_ContextTable
 .bssos         0x81000f54       0x88 ./out/CPU_B/GCC_coretask.o
                0x81000f54                prioTcbTbl
                0x81000fd0                currentTcb
                0x81000fd4                sysReadyQueue
 .bssos         0x81000fdc      0x88c ./out/CPU_B/GCC_idletaskcreate.o
                0x81000fdc                idleTaskCount
                0x81000fe0                idleTcb
 .bssos         0x81001868      0x3d8 ./out/CPU_B/GCC_event.o
                0x81001868                eventGroupObjTbl
                0x81001c28                eventGroupObjManager
 .bssos         0x81001c40      0x450 ./out/CPU_B/GCC_mempart.o
                0x81001c40                mempartObjTbl
                0x81002078                mempartObjManager
 .bssos         0x81002090      0xf18 ./out/CPU_B/GCC_message_queue.o
                0x81002090                mqueueObjTbl
                0x81002f90                mqueueObjManager
 .bssos         0x81002fa8     0x1260 ./out/CPU_B/GCC_mutex.o
                0x81002fa8                mutexObjTbl
                0x810041f0                mutexObjManager
 .bssos         0x81004208      0xe50 ./out/CPU_B/GCC_semaphore.o
                0x81004208                semaphoreObjTbl
                0x81005040                semaphoreObjManager
 .bssos         0x81005058     0x1688 ./out/CPU_B/GCC_task.o
                0x81005058                taskObjTbl
                0x81005eb0                taskObjManager
                0x81005ec8                tcbChain
                0x81005ed4                idleCtrMax
                0x81005ed8                statRdy
                0x81005edc                cpuUsage
 *(.sbssos)
                0x810066e0                __BSS_MIDDLE = .

.uninitialized_data_sram_force
                0x810066e0     0x86e4 load address 0x2009e4a0
                0x810066e0                __BSS_FORCE_SRAM_START = .
 *(.udata_sram)
 .udata_sram    0x810066e0      0xb10 ./out/CPU_B/GCC_BIT.o
 .udata_sram    0x810071f0     0x16b0 ./out/CPU_B/GCC_can.o
 .udata_sram    0x810088a0     0x1630 ./out/CPU_B/GCC_can_safety.o
 .udata_sram    0x81009ed0      0xaf0 ./out/CPU_B/GCC_Flash.o
 .udata_sram    0x8100a9c0        0xc ./out/CPU_B/GCC_gdf.o
                0x8100a9c0                GDF_V_LastEvent
 .udata_sram    0x8100a9cc      0xaf0 ./out/CPU_B/GCC_RECORD.o
 .udata_sram    0x8100b4bc        0x2 ./out/CPU_B/GCC_VOTE_com.o
 *fill*         0x8100b4be        0x2 
 .udata_sram    0x8100b4c0      0xe70 ./out/CPU_B/GCC_VOTE_tsk.o
                0x8100b4c0                VOTE_TSK_V_MsgFifoHigh
                0x8100b500                VOTE_TSK_V_MsgFifoStd
                0x8100b600                VOTE_TSK_V_MsgFifoGuest
                0x8100b700                VOTE_TSK_V_MsgFifoIpstack
                0x8100b800                VOTE_TSK_V_MsgFifoLog
 .udata_sram    0x8100c330       0xba ./out/CPU_B/GCC_wdg.o
 *fill*         0x8100c3ea        0x2 
 .udata_sram    0x8100c3ec     0x13c0 ./out/CPU_B/GCC_Drv_Can_Lib.o
 .udata_sram    0x8100d7ac        0x8 ./out/CPU_B/GCC_Drv_Fec_Lib.o
                0x8100d7ac                IPS_FECDRV_V_RxCounter
 .udata_sram    0x8100d7b4       0x30 ./out/CPU_B/GCC_Drv_Uart_Vote.o
                0x8100d7b4                VOTE_DRV_V_BuffIndexByte
                0x8100d7c4                VOTE_DRV_V_HardwareConf
 .udata_sram    0x8100d7e4      0xaf0 ./out/CPU_B/GCC_GM_PROSTACK_Ip_tsk.o
                0x8100e2d4                . = ALIGN (0x4)
                0x8100e2d4                __NO_TEST_SRAM_UNINIT_SECTION_START = .
 *(.udata_no_memtest_sram)
 .udata_no_memtest_sram
                0x8100e2d4      0xaf0 ./out/CPU_B/GCC_os_cpu_c.o
                0x8100e2d4                OSCPU_V_ItStack
                0x8100edc4                . = ALIGN (0x4)
                0x8100edc4                __NO_TEST_SRAM_UNINIT_SECTION_END = .
                0x8100edc4                __BSS_END = .
                0x8100edc4                ___HEAP_START = .
                0x8100edc4                . = (. + 0x0)
                0x8100edc4                ___HEAP_END = .
                0x8100edc4                . = ALIGN (0x4)

.uninitialized_data_stack_boot
                0x8100fc00      0x400
                0x8100fc00                ___SP_END = .
 *(.bootstack)
 .bootstack     0x8100fc00      0x400 ./out/CPU_B/GCC_Drv_Boot_Module.o
                0x8100fc00                BOOT_V_Stack
                0x81010000                ___SP_INIT = .
                0x81010000                __BSS_FORCE_SRAM_END = .

.uninitialized_data_extram
                0x44001950   0x65a310 load address 0x2009a440
                0x44001950                __BSS_EXT_SDRAM_DATA_START = .
 *(.bss)
 .bss           0x44001950        0x0 ./out/CPU_B/GCC_mstep_isr.o
 .bss           0x44001950        0x0 ./out/CPU_B/GCC_wdg_irq_handler.o
 .bss           0x44001950        0x0 ./out/CPU_B/GCC_Drv_Sha1_Functions_Asm.o
 .bss           0x44001950        0x0 ./out/CPU_B/GCC_Drv_Can_Isr_Asm.o
 .bss           0x44001950        0x0 ./out/CPU_B/GCC_Drv_Fec_Isr_Asm.o
 .bss           0x44001950        0x0 ./out/CPU_B/GCC_Drv_Timer_Isr_Asm.o
 .bss           0x44001950        0x0 ./out/CPU_B/GCC_Drv_Uart_Vote_Isr_Asm.o
 .bss           0x44001950        0x0 ./out/CPU_B/GCC_VCU_Exception_Asm.o
 .bss           0x44001950        0x0 ./out/CPU_B/GCC_VCU_Start_Asm.o
 .bss           0x44001950        0x0 ./out/CPU_B/GCC_mcf5xxx_lo.o
 .bss           0x44001950        0x0 ./out/CPU_B/GCC_coldfire_cache.o
 .bss           0x44001950        0x0 ./out/CPU_B/GCC_entry.o
 .bss           0x44001950        0x0 ./out/CPU_B/GCC_os_cpu_a.o
 .bss           0x44001950       0x10 ./out/CPU_B/GCC_mstep.o
                0x44001950                MSTEP_V_pIsrFuncGuest
 .bss           0x44001960      0x194 ./out/CPU_B/GCC_BIT.o
                0x44001960                BIT_V_ProcessingStatistics
                0x44001988                BIT_V_TaskInfo
                0x44001998                BIT_V_TaskTempo
                0x440019a8                BIT_V_cbitTempo
                0x440019b8                BIT_V_cflashbitTempo
                0x440019c8                BIT_V_FaultFilteringTempo
                0x440019d8                BIT_V_DistantPowerSupplyFailureCounter
                0x440019da                BIT_V_bFaultFilteringAllowed
                0x440019dc                BIT_V_cbitFlags
 .bss           0x44001af4      0x11c ./out/CPU_B/GCC_BIT_fuse.o
                0x44001af4                BIT_FUSE_V_SafetyFlagBreakOther
                0x44001af5                BIT_FUSE_V_bFlashAsyncRunning
                0x44001af8                BIT_FUSE_V_SafetyFlagsChkWdLocked
                0x44001b48                BIT_FUSE_V_SafetyFlagsChkWd
                0x44001b98                BIT_FUSE_V_ToggleState
                0x44001b9c                BIT_FUSE_V_DirectToggleState
 .bss           0x44001c10      0x2b2 ./out/CPU_B/GCC_BIT_survey.o
                0x44001c10                BIT_SURVEY_V_OSTcbPrioCrc
                0x44001c14                BIT_SURVEY_V_pActionsStatistics
                0x44001c18                BIT_SURVEY_V_BuildCrcs
                0x44001c50                BIT_SURVEY_V_TasksStackLevel
                0x44001c6f                BIT_SURVEY_V_TaskTable
                0x44001c90                BIT_SURVEY_V_TickCurrent
                0x44001d0c                BIT_SURVEY_V_TickStored
                0x44001d88                BIT_SURVEY_V_TickMax
                0x44001e04                BIT_SURVEY_V_FlashInfo
                0x44001e08                BIT_SURVEY_V_VectorTableInfo
                0x44001e14                BIT_SURVEY_V_DcaInfo
                0x44001e28                BIT_SURVEY_V_NbTasksCreated
 *fill*         0x44001ec2        0x2 
 .bss           0x44001ec4      0x208 ./out/CPU_B/GCC_can.o
                0x44001ec4                CAN_V_pMgtFifo
                0x44001ec8                CAN_V_pMemMgtFifo
                0x44001ecc                CAN_V_pFlagGroup
                0x44001ed0                CAN_V_HBCyclePeriodNb
                0x44001ed4                CAN_V_MediumManagementCounter
 .bss           0x440020cc    0x166d4 ./out/CPU_B/GCC_can_ard.o
                0x440020cc                CAN_ARD_V_MemBlkCanArdPareto
 .bss           0x440187a0        0x0 ./out/CPU_B/GCC_can_config.o
 .bss           0x440187a0       0xd0 ./out/CPU_B/GCC_can_emcy.o
 .bss           0x44018870     0x21a0 ./out/CPU_B/GCC_can_od.o
                0x44018870                CAN_OD_V_ErrorTable
                0x44019060                CAN_OD_V_isEvolMaintDatasSet
                0x44019061                CAN_OD_V_isConfigDatasSet
                0x44019064                CAN_OD_V_NbBootup
                0x44019068                CAN_OD_V_NbHoursSinceFirstBoot
                0x4401906c                CAN_OD_V_ManufacturerSerialNumber
                0x44019080                CAN_OD_V_GenMaintDefaultValue
                0x44019084                CAN_OD_V_FailureCode
                0x44019088                CAN_OD_V_FailureTime
                0x44019090                CAN_OD_V_FailureContext
                0x440190f4                CAN_OD_V_EthCrcKO
                0x440190f8                CAN_OD_V_RmgMaxDiffDelay
                0x440190fc                CAN_OD_V_RmgA13RxNrmlNtwk
                0x44019100                CAN_OD_V_RmgA13RxRedNtwk
                0x44019104                CAN_OD_V_RmgEthFloodNb
                0x44019108                CAN_OD_V_RmgMaxPropDelayNrmlNtwk
                0x4401910c                CAN_OD_V_RmgMaxPropDelayRedNtwk
                0x44019110                CAN_OD_V_RmgMaxDeltaSeqNumberNrmlNtwk
                0x44019114                CAN_OD_V_RmgMaxDeltaSeqNumberRedNtwk
                0x44019118                CAN_OD_V_IsolationRestoreRequest
                0x4401911c                CAN_OD_V_FaultFilteringNumber
                0x44019120                CAN_OD_V_RslinkNb
                0x44019124                CAN_OD_V_RsOverFlow
                0x44019128                CAN_OD_V_RsHeaderErr
                0x4401912c                CAN_OD_V_RsInfo
                0x440191a4                CAN_OD_V_ODErrorRegister
                0x440191a5                CAN_OD_V_NumberOfErrors
                0x440191a6                CAN_OD_V_HardwareVersion
                0x440191b5                CAN_OD_V_SoftwareVersion
                0x440191c4                CAN_OD_V_VendorID
                0x440191c8                CAN_OD_V_ProductCode
                0x440191cc                CAN_OD_V_RevisionNumber
                0x440191d0                CAN_OD_V_SerialNumber
                0x440191d4                CAN_OD_V_SoftwareChecksum
                0x440191d8                CAN_OD_V_ModuleDatasetFootprint
                0x440191dc                CAN_OD_V_ConfDataVersion
                0x440191e1                CAN_OD_V_ParamDataVersion
                0x440191e8                CAN_OD_V_SwitchModeRequest
                0x440191ec                CAN_OD_V_NormalActivity
                0x440191ed                CAN_OD_V_StandbyActivity
                0x440191f0                CAN_OD_V_ErrorField
 .bss           0x4401aa10       0xc9 ./out/CPU_B/GCC_can_odplug.o
                0x4401aa10                CAN_ODPLUG_V_Rule
                0x4401aad8                CAN_ODPLUG_V_RuleCounter
 *fill*         0x4401aad9        0x3 
 .bss           0x4401aadc     0x17b0 ./out/CPU_B/GCC_can_open.o
                0x4401aadc                CAN_OPEN_V_ODVersion
                0x4401ab10                CAN_OPEN_V_IPoverCANVersion
                0x4401ab44                CAN_OPEN_V_MyState
                0x4401ab54                CAN_OPEN_V_StatsPresenceNode
                0x4401ab64                CAN_OPEN_V_IsMediumActive
                0x4401ab66                CAN_OPEN_V_IsModulePresent
                0x4401abd0                CAN_OPEN_V_NodesState
                0x4401bf50                CAN_OPEN_V_ModulesDivergenceNb
 .bss           0x4401c28c       0x18 ./out/CPU_B/GCC_can_saddle.o
 .bss           0x4401c2a4      0x764 ./out/CPU_B/GCC_can_safety.o
                0x4401c2a4                CAN_SAFETY_V_TaskInfo
                0x4401c2b4                CAN_SAFETY_V_pVitalFifo
                0x4401c2b8                CAN_SAFETY_V_pMemVitalFifo
                0x4401c2bc                CAN_SAFETY_V_MasterBoardType
                0x4401c2c0                CAN_SAFETY_V_StatsNbOfPdoReceived
                0x4401c2c8                CAN_SAFETY_V_NodesSafetyLayerError
                0x4401c468                CAN_SAFETY_V_CobIdToPdoIdRx
                0x4401c627                CAN_SAFETY_V_CobIdToPdoIdTx
                0x4401c7e8                CAN_SAFETY_V_SafetyDiffersPrintsTimer
                0x4401c7f8                CAN_SAFETY_V_SyncCurrentNumberRecv
 .bss           0x4401ca08      0x308 ./out/CPU_B/GCC_can_sdo.o
                0x4401ca08                CAN_SDO_V_STDClientId
                0x4401ca0c                CAN_SDO_V_ServerID
                0x4401ca0e                CAN_SDO_V_Index
                0x4401ca10                CAN_SDO_V_SubIndex
                0x4401ca11                CAN_SDO_V_ToggleBit
                0x4401ca14                CAN_SDO_V_LengthRemaining
                0x4401ca18                CAN_SDO_V_LengthSent
                0x4401ca1c                CAN_SDO_V_LengthReceived
                0x4401ca20                CAN_SDO_V_BufferReceived
                0x4401cac8                CAN_SDO_V_ObjectType
                0x4401cacc                CAN_SDO_V_BufferDataToSend
                0x4401cb74                CAN_SDO_V_Error
                0x4401cb78                CAN_SDO_V_CurrentBlkInfo
                0x4401cbf7                CAN_SDO_V_LastSegmentReceived
                0x4401cbf8                CAN_SDO_V_BlkTransferInProgress
                0x4401cbf9                CAN_SDO_V_BlkSize
                0x4401cbfa                CAN_SDO_V_NumberOfEmptyBytes
                0x4401cbfb                CAN_SDO_V_CRCSupported
                0x4401cbfc                CAN_SDO_V_ChannelTempo
                0x4401cc0c                CAN_SDO_V_ChannelUsed
                0x4401cc10                CAN_SDO_V_Client
 .bss           0x4401cd10       0x30 ./out/CPU_B/GCC_can_time.o
                0x4401cd10                CAN_TIME_V_HBCyclePeriodNb
                0x4401cd14                CAN_TIME_V_CanTime
 .bss           0x4401cd40       0x58 ./out/CPU_B/GCC_CONF.o
                0x4401cd40                CONF_V_NbConfValidFunc
                0x4401cd44                CONF_V_ConfValidFuncArray
                0x4401cd6c                CONF_V_ConfOkCbRegistered
                0x4401cd70                CONF_V_ConfOkCbArray
 .bss           0x4401cd98    0x1e8e8 ./out/CPU_B/GCC_CONF_autho.o
                0x4401cd98                CONF_AUTHO_V_TaskInfo
                0x4401cda8                CONF_AUTHO_V_NbMyDatasetKeySrcAdded
                0x4401cdac                CONF_AUTHO_V_MyFolderId
                0x4401cdb0                CONF_AUTHO_V_BootFailedInfo
                0x4401cdb4                CONF_AUTHO_V_bIsFirstModuleDatasetAuthorizationReceived
                0x4401cdb8                CONF_AUTHO_V_pMemTFTPInstance
                0x4401cdbc                CONF_AUTHO_V_InitializationModeTimer
                0x4401cdcc                CONF_AUTHO_V_LastFileOfMyDataset
                0x4401cdd0                CONF_AUTHO_V_InternalMemoryAreaForFiles
                0x4401cde0                CONF_AUTHO_V_CacheMemoryAreaForModuleDatasets
                0x4401cdf0                CONF_AUTHO_V_CacheMemoryAreaForFootprintsAndAuthorizations
                0x4401ce00                CONF_AUTHO_V_FootprintFileDesc
                0x4401d480                CONF_AUTHO_V_AuthorizationCounter
                0x4401d484                CONF_AUTHO_V_StatFootprintChunkTimeStat
 .bss           0x4403b680        0x0 ./out/CPU_B/GCC_CONF_check.o
 .bss           0x4403b680        0xa ./out/CPU_B/GCC_CONF_dataset.o
 *fill*         0x4403b68a        0x2 
 .bss           0x4403b68c      0x530 ./out/CPU_B/GCC_CONF_local.o
                0x4403b68c                CONF_LOCAL_V_InternalMemoryAreaForFiles
                0x4403b69c                CONF_LOCAL_V_CacheMemoryAreaMyConf
                0x4403b6ac                CONF_LOCAL_V_CacheMemoryAreaReprog
                0x4403b6bc                CONF_LOCAL_V_CacheMemoryAreaDCALocalFile
                0x4403b6cc                CONF_LOCAL_V_IsTransplantable
                0x4403b6d0                CONF_LOCAL_V_pMemTFTPInstance
                0x4403b6d4                CONF_LOCAL_V_NvmemAreaStat
                0x4403b6d8                CONF_LOCAL_V_UnusedParametersNb
                0x4403b6dc                CONF_LOCAL_V_NvmemStatInfo
 .bss           0x4403bbbc     0x3f4d ./out/CPU_B/GCC_CONF_reconf.o
                0x4403bbbc                CONF_RECONF_V_TaskInfo
                0x4403bbcc                posOutImage
                0x4403bbd0                CONF_RECONF_V_StatusInit
                0x4403bbe1                CONF_RECONF_V_Request
                0x4403bbf4                CONF_RECONF_V_TaskTempo
                0x4403bc04                CONF_RECONF_V_pFlagGroup
 *fill*         0x4403fb09        0x3 
 .bss           0x4403fb0c     0x1272 ./out/CPU_B/GCC_CONF_src.o
                0x4403fb0c                CONF_SRC_BID_V_SourceDesc
                0x4403fb80                CONF_SRC_BID_V_bidSourceFileDesc
                0x4403fb90                CONF_SRC_FLASH_V_SourceDesc
                0x44040d14                CONF_SRC_FLASH_V_FileToExtractList
                0x44040d1c                CONF_SRC_FLASH_V_FileToFlushList
                0x44040d24                CONF_SRC_FLASH_V_ReadAsyncCtx
                0x44040d38                CONF_SRC_FLASH_V_WriteAsyncCtx
 *fill*         0x44040d7e        0x2 
 .bss           0x44040d80     0x3a78 ./out/CPU_B/GCC_FCODE.o
                0x44040d80                FCODE_V_lruDefaultState
 .bss           0x440447f8      0xe38 ./out/CPU_B/GCC_FILESYS.o
                0x440447f8                FILESYS_V_OudatedFileList
                0x44044800                FILESYS_V_NothingToDoFileList
                0x44044808                FILESYS_V_RefillingFileList
                0x44044810                FILESYS_V_SourceTaskList
                0x44044818                FILESYS_V_ResetCacheActionList
                0x44044820                FILESYS_V_ResetCacheActionListFree
                0x44044828                FILESYS_V_FlushingFileList
                0x44044830                FILESYS_V_FlushingFileListFree
                0x44044838                FILESYS_V_MonitoredFileArray
                0x44044858                FILESYS_V_MonitoredFileRegistered
                0x4404485c                FILESYS_V_SourcePeriodicTaskNb
                0x44044860                FILESYS_V_SourceArray
 .bss           0x44045630        0x0 ./out/CPU_B/GCC_FILESYS_int.o
 .bss           0x44045630      0x475 ./out/CPU_B/GCC_FILESYS_tftp.o
                0x44045630                FILESYS_TFTP_SRC_V_SourceDesc
                0x440456a4                FILESYS_TFTP_SRC_V_HandledSourceFile
                0x440458d4                FILESYS_TFTP_SRC_V_pFlagGroupStatus
                0x440458d8                FILESYS_TFTP_SRC_V_pFlagGroupRead
                0x440458dc                FILESYS_TFTP_V_Session
                0x4404596c                FILESYS_TFTP_V_Detail
                0x44045a44                FILESYS_TFTP_V_ModuleDatasetRetrievingTimer
                0x44045a54                FILESYS_TFTP_SRC_V_TFTP_Timer
 *fill*         0x44045aa5        0x3 
 .bss           0x44045aa8        0x0 ./out/CPU_B/GCC_Flash.o
 .bss           0x44045aa8       0xb8 ./out/CPU_B/GCC_Flash_Async.o
                0x44045aa8                FLASH_ASYNC_V_FlashDevArray
 .bss           0x44045b60        0x0 ./out/CPU_B/GCC_Flash_Direct.o
 .bss           0x44045b60        0x1 ./out/CPU_B/GCC_gdf.o
 *fill*         0x44045b61        0x3 
 .bss           0x44045b64       0x1c ./out/CPU_B/GCC_gdf_dump_tools.o
 .bss           0x44045b80   0x13ff68 ./out/CPU_B/GCC_LZW.o
 .bss           0x44185ae8        0x0 ./out/CPU_B/GCC_MATH.o
 .bss           0x44185ae8      0xf58 ./out/CPU_B/GCC_osw.o
                0x44185ae8                OSW_V_MemPartTable
 .bss           0x44186a40     0x57e4 ./out/CPU_B/GCC_print.o
                0x44186a40                PRINT_V_Started
                0x44186a41                PRINT_V_bPrintfTainted
                0x44186a42                PRINT_V_bUartInitialized
                0x44186a44                PRINT_V_Statistic
                0x44186a48                PRINT_V_TaskInfo
                0x44186a58                PRINT_V_LogMsgMemBlock
                0x44186a5c                PRINT_V_pFlagGrpNotif
 .bss           0x4418c224       0x18 ./out/CPU_B/GCC_RECORD.o
                0x4418c224                RECORD_V_bIsEStampCopyDone
                0x4418c228                RECORD_V_pFlagGroup
                0x4418c22c                RECORD_V_ElecStampStatus
                0x4418c230                RECORD_V_MainStateChart
 .bss           0x4418c23c      0x42c ./out/CPU_B/GCC_RECORD_evt.o
                0x4418c23c                RECORD_EVT_V_IndexOfNextDefault
                0x4418c240                RECORD_EVT_V_bIsIndexOfDefaultOK
                0x4418c244                RECORD_EVT_V_DefaultPool
                0x4418c248                RECORD_EVT_V_pFifo
                0x4418c24c                RECORD_EVT_V_BackupLogStateChart
                0x4418c258                RECORD_EVT_V_EventStateChart
                0x4418c264                RECORD_EVT_V_BackupInfo
                0x4418c268                RECORD_EVT_V_LogInfo
                0x4418c26c                RECORD_EVT_V_pEventInfo
 .bss           0x4418c668      0x51b ./out/CPU_B/GCC_RECORD_pda.o
                0x4418c668                RECORD_PDA_V_FrontBackBufferInfo
                0x4418ca9c                RECORD_PDA_V_FlushTempo
                0x4418caac                RECORD_PDA_V_FlushStateChart
                0x4418cab8                RECORD_PDA_V_InitStateChart
                0x4418cac4                RECORD_PDA_V_FlushInfo
                0x4418cacc                RECORD_PDA_V_InitInfo
                0x4418cad4                RECORD_PDA_V_Counter
                0x4418cad8                RECORD_PDA_V_ReadSecondSectorHeader
                0x4418cae0                RECORD_PDA_T_DumpBuffer
 *fill*         0x4418cb83        0x1 
 .bss           0x4418cb84      0x114 ./out/CPU_B/GCC_RECORD_sector.o
                0x4418cb84                RECORD_SECTOR_V_ReadSectorStateChart
                0x4418cb90                RECORD_SECTOR_V_WriteSectorStateChart
                0x4418cb9c                RECORD_SECTOR_V_CurrentReadHeader
                0x4418cbac                RECORD_SECTOR_V_BaseAreaAddress
                0x4418cbb0                RECORD_SECTOR_V_ReadInfo
                0x4418cbcc                RECORD_SECTOR_V_WriteInfo
                0x4418cbe8                RECORD_SECTOR_V_bAreaReadError
                0x4418cbec                RECORD_SECTOR_V_IndexReadArea
 .bss           0x4418cc98        0x0 ./out/CPU_B/GCC_RECORD_stat.o
 .bss           0x4418cc98       0xec ./out/CPU_B/GCC_RECORD_utl.o
 .bss           0x4418cd84      0xa24 ./out/CPU_B/GCC_Schedule.o
                0x4418cd84                SCHED_V_bIsCommonTimeSynchronized
                0x4418cd85                SCHED_V_bReady
                0x4418cd88                SCHED_V_CurrentRunLevel
                0x4418cd8c                SCHED_V_CommonTimeOp
 .bss           0x4418d7a8      0x504 ./out/CPU_B/GCC_Schedule_gentask.o
 .bss           0x4418dcac        0x8 ./out/CPU_B/GCC_Schedule_gta.o
 .bss           0x4418dcb4      0x510 ./out/CPU_B/GCC_Schedule_launcher.o
 .bss           0x4418e1c4       0x38 ./out/CPU_B/GCC_Schedule_utl.o
                0x4418e1c4                SCHED_V_bRestrictiveEventReasonLogged
                0x4418e1c8                SCHED_V_BootState
                0x4418e1cc                SCHED_V_NbFaultFilteringReboot
 .bss           0x4418e1fc        0x0 ./out/CPU_B/GCC_VCU_Start.o
 .bss           0x4418e1fc     0x1510 ./out/CPU_B/GCC_SDB.o
                0x4418e1fc                SDB_V_SteeringCan
                0x4418e25c                SDB_V_DetectedCan
                0x4418e2bc                SDB_V_Data
                0x4418e5cc                SDB_V_NbNotification
                0x4418e5d0                SDB_V_NotificationArray
                0x4418e6ac                SDB_V_PdoDetected
                0x4418e784                SDB_V_PdoSteering
                0x4418e85c                SDB_V_InternalState
                0x4418e860                SDB_V_TxModeState
                0x4418e864                SDB_V_Stats
                0x4418f364                SDB_V_SchedulingTempo
                0x4418f374                SDB_V_IntALifeTimeMgt
                0x4418f3ec                SDB_V_SyncProcessingStartTime
                0x4418f3f0                SDB_V_SRTTLifeTimeMgt
                0x4418f404                SDB_V_PDOForgiveCnt
 .bss           0x4418f70c     0x1894 ./out/CPU_B/GCC_SDB_api.o
                0x4418f70c                SDB_API_V_ReadDbMemPart
                0x4418f710                SDB_API_V_UpdateMask
 .bss           0x44190fa0      0x4a8 ./out/CPU_B/GCC_SDB_intercpu.o
                0x44190fa0                SDB_INTERCPU_V_ReceivedMsg
                0x441911f4                SDB_INTERCPU_V_MsgToSend
 .bss           0x44191448      0x2e0 ./out/CPU_B/GCC_SDB_ioplug.o
                0x44191448                SDB_V_Ioplug_InputDefaultTable
                0x4419164c                SDB_IOPLUG_V_PdoTime
 .bss           0x44191728      0x5a3 ./out/CPU_B/GCC_SDB_update.o
                0x44191728                SDB_UPDATE_V_ProtectedData
                0x44191ca0                SDB_UPDATE_V_PDOSetRestrict
 *fill*         0x44191ccb        0x1 
 .bss           0x44191ccc     0x8218 ./out/CPU_B/GCC_SDB_updatelist.o
                0x44191ccc                SDB_UPDATELIST_V_UpdateList
 .bss           0x44199ee4        0x0 ./out/CPU_B/GCC_std.o
 .bss           0x44199ee4      0xe0c ./out/CPU_B/GCC_VOTE.o
 .bss           0x4419acf0      0x7b4 ./out/CPU_B/GCC_VOTE_com.o
                0x4419acf0                VOTE_COM_V_K2oo2TimeoutStorage
 .bss           0x4419b4a4      0x270 ./out/CPU_B/GCC_VOTE_tsk.o
                0x4419b4a4                VOTE_TSK_V_TaskInfo
                0x4419b4b4                VOTE_TSK_V_Statistic
                0x4419b4c0                VOTE_V_ModeIsRunning
                0x4419b4c4                VOTE_V_Management
                0x4419b4cc                VOTE_V_pPrioQueueIn
 .bss           0x4419b714      0x4e4 ./out/CPU_B/GCC_wdg.o
 .bss           0x4419bbf8   0x41074f ./out/CPU_B/GCC_viv.o
                0x4419bbf8                VIV_V_pImageBuffer
                0x4459bbf8                posInImage
                0x4459bbfc                VIV_V_Postfix
                0x4459bc00                VIV_V_Sessions
                0x445ac2c0                VIV_V_Info
                0x445ac2c4                VIV_V_DebugInfo
                0x445ac2cc                VIV_V_TriggeredFunctions
                0x445ac31c                VIV_V_ProtocolVersions
                0x445ac342                VIV_V_ResetPending
                0x445ac343                EndWriteImageFlag
 *fill*         0x445ac347        0x1 
 .bss           0x445ac348      0x800 ./out/CPU_B/GCC_Drv_CAU_Lib.o
 .bss           0x445acb48        0x6 ./out/CPU_B/GCC_Drv_BID_Lib.o
 *fill*         0x445acb4e        0x2 
 .bss           0x445acb50        0x0 ./out/CPU_B/GCC_Drv_Boot_Module.o
 .bss           0x445acb50        0x0 ./out/CPU_B/GCC_Drv_Boot_Utils.o
 .bss           0x445acb50        0x0 ./out/CPU_B/GCC_Drv_Cache_Lib.o
 .bss           0x445acb50        0x0 ./out/CPU_B/GCC_Drv_Can_Isr.o
 .bss           0x445acb50     0x2d98 ./out/CPU_B/GCC_Drv_Can_Lib.o
                0x445acb50                CAN_V_pMemCanISR
                0x445acb54                CAN_DRIVER_V_TxFrameMem
                0x445acb58                CAN_DRIVER_V_Stats
                0x445acb90                CAN_V_IsrBottomHalfTaskInfo
                0x445acba0                CAN_DRIVER_V_ActiveChannel
                0x445acba4                CAN_DRIVER_BufferInfosQueue
                0x445acba8                CAN_DRIVER_V_SendFrameSem
                0x445acbac                CAN_DRIVER_V_IsBufferFree
                0x445acbb4                CAN_DRIVER_V_PdoSendingQueue
                0x445acbbc                CAN_DRIVER_V_SdoSendingQueue
 .bss           0x445af8e8       0xa6 ./out/CPU_B/GCC_Drv_Fec_Lib.o
                0x445af8e8                IPS_FECDRV_V_Flood_Tempo
                0x445af908                IPS_FECDRV_V_ConflictIPAllowTempo
                0x445af918                IPS_FECDRV_V_ConflictIPFilteringTempo
                0x445af928                IPS_FECDRV_V_NbIt
                0x445af930                IPS_FECDRV_V_NbMess
                0x445af938                IPS_FECDRV_V_TxDesc
                0x445af940                IPS_FECDRV_V_RxDesc
                0x445af948                IPS_FECDRV_V_CurrentRx
                0x445af950                IPS_FECDRV_V_CurrentTx
                0x445af958                IPS_FECDRV_V_ConflictIPInProgress
                0x445af95c                IPS_FECDRV_V_ConflictIPDescription
                0x445af96c                IPS_FECDRV_V_ConflictIpNumberKernel
                0x445af970                IPS_FECDRV_V_ConflictIpNumber
 *fill*         0x445af98e        0x2 
 .bss           0x445af990      0x4a4 ./out/CPU_B/GCC_Drv_Flash_Parallel_Lib.o
 .bss           0x445afe34      0x510 ./out/CPU_B/GCC_Drv_Flash_Spi_Lib.o
 .bss           0x445b0344        0xc ./out/CPU_B/GCC_Drv_Gpio.o
                0x445b0344                GPIO_V_ChipSelectDefinition
                0x445b0348                GPIO_V_GPIODefinition
                0x445b034c                VCU_GPIO_V_GPIODefinition
 .bss           0x445b0350        0x0 ./out/CPU_B/GCC_Drv_Led_Lib.o
 .bss           0x445b0350        0x0 ./out/CPU_B/GCC_Drv_MMU_Lib.o
 .bss           0x445b0350        0x0 ./out/CPU_B/GCC_Drv_SDRAM_Lib.o
 .bss           0x445b0350      0xecd ./out/CPU_B/GCC_Drv_Spi_Lib.o
                0x445b0350                Drv_SPI_V_SpyAccessArray
                0x445b1210                Drv_SPI_V_CurrentSpyIndex
                0x445b1214                Drv_SPI_V_Is_Initialized
                0x445b1218                Drv_SPI_V_Sem
                0x445b121c                Drv_SPI_V_Is_Running
 *fill*         0x445b121d        0x3 
 .bss           0x445b1220       0x10 ./out/CPU_B/GCC_Drv_Timer_Lib.o
 .bss           0x445b1230       0x40 ./out/CPU_B/GCC_Drv_Uart_Vote.o
                0x445b1230                VOTE_DRV_V_DmaChainConfig
                0x445b1238                VOTE_DRV_V_Statistic
 .bss           0x445b1270        0x0 ./out/CPU_B/GCC_bsp.o
 .bss           0x445b1270        0x0 ./out/CPU_B/GCC_exceptions.o
 .bss           0x445b1270     0x165c ./out/CPU_B/GCC_os_core.o
                0x445b1270                OSEventFreeList
                0x445b1274                OSEventTbl
 .bss           0x445b28cc        0x0 ./out/CPU_B/GCC_os_flag.o
 .bss           0x445b28cc        0x0 ./out/CPU_B/GCC_os_hooks.o
 .bss           0x445b28cc        0x0 ./out/CPU_B/GCC_os_mbox.o
 .bss           0x445b28cc      0x4b4 ./out/CPU_B/GCC_os_mem.o
 .bss           0x445b2d80        0x0 ./out/CPU_B/GCC_os_mutex.o
 .bss           0x445b2d80        0x0 ./out/CPU_B/GCC_os_q.o
 .bss           0x445b2d80        0x0 ./out/CPU_B/GCC_os_sem.o
 .bss           0x445b2d80      0x3e0 ./out/CPU_B/GCC_os_task.o
 .bss           0x445b3160        0x0 ./out/CPU_B/GCC_os_time.o
 .bss           0x445b3160        0x0 ./out/CPU_B/GCC_arch_cache.o
 .bss           0x445b3160        0x0 ./out/CPU_B/GCC_core.o
 .bss           0x445b3160        0x0 ./out/CPU_B/GCC_coretask.o
 .bss           0x445b3160        0x0 ./out/CPU_B/GCC_idletaskcreate.o
 .bss           0x445b3160        0x0 ./out/CPU_B/GCC_cache_disable_data.o
 .bss           0x445b3160        0x0 ./out/CPU_B/GCC_cache_disable_instruction.o
 .bss           0x445b3160        0x0 ./out/CPU_B/GCC_cache_enable_data.o
 .bss           0x445b3160        0x0 ./out/CPU_B/GCC_cache_enable_instruction.o
 .bss           0x445b3160        0x0 ./out/CPU_B/GCC_cache_flush_data.o
 .bss           0x445b3160        0x0 ./out/CPU_B/GCC_cache_invalidate_data.o
 .bss           0x445b3160        0x0 ./out/CPU_B/GCC_cache_invalidate_instruction.o
 .bss           0x445b3160        0x0 ./out/CPU_B/GCC_counter.o
 .bss           0x445b3160        0x0 ./out/CPU_B/GCC_counter_create.o
 .bss           0x445b3160        0x0 ./out/CPU_B/GCC_counter_delete.o
 .bss           0x445b3160        0x0 ./out/CPU_B/GCC_counter_increment.o
 .bss           0x445b3160        0x0 ./out/CPU_B/GCC_counter_tick_get.o
 .bss           0x445b3160        0x0 ./out/CPU_B/GCC_counter_tick_set.o
 .bss           0x445b3160        0x0 ./out/CPU_B/GCC_event.o
 .bss           0x445b3160        0x0 ./out/CPU_B/GCC_event_clear.o
 .bss           0x445b3160        0x0 ./out/CPU_B/GCC_event_group_create.o
 .bss           0x445b3160        0x0 ./out/CPU_B/GCC_event_group_delete.o
 .bss           0x445b3160        0x0 ./out/CPU_B/GCC_event_group_delete_force.o
 .bss           0x445b3160        0x0 ./out/CPU_B/GCC_event_group_info.o
 .bss           0x445b3160        0x0 ./out/CPU_B/GCC_event_notify.o
 .bss           0x445b3160        0x0 ./out/CPU_B/GCC_event_ready_get.o
 .bss           0x445b3160        0x0 ./out/CPU_B/GCC_event_set.o
 .bss           0x445b3160        0x0 ./out/CPU_B/GCC_event_try_wait.o
 .bss           0x445b3160        0x0 ./out/CPU_B/GCC_event_wait.o
 .bss           0x445b3160        0x0 ./out/CPU_B/GCC_fatal_error_raise.o
 .bss           0x445b3160        0x0 ./out/CPU_B/GCC_irq_is_enabled.o
 .bss           0x445b3160        0x0 ./out/CPU_B/GCC_irq_resume.o
 .bss           0x445b3160        0x0 ./out/CPU_B/GCC_irq_suspend.o
 .bss           0x445b3160        0x0 ./out/CPU_B/GCC_isr.o
 .bss           0x445b3160        0x0 ./out/CPU_B/GCC_isr_enter.o
 .bss           0x445b3160        0x0 ./out/CPU_B/GCC_isr_exit.o
 .bss           0x445b3160        0x0 ./out/CPU_B/GCC_isr_level_get.o
 .bss           0x445b3160        0x0 ./out/CPU_B/GCC_mempart.o
 .bss           0x445b3160        0x0 ./out/CPU_B/GCC_mempart_alloc.o
 .bss           0x445b3160        0x0 ./out/CPU_B/GCC_mempart_create.o
 .bss           0x445b3160        0x0 ./out/CPU_B/GCC_mempart_free.o
 .bss           0x445b3160        0x0 ./out/CPU_B/GCC_mempart_info.o
 .bss           0x445b3160        0x0 ./out/CPU_B/GCC_message_queue.o
 .bss           0x445b3160        0x0 ./out/CPU_B/GCC_message_queue_broadcast.o
 .bss           0x445b3160        0x0 ./out/CPU_B/GCC_message_queue_create.o
 .bss           0x445b3160        0x0 ./out/CPU_B/GCC_message_queue_delete.o
 .bss           0x445b3160        0x0 ./out/CPU_B/GCC_message_queue_delete_force.o
 .bss           0x445b3160        0x0 ./out/CPU_B/GCC_message_queue_flush.o
 .bss           0x445b3160        0x0 ./out/CPU_B/GCC_message_queue_info.o
 .bss           0x445b3160        0x0 ./out/CPU_B/GCC_message_queue_receive.o
 .bss           0x445b3160        0x0 ./out/CPU_B/GCC_message_queue_send.o
 .bss           0x445b3160        0x0 ./out/CPU_B/GCC_message_queue_send_first.o
 .bss           0x445b3160        0x0 ./out/CPU_B/GCC_message_queue_try_receive.o
 .bss           0x445b3160        0x0 ./out/CPU_B/GCC_mutex.o
 .bss           0x445b3160        0x0 ./out/CPU_B/GCC_mutex_create.o
 .bss           0x445b3160        0x0 ./out/CPU_B/GCC_mutex_delete.o
 .bss           0x445b3160        0x0 ./out/CPU_B/GCC_mutex_delete_force.o
 .bss           0x445b3160        0x0 ./out/CPU_B/GCC_mutex_info.o
 .bss           0x445b3160        0x0 ./out/CPU_B/GCC_mutex_lock.o
 .bss           0x445b3160        0x0 ./out/CPU_B/GCC_mutex_try_lock.o
 .bss           0x445b3160        0x0 ./out/CPU_B/GCC_mutex_unlock.o
 .bss           0x445b3160        0x0 ./out/CPU_B/GCC_os_init.o
 .bss           0x445b3160        0x0 ./out/CPU_B/GCC_os_safety_critical.o
 .bss           0x445b3160        0x0 ./out/CPU_B/GCC_os_shutdown.o
 .bss           0x445b3160        0x0 ./out/CPU_B/GCC_os_start.o
 .bss           0x445b3160        0x0 ./out/CPU_B/GCC_sched_lock.o
 .bss           0x445b3160        0x0 ./out/CPU_B/GCC_sched_unlock.o
 .bss           0x445b3160        0x0 ./out/CPU_B/GCC_semaphore.o
 .bss           0x445b3160        0x0 ./out/CPU_B/GCC_semaphore_count_get.o
 .bss           0x445b3160        0x0 ./out/CPU_B/GCC_semaphore_count_set.o
 .bss           0x445b3160        0x0 ./out/CPU_B/GCC_semaphore_create.o
 .bss           0x445b3160        0x0 ./out/CPU_B/GCC_semaphore_delete.o
 .bss           0x445b3160        0x0 ./out/CPU_B/GCC_semaphore_delete_force.o
 .bss           0x445b3160        0x0 ./out/CPU_B/GCC_semaphore_give.o
 .bss           0x445b3160        0x0 ./out/CPU_B/GCC_semaphore_info.o
 .bss           0x445b3160        0x0 ./out/CPU_B/GCC_semaphore_take.o
 .bss           0x445b3160        0x0 ./out/CPU_B/GCC_semaphore_try_take.o
 .bss           0x445b3160        0x0 ./out/CPU_B/GCC_sys_tick.o
 .bss           0x445b3160        0x0 ./out/CPU_B/GCC_sys_tick_get.o
 .bss           0x445b3160        0x0 ./out/CPU_B/GCC_sys_tick_increment.o
 .bss           0x445b3160        0x0 ./out/CPU_B/GCC_sys_tick_set.o
 .bss           0x445b3160        0x0 ./out/CPU_B/GCC_task.o
 .bss           0x445b3160        0x0 ./out/CPU_B/GCC_task_check_idle_stack.o
 .bss           0x445b3160        0x0 ./out/CPU_B/GCC_task_check_stack.o
 .bss           0x445b3160        0x0 ./out/CPU_B/GCC_task_create.o
 .bss           0x445b3160        0x0 ./out/CPU_B/GCC_task_delay.o
 .bss           0x445b3160        0x0 ./out/CPU_B/GCC_task_delay_cancel.o
 .bss           0x445b3160        0x0 ./out/CPU_B/GCC_task_delete.o
 .bss           0x445b3160        0x0 ./out/CPU_B/GCC_task_get_by_priority.o
 .bss           0x445b3160        0x0 ./out/CPU_B/GCC_task_get_priority.o
 .bss           0x445b3160        0x0 ./out/CPU_B/GCC_task_info.o
 .bss           0x445b3160        0x0 ./out/CPU_B/GCC_task_resume.o
 .bss           0x445b3160        0x0 ./out/CPU_B/GCC_task_set_priority.o
 .bss           0x445b3160        0x0 ./out/CPU_B/GCC_task_statis_info.o
 .bss           0x445b3160        0x0 ./out/CPU_B/GCC_task_statis_init.o
 .bss           0x445b3160        0x0 ./out/CPU_B/GCC_task_suspend.o
 .bss           0x445b3160        0x0 ./out/CPU_B/GCC_timer.o
 .bss           0x445b3160        0x0 ./out/CPU_B/GCC_timer_cancel.o
 .bss           0x445b3160        0x0 ./out/CPU_B/GCC_timer_create.o
 .bss           0x445b3160        0x0 ./out/CPU_B/GCC_timer_delete.o
 .bss           0x445b3160        0x0 ./out/CPU_B/GCC_timer_set_abs.o
 .bss           0x445b3160        0x0 ./out/CPU_B/GCC_timer_set_rel.o
 .bss           0x445b3160        0x0 ./out/CPU_B/GCC_os_cpu_c.o
 .bss           0x445b3160        0x0 ./out/CPU_B/GCC_GM_Mathlib.o
 .bss           0x445b3160     0x12d4 ./out/CPU_B/GCC_GM_PROSTACK_Arp.o
                0x445b3160                GM_PROS_ARP_V_ArpTable
                0x445b4420                GM_PROS_ARP_V_ProbingStatus_1
                0x445b4424                GM_PROS_ARP_V_ProbingStatus_2
                0x445b4428                GM_PROS_ARP_V_ProbingHWAddress_1
                0x445b442e                GM_PROS_ARP_V_ProbingHWAddress_2
 .bss           0x445b4434      0x6a8 ./out/CPU_B/GCC_GM_PROSTACK_Can.o
                0x445b4434                GM_PROS_IP_CAN_V_Stat
 .bss           0x445b4adc     0x19f1 ./out/CPU_B/GCC_GM_PROSTACK_Cop.o
                0x445b4adc                GM_PROS_COP_V_NodeIdInfoArray
                0x445b633c                GM_PROS_COP_V_CtxArray
 *fill*         0x445b64cd        0x3 
 .bss           0x445b64d0      0x178 ./out/CPU_B/GCC_GM_PROSTACK_Eth.o
                0x445b64d0                GM_PROS_ETH_V_ReapeatTable
 .bss           0x445b6648        0x0 ./out/CPU_B/GCC_GM_PROSTACK_Icmp.o
 .bss           0x445b6648    0x383f0 ./out/CPU_B/GCC_GM_PROSTACK_Ip.o
                0x445b6648                GM_PROSTACK_V_Statistic
                0x445b66bc                GM_PROS_IP_V_MemBlkIpPareto
 .bss           0x445eea38      0xd00 ./out/CPU_B/GCC_GM_PROSTACK_Ip_tsk.o
 .bss           0x445ef738      0x584 ./out/CPU_B/GCC_GM_PROSTACK_Udp.o
                0x445ef738                GM_PROS_UDP_V_pSynchroSem
                0x445ef73c                GM_PROS_UDP_V_Table
 .bss           0x445efcbc      0x68c ./out/CPU_B/GCC_GM_PROSTACK_Vote.o
 .bss           0x445f0348     0x60b8 ./out/CPU_B/GCC_GM_Tftp.o
                0x445f0348                GM_TFTP_V_TaskInfo
                0x445f0358                GM_TFTP_V_ServerFifo
                0x445f0364                GM_TFTP_V_ReqSocketUDP
                0x445f0370                GM_TFTP_V_pUdpFlagGroup
                0x445f0374                GM_TFTP_T_IndexLastService
                0x445f0378                GM_TFTP_V_SubscribedService
                0x445f0438                GM_TFTP_V_ConnectionArray
 .bss           0x445f6400    0x62c6c ./out/CPU_B/GCC_guest.o
                0x445f6400                TB_readIOdBData
                0x445f6408                TB_writeIOdBData
 .bss           0x4465906c        0x8 ./out/CPU_B/GCC_guest_fuse.o
 .bss           0x44659074        0x8 ./out/CPU_B/GCC_guest_isolation.o
 .bss           0x4465907c       0x41 ./out/CPU_B/GCC_guest_outputport.o
                0x4465907c                g_OPTRESLTCNT
                0x4465909c                g_OPTRESLTCNTTEMP
 *fill*         0x446590bd        0x3 
 .bss           0x446590c0     0x2b9c ./out/CPU_B/GCC_guest_public.o
                0x446590c0                g_ISOInvoke
                0x446590c1                ISOLATION_STATE
                0x446590c2                TRACKSIDE_POWER_MISSING
                0x446590c3                TRACKSIDE_POWER_OVERAGE
                0x446590c4                FUSE_POWER_MISSING
                0x446590c5                g_RITInvoke
                0x446590c6                g_RITStart
                0x446590c7                g_ISOTInvoke
                0x446590c8                g_ISOTStart
                0x446590c9                g_ISOTFlag
                0x446590ca                g_TFTPBUFFULL
                0x446590cb                g_RITflag
                0x446590cc                g_TFTPERRBUFFULL
                0x446590d0                g_RunState
                0x446590d4                g_StartTest
                0x446590d6                g_TestStore
                0x446590d8                RITestStep
                0x446590d9                RITestPortID
                0x446590da                ISOTestStep
                0x446590db                FUSETestStep
                0x446590dc                WriteOffset
                0x446590e0                WriteFCodeOffset
                0x446590e4                g_ParaAddr
                0x446590e8                g_TFTPBUF
                0x44659d04                g_TFTPBUF_HAND
                0x44659d0f                g_TFTPERRBUF
                0x4465a544                Snakebody
                0x4465a744                g_CFGAddr
                0x4465a748                g_Sem
                0x4465a758                g_Usr_Cfg_A
                0x4465a768                g_Usr_Cfg_B
                0x4465a778                GUEST_TEST_V_brokenSafetyFlags
                0x4465a7b8                VitalStamp
 .bss           0x4465bc5c        0x1 ./out/CPU_B/GCC_guest_readback.o
 *fill*         0x4465bc5d        0x3 
 .bss           0x4465bc60        0x0 ./out/CPU_B/GCC_crc_result.o
 *(COMMON)
 *(.sbss)
 *(SCOMMON)
                0x4465bc60                . = ALIGN (0x4)
                0x4465bc60                __BSS_EXT_SDRAM_DATA_MIDDLE = .

.uninitialized_data_extram_dca
                0x4465bc60    0xa1aa8 load address 0x206f4750
                0x4465bc60                __DCA_UNINIT_SECTION_START = .
 *(.udata_dca)
 .udata_dca     0x4465bc60       0x10 ./out/CPU_B/GCC_can.o
                0x4465bc60                CAN_V_TaskInfo
 .udata_dca     0x4465bc70        0x1 ./out/CPU_B/GCC_can_ard.o
 .udata_dca     0x4465bc71        0xa ./out/CPU_B/GCC_can_config.o
                0x4465bc71                CAN_CONF_V_DefaultConf
 *fill*         0x4465bc7b        0x1 
 .udata_dca     0x4465bc7c       0x20 ./out/CPU_B/GCC_can_od.o
                0x4465bc7c                CAN_OD_V_ComObject
 .udata_dca     0x4465bc9c       0x54 ./out/CPU_B/GCC_can_saddle.o
 .udata_dca     0x4465bcf0      0x6b8 ./out/CPU_B/GCC_CONF_local.o
                0x4465bcf0                CONF_LOCAL_V_ElectronicStampFileDescriptor
                0x4465bd10                CONF_LOCAL_V_pMyConfBuffer
                0x4465bd14                CONF_LOCAL_V_LastIpConfiguration
                0x4465bd6c                CONF_LOCAL_V_ReprogConfIpFile
 .udata_dca     0x4465c3a8       0x70 ./out/CPU_B/GCC_FILESYS_int.o
                0x4465c3a8                FILESYS_INT_SRC_V_CopySourceDesc
 .udata_dca     0x4465c418      0x258 ./out/CPU_B/GCC_RECORD_pda.o
                0x4465c418                RECORD_PDA_V_ReserveAreaCstInfo
 .udata_dca     0x4465c670      0x944 ./out/CPU_B/GCC_Schedule_launcher.o
 .udata_dca     0x4465cfb4       0xd8 ./out/CPU_B/GCC_Schedule_utl.o
                0x4465cfcc                SCHED_UTL_V_UserData
 .udata_dca     0x4465d08c      0x32c ./out/CPU_B/GCC_VOTE_tsk.o
                0x4465d08c                VOTE_V_SubscribeInfo
 .udata_dca     0x4465d3b8       0x28 ./out/CPU_B/GCC_Drv_Fec_Lib.o
                0x4465d3b8                IPS_FECDRV_V_Management
 .udata_dca     0x4465d3e0       0x14 ./out/CPU_B/GCC_GM_PROSTACK_Can.o
                0x4465d3e0                IPC_CAN_V_Ip
                0x4465d3e4                IPC_CAN_V_SubNet
                0x4465d3e8                GM_PROS_CAN_V_Param
 .udata_dca     0x4465d3f4       0x1c ./out/CPU_B/GCC_GM_PROSTACK_Eth.o
                0x4465d3f4                GM_PROS_ETH_V_Param
 .udata_dca     0x4465d410      0x28c ./out/CPU_B/GCC_GM_PROSTACK_Ip.o
                0x4465d410                GM_PROS_IP_V_ParamIp
                0x4465d694                GM_PROS_IP_V_ParamMem
 .udata_dca     0x4465d69c       0x5e ./out/CPU_B/GCC_GM_PROSTACK_Ip_tsk.o
                0x4465d69c                GM_PROS_IP_TSK_V_Management
 *fill*         0x4465d6fa        0x2 
 .udata_dca     0x4465d6fc        0xc ./out/CPU_B/GCC_GM_PROSTACK_Vote.o
                0x4465d6fc                GM_PROS_VOTE_V_Param
 .udata_dca     0x4465d708    0xa0000 ./out/CPU_B/GCC_guest.o
                0x446fd708                . = ALIGN (0x4)
                0x446fd708                __DCA_UNINIT_SECTION_END = .

.uninitialized_data_extram_no_memtest
                0x446fd708    0x335c8 load address 0x207961f8
                0x446fd708                __NO_TEST_UNINIT_SECTION_START = .
 *(.udata_no_memtest)
 .udata_no_memtest
                0x446fd708        0x4 ./out/CPU_B/GCC_BIT.o
                0x446fd708                BIT_V_LocalLiveMemTestSignature
 .udata_no_memtest
                0x446fd70c      0x248 ./out/CPU_B/GCC_print.o
 .udata_no_memtest
                0x446fd954      0x248 ./out/CPU_B/GCC_VOTE_com.o
 .udata_no_memtest
                0x446fdb9c    0x20980 ./out/CPU_B/GCC_VOTE_tsk.o
                0x446fdb9c                VOTE_TSK_V_MsgPoolHigh
                0x447000dc                VOTE_TSK_V_MsgPoolStd
                0x447095dc                VOTE_TSK_V_MsgPoolGuest
                0x44712adc                VOTE_TSK_V_MsgPoolIpstack
                0x4471bfdc                VOTE_TSK_V_MsgPoolLog
 .udata_no_memtest
                0x4471e51c    0x10330 ./out/CPU_B/GCC_Drv_Fec_Lib.o
 .udata_no_memtest
                0x4472e84c     0x2484 ./out/CPU_B/GCC_Drv_Uart_Vote.o
                0x4472e84c                VOTE_DRV_V_Buffer
                0x44730cd0                . = ALIGN (0x4)
                0x44730cd0                __NO_TEST_UNINIT_SECTION_END = .
                0x44730cd0                __BSS_EXT_SDRAM_DATA_END = .
                0x81000000                __VECTOR_RAM = ADDR (.vector_ram)
                0x81000400                __VECTOR_RAM_END = (__VECTOR_RAM + 0x400)
                0x00000000                __SDRAM = 0x0
                0x81000000                __SRAM = ADDR (.sram)
                0x81000000                ___SRAM = __SRAM
                0x44000000                __EXT_SDRAM_DATA = ADDR (.ext_sdram_data)
                0x40000000                __EXT_SDRAM_CODE = ADDR (.ext_sdram_code)
                0x81000500                __SRAM_CODE = ADDR (.sram_code)
                0x20000000                __EXT_FLASH = ADDR (.ext_flash)
                0x20000000                ___EXT_FLASH = __EXT_FLASH
                0x200a1e24                __EXT_FLASH_END_USE = (__CONST_EXT_FLASH_START + (__CONST_EXT_SDRAM_CODE_END - __CONST_EXT_SDRAM_CODE_START))
                0x200a1e24                ___EXT_FLASH_END_USE = __EXT_FLASH_END_USE
                0x81010000                __SP_INIT = ___SP_INIT
                0x20320000                __EXT_FLASH_ES = ADDR (.ext_flash_ES)
                0x81000000                __SRAM = ___SRAM
                0x8100fc00                __SP_END = ___SP_END
OUTPUT(./out/CPU_B/VCU_GCC_CPU_B_ROM_GUEST_NOETH.elf elf32-m68k)

.debug_line     0x00000000    0x2988e
 .debug_line    0x00000000       0x53 ./out/CPU_B/GCC_mstep_isr.o
 .debug_line    0x00000053       0x5e ./out/CPU_B/GCC_wdg_irq_handler.o
 .debug_line    0x000000b1      0x150 ./out/CPU_B/GCC_Drv_Sha1_Functions_Asm.o
 .debug_line    0x00000201       0x91 ./out/CPU_B/GCC_Drv_Can_Isr_Asm.o
 .debug_line    0x00000292       0x73 ./out/CPU_B/GCC_Drv_Fec_Isr_Asm.o
 .debug_line    0x00000305       0x99 ./out/CPU_B/GCC_Drv_Timer_Isr_Asm.o
 .debug_line    0x0000039e       0x86 ./out/CPU_B/GCC_Drv_Uart_Vote_Isr_Asm.o
 .debug_line    0x00000424       0x73 ./out/CPU_B/GCC_VCU_Exception_Asm.o
 .debug_line    0x00000497       0x55 ./out/CPU_B/GCC_VCU_Start_Asm.o
 .debug_line    0x000004ec       0x7c ./out/CPU_B/GCC_mcf5xxx_lo.o
 .debug_line    0x00000568       0x7b ./out/CPU_B/GCC_coldfire_cache.o
 .debug_line    0x000005e3       0x7c ./out/CPU_B/GCC_entry.o
 .debug_line    0x0000065f       0x79 ./out/CPU_B/GCC_os_cpu_a.o
 .debug_line    0x000006d8      0x773 ./out/CPU_B/GCC_mstep.o
 .debug_line    0x00000e4b      0x85d ./out/CPU_B/GCC_BIT.o
 .debug_line    0x000016a8      0x4a4 ./out/CPU_B/GCC_BIT_fuse.o
 .debug_line    0x00001b4c      0x54c ./out/CPU_B/GCC_BIT_survey.o
 .debug_line    0x00002098      0x631 ./out/CPU_B/GCC_can.o
 .debug_line    0x000026c9      0x408 ./out/CPU_B/GCC_can_ard.o
 .debug_line    0x00002ad1      0x2c0 ./out/CPU_B/GCC_can_config.o
 .debug_line    0x00002d91      0x1ad ./out/CPU_B/GCC_can_emcy.o
 .debug_line    0x00002f3e      0x58c ./out/CPU_B/GCC_can_od.o
 .debug_line    0x000034ca      0x189 ./out/CPU_B/GCC_can_odplug.o
 .debug_line    0x00003653      0x703 ./out/CPU_B/GCC_can_open.o
 .debug_line    0x00003d56      0x313 ./out/CPU_B/GCC_can_saddle.o
 .debug_line    0x00004069      0x5a3 ./out/CPU_B/GCC_can_safety.o
 .debug_line    0x0000460c      0xf99 ./out/CPU_B/GCC_can_sdo.o
 .debug_line    0x000055a5      0x28d ./out/CPU_B/GCC_can_time.o
 .debug_line    0x00005832      0x298 ./out/CPU_B/GCC_CONF.o
 .debug_line    0x00005aca      0xa11 ./out/CPU_B/GCC_CONF_autho.o
 .debug_line    0x000064db      0x2a2 ./out/CPU_B/GCC_CONF_check.o
 .debug_line    0x0000677d      0x785 ./out/CPU_B/GCC_CONF_dataset.o
 .debug_line    0x00006f02      0x9a4 ./out/CPU_B/GCC_CONF_local.o
 .debug_line    0x000078a6      0x27f ./out/CPU_B/GCC_CONF_reconf.o
 .debug_line    0x00007b25      0x5ba ./out/CPU_B/GCC_CONF_src.o
 .debug_line    0x000080df      0x241 ./out/CPU_B/GCC_FCODE.o
 .debug_line    0x00008320      0xdc0 ./out/CPU_B/GCC_FILESYS.o
 .debug_line    0x000090e0      0x207 ./out/CPU_B/GCC_FILESYS_int.o
 .debug_line    0x000092e7      0x6f8 ./out/CPU_B/GCC_FILESYS_tftp.o
 .debug_line    0x000099df      0x186 ./out/CPU_B/GCC_Flash.o
 .debug_line    0x00009b65      0x44f ./out/CPU_B/GCC_Flash_Async.o
 .debug_line    0x00009fb4      0x289 ./out/CPU_B/GCC_Flash_Direct.o
 .debug_line    0x0000a23d      0x420 ./out/CPU_B/GCC_gdf.o
 .debug_line    0x0000a65d      0x20e ./out/CPU_B/GCC_gdf_dump_tools.o
 .debug_line    0x0000a86b      0x35f ./out/CPU_B/GCC_LZW.o
 .debug_line    0x0000abca      0x1a9 ./out/CPU_B/GCC_MATH.o
 .debug_line    0x0000ad73      0x8a5 ./out/CPU_B/GCC_osw.o
 .debug_line    0x0000b618      0x52a ./out/CPU_B/GCC_print.o
 .debug_line    0x0000bb42      0x33b ./out/CPU_B/GCC_RECORD.o
 .debug_line    0x0000be7d      0x42d ./out/CPU_B/GCC_RECORD_evt.o
 .debug_line    0x0000c2aa      0x6aa ./out/CPU_B/GCC_RECORD_pda.o
 .debug_line    0x0000c954      0x486 ./out/CPU_B/GCC_RECORD_sector.o
 .debug_line    0x0000cdda      0x459 ./out/CPU_B/GCC_RECORD_stat.o
 .debug_line    0x0000d233      0x2ae ./out/CPU_B/GCC_RECORD_utl.o
 .debug_line    0x0000d4e1      0x575 ./out/CPU_B/GCC_Schedule.o
 .debug_line    0x0000da56      0x269 ./out/CPU_B/GCC_Schedule_gentask.o
 .debug_line    0x0000dcbf      0x211 ./out/CPU_B/GCC_Schedule_gta.o
 .debug_line    0x0000ded0      0x646 ./out/CPU_B/GCC_Schedule_launcher.o
 .debug_line    0x0000e516      0x438 ./out/CPU_B/GCC_Schedule_utl.o
 .debug_line    0x0000e94e      0x10a ./out/CPU_B/GCC_VCU_Start.o
 .debug_line    0x0000ea58      0xa10 ./out/CPU_B/GCC_SDB.o
 .debug_line    0x0000f468      0x346 ./out/CPU_B/GCC_SDB_api.o
 .debug_line    0x0000f7ae      0x1d6 ./out/CPU_B/GCC_SDB_intercpu.o
 .debug_line    0x0000f984      0x402 ./out/CPU_B/GCC_SDB_ioplug.o
 .debug_line    0x0000fd86      0x3aa ./out/CPU_B/GCC_SDB_update.o
 .debug_line    0x00010130      0x2d2 ./out/CPU_B/GCC_SDB_updatelist.o
 .debug_line    0x00010402      0x532 ./out/CPU_B/GCC_std.o
 .debug_line    0x00010934      0x485 ./out/CPU_B/GCC_VOTE.o
 .debug_line    0x00010db9      0x5ad ./out/CPU_B/GCC_VOTE_com.o
 .debug_line    0x00011366      0x2b5 ./out/CPU_B/GCC_VOTE_tsk.o
 .debug_line    0x0001161b      0x3e9 ./out/CPU_B/GCC_wdg.o
 .debug_line    0x00011a04      0xf76 ./out/CPU_B/GCC_viv.o
 .debug_line    0x0001297a      0x148 ./out/CPU_B/GCC_Drv_CAU_Lib.o
 .debug_line    0x00012ac2      0x27c ./out/CPU_B/GCC_Drv_BID_Lib.o
 .debug_line    0x00012d3e      0x424 ./out/CPU_B/GCC_Drv_Boot_Module.o
 .debug_line    0x00013162      0x2ab ./out/CPU_B/GCC_Drv_Boot_Utils.o
 .debug_line    0x0001340d       0xdd ./out/CPU_B/GCC_Drv_Cache_Lib.o
 .debug_line    0x000134ea      0x175 ./out/CPU_B/GCC_Drv_Can_Isr.o
 .debug_line    0x0001365f      0xa25 ./out/CPU_B/GCC_Drv_Can_Lib.o
 .debug_line    0x00014084      0x709 ./out/CPU_B/GCC_Drv_Fec_Lib.o
 .debug_line    0x0001478d      0x320 ./out/CPU_B/GCC_Drv_Flash_Parallel_Lib.o
 .debug_line    0x00014aad      0x364 ./out/CPU_B/GCC_Drv_Flash_Spi_Lib.o
 .debug_line    0x00014e11      0x233 ./out/CPU_B/GCC_Drv_Gpio.o
 .debug_line    0x00015044       0x83 ./out/CPU_B/GCC_Drv_Led_Lib.o
 .debug_line    0x000150c7       0xb5 ./out/CPU_B/GCC_Drv_MMU_Lib.o
 .debug_line    0x0001517c       0xa6 ./out/CPU_B/GCC_Drv_SDRAM_Lib.o
 .debug_line    0x00015222      0x269 ./out/CPU_B/GCC_Drv_Spi_Lib.o
 .debug_line    0x0001548b      0x1c4 ./out/CPU_B/GCC_Drv_Timer_Lib.o
 .debug_line    0x0001564f      0x6d9 ./out/CPU_B/GCC_Drv_Uart_Vote.o
 .debug_line    0x00015d28      0x108 ./out/CPU_B/GCC_bsp.o
 .debug_line    0x00015e30      0x1fd ./out/CPU_B/GCC_exceptions.o
 .debug_line    0x0001602d      0x1b6 ./out/CPU_B/GCC_os_core.o
 .debug_line    0x000161e3      0x247 ./out/CPU_B/GCC_os_flag.o
 .debug_line    0x0001642a      0x234 ./out/CPU_B/GCC_os_hooks.o
 .debug_line    0x0001665e      0x279 ./out/CPU_B/GCC_os_mbox.o
 .debug_line    0x000168d7      0x2ab ./out/CPU_B/GCC_os_mem.o
 .debug_line    0x00016b82      0x25c ./out/CPU_B/GCC_os_mutex.o
 .debug_line    0x00016dde      0x275 ./out/CPU_B/GCC_os_q.o
 .debug_line    0x00017053      0x22b ./out/CPU_B/GCC_os_sem.o
 .debug_line    0x0001727e      0x314 ./out/CPU_B/GCC_os_task.o
 .debug_line    0x00017592      0x19e ./out/CPU_B/GCC_os_time.o
 .debug_line    0x00017730       0xd9 ./out/CPU_B/GCC_arch_cache.o
 .debug_line    0x00017809       0x8d ./out/CPU_B/GCC_core.o
 .debug_line    0x00017896      0x1bf ./out/CPU_B/GCC_coretask.o
 .debug_line    0x00017a55      0x2a1 ./out/CPU_B/GCC_idletaskcreate.o
 .debug_line    0x00017cf6        0x0 ./out/CPU_B/GCC_cache_disable_data.o
 .debug_line    0x00017cf6        0x0 ./out/CPU_B/GCC_cache_disable_instruction.o
 .debug_line    0x00017cf6        0x0 ./out/CPU_B/GCC_cache_enable_data.o
 .debug_line    0x00017cf6        0x0 ./out/CPU_B/GCC_cache_enable_instruction.o
 .debug_line    0x00017cf6        0x0 ./out/CPU_B/GCC_cache_flush_data.o
 .debug_line    0x00017cf6        0x0 ./out/CPU_B/GCC_cache_invalidate_data.o
 .debug_line    0x00017cf6        0x0 ./out/CPU_B/GCC_cache_invalidate_instruction.o
 .debug_line    0x00017cf6        0x0 ./out/CPU_B/GCC_counter.o
 .debug_line    0x00017cf6        0x0 ./out/CPU_B/GCC_counter_create.o
 .debug_line    0x00017cf6        0x0 ./out/CPU_B/GCC_counter_delete.o
 .debug_line    0x00017cf6        0x0 ./out/CPU_B/GCC_counter_increment.o
 .debug_line    0x00017cf6        0x0 ./out/CPU_B/GCC_counter_tick_get.o
 .debug_line    0x00017cf6        0x0 ./out/CPU_B/GCC_counter_tick_set.o
 .debug_line    0x00017cf6      0x26a ./out/CPU_B/GCC_event.o
 .debug_line    0x00017f60      0x366 ./out/CPU_B/GCC_event_clear.o
 .debug_line    0x000182c6      0x30c ./out/CPU_B/GCC_event_group_create.o
 .debug_line    0x000185d2      0x2fd ./out/CPU_B/GCC_event_group_delete.o
 .debug_line    0x000188cf      0x34a ./out/CPU_B/GCC_event_group_delete_force.o
 .debug_line    0x00018c19      0x2d9 ./out/CPU_B/GCC_event_group_info.o
 .debug_line    0x00018ef2      0x36e ./out/CPU_B/GCC_event_notify.o
 .debug_line    0x00019260      0x277 ./out/CPU_B/GCC_event_ready_get.o
 .debug_line    0x000194d7      0x364 ./out/CPU_B/GCC_event_set.o
 .debug_line    0x0001983b      0x2fe ./out/CPU_B/GCC_event_try_wait.o
 .debug_line    0x00019b39      0x370 ./out/CPU_B/GCC_event_wait.o
 .debug_line    0x00019ea9       0xeb ./out/CPU_B/GCC_fatal_error_raise.o
 .debug_line    0x00019f94      0x101 ./out/CPU_B/GCC_irq_is_enabled.o
 .debug_line    0x0001a095       0xfc ./out/CPU_B/GCC_irq_resume.o
 .debug_line    0x0001a191       0xfe ./out/CPU_B/GCC_irq_suspend.o
 .debug_line    0x0001a28f      0x1d8 ./out/CPU_B/GCC_isr.o
 .debug_line    0x0001a467      0x228 ./out/CPU_B/GCC_isr_enter.o
 .debug_line    0x0001a68f      0x24d ./out/CPU_B/GCC_isr_exit.o
 .debug_line    0x0001a8dc       0xa9 ./out/CPU_B/GCC_isr_level_get.o
 .debug_line    0x0001a985      0x261 ./out/CPU_B/GCC_mempart.o
 .debug_line    0x0001abe6      0x2c9 ./out/CPU_B/GCC_mempart_alloc.o
 .debug_line    0x0001aeaf      0x328 ./out/CPU_B/GCC_mempart_create.o
 .debug_line    0x0001b1d7      0x2c4 ./out/CPU_B/GCC_mempart_free.o
 .debug_line    0x0001b49b      0x2d1 ./out/CPU_B/GCC_mempart_info.o
 .debug_line    0x0001b76c      0x273 ./out/CPU_B/GCC_message_queue.o
 .debug_line    0x0001b9df      0x347 ./out/CPU_B/GCC_message_queue_broadcast.o
 .debug_line    0x0001bd26      0x32d ./out/CPU_B/GCC_message_queue_create.o
 .debug_line    0x0001c053      0x302 ./out/CPU_B/GCC_message_queue_delete.o
 .debug_line    0x0001c355      0x34f ./out/CPU_B/GCC_message_queue_delete_force.o
 .debug_line    0x0001c6a4      0x2d2 ./out/CPU_B/GCC_message_queue_flush.o
 .debug_line    0x0001c976      0x2e8 ./out/CPU_B/GCC_message_queue_info.o
 .debug_line    0x0001cc5e      0x33b ./out/CPU_B/GCC_message_queue_receive.o
 .debug_line    0x0001cf99      0x32e ./out/CPU_B/GCC_message_queue_send.o
 .debug_line    0x0001d2c7      0x334 ./out/CPU_B/GCC_message_queue_send_first.o
 .debug_line    0x0001d5fb      0x2e2 ./out/CPU_B/GCC_message_queue_try_receive.o
 .debug_line    0x0001d8dd      0x269 ./out/CPU_B/GCC_mutex.o
 .debug_line    0x0001db46      0x31a ./out/CPU_B/GCC_mutex_create.o
 .debug_line    0x0001de60      0x2eb ./out/CPU_B/GCC_mutex_delete.o
 .debug_line    0x0001e14b      0x378 ./out/CPU_B/GCC_mutex_delete_force.o
 .debug_line    0x0001e4c3      0x2f2 ./out/CPU_B/GCC_mutex_info.o
 .debug_line    0x0001e7b5      0x35a ./out/CPU_B/GCC_mutex_lock.o
 .debug_line    0x0001eb0f      0x2d3 ./out/CPU_B/GCC_mutex_try_lock.o
 .debug_line    0x0001ede2      0x35d ./out/CPU_B/GCC_mutex_unlock.o
 .debug_line    0x0001f13f       0xae ./out/CPU_B/GCC_os_init.o
 .debug_line    0x0001f1ed       0xaf ./out/CPU_B/GCC_os_safety_critical.o
 .debug_line    0x0001f29c      0x1fc ./out/CPU_B/GCC_os_shutdown.o
 .debug_line    0x0001f498      0x1fe ./out/CPU_B/GCC_os_start.o
 .debug_line    0x0001f696      0x21c ./out/CPU_B/GCC_sched_lock.o
 .debug_line    0x0001f8b2      0x248 ./out/CPU_B/GCC_sched_unlock.o
 .debug_line    0x0001fafa      0x270 ./out/CPU_B/GCC_semaphore.o
 .debug_line    0x0001fd6a      0x2d3 ./out/CPU_B/GCC_semaphore_count_get.o
 .debug_line    0x0002003d      0x2df ./out/CPU_B/GCC_semaphore_count_set.o
 .debug_line    0x0002031c      0x316 ./out/CPU_B/GCC_semaphore_create.o
 .debug_line    0x00020632      0x2ff ./out/CPU_B/GCC_semaphore_delete.o
 .debug_line    0x00020931      0x34c ./out/CPU_B/GCC_semaphore_delete_force.o
 .debug_line    0x00020c7d      0x326 ./out/CPU_B/GCC_semaphore_give.o
 .debug_line    0x00020fa3      0x2dd ./out/CPU_B/GCC_semaphore_info.o
 .debug_line    0x00021280      0x327 ./out/CPU_B/GCC_semaphore_take.o
 .debug_line    0x000215a7      0x2d8 ./out/CPU_B/GCC_semaphore_try_take.o
 .debug_line    0x0002187f      0x22f ./out/CPU_B/GCC_sys_tick.o
 .debug_line    0x00021aae      0x26d ./out/CPU_B/GCC_sys_tick_get.o
 .debug_line    0x00021d1b      0x2e5 ./out/CPU_B/GCC_sys_tick_increment.o
 .debug_line    0x00022000      0x26c ./out/CPU_B/GCC_sys_tick_set.o
 .debug_line    0x0002226c      0x31d ./out/CPU_B/GCC_task.o
 .debug_line    0x00022589      0x2c1 ./out/CPU_B/GCC_task_check_idle_stack.o
 .debug_line    0x0002284a      0x2e3 ./out/CPU_B/GCC_task_check_stack.o
 .debug_line    0x00022b2d      0x389 ./out/CPU_B/GCC_task_create.o
 .debug_line    0x00022eb6      0x2a3 ./out/CPU_B/GCC_task_delay.o
 .debug_line    0x00023159      0x300 ./out/CPU_B/GCC_task_delay_cancel.o
 .debug_line    0x00023459      0x329 ./out/CPU_B/GCC_task_delete.o
 .debug_line    0x00023782      0x2ae ./out/CPU_B/GCC_task_get_by_priority.o
 .debug_line    0x00023a30      0x2bc ./out/CPU_B/GCC_task_get_priority.o
 .debug_line    0x00023cec      0x2c2 ./out/CPU_B/GCC_task_info.o
 .debug_line    0x00023fae      0x2ec ./out/CPU_B/GCC_task_resume.o
 .debug_line    0x0002429a      0x32b ./out/CPU_B/GCC_task_set_priority.o
 .debug_line    0x000245c5      0x29d ./out/CPU_B/GCC_task_statis_info.o
 .debug_line    0x00024862      0x26c ./out/CPU_B/GCC_task_statis_init.o
 .debug_line    0x00024ace      0x2ed ./out/CPU_B/GCC_task_suspend.o
 .debug_line    0x00024dbb        0x0 ./out/CPU_B/GCC_timer.o
 .debug_line    0x00024dbb        0x0 ./out/CPU_B/GCC_timer_cancel.o
 .debug_line    0x00024dbb        0x0 ./out/CPU_B/GCC_timer_create.o
 .debug_line    0x00024dbb        0x0 ./out/CPU_B/GCC_timer_delete.o
 .debug_line    0x00024dbb        0x0 ./out/CPU_B/GCC_timer_set_abs.o
 .debug_line    0x00024dbb        0x0 ./out/CPU_B/GCC_timer_set_rel.o
 .debug_line    0x00024dbb      0x333 ./out/CPU_B/GCC_os_cpu_c.o
 .debug_line    0x000250ee      0x103 ./out/CPU_B/GCC_GM_Mathlib.o
 .debug_line    0x000251f1      0x610 ./out/CPU_B/GCC_GM_PROSTACK_Arp.o
 .debug_line    0x00025801      0x26b ./out/CPU_B/GCC_GM_PROSTACK_Can.o
 .debug_line    0x00025a6c      0x369 ./out/CPU_B/GCC_GM_PROSTACK_Cop.o
 .debug_line    0x00025dd5      0x3ca ./out/CPU_B/GCC_GM_PROSTACK_Eth.o
 .debug_line    0x0002619f      0x246 ./out/CPU_B/GCC_GM_PROSTACK_Icmp.o
 .debug_line    0x000263e5      0x7cc ./out/CPU_B/GCC_GM_PROSTACK_Ip.o
 .debug_line    0x00026bb1      0x98e ./out/CPU_B/GCC_GM_PROSTACK_Ip_tsk.o
 .debug_line    0x0002753f      0x642 ./out/CPU_B/GCC_GM_PROSTACK_Udp.o
 .debug_line    0x00027b81      0x258 ./out/CPU_B/GCC_GM_PROSTACK_Vote.o
 .debug_line    0x00027dd9      0x8f6 ./out/CPU_B/GCC_GM_Tftp.o
 .debug_line    0x000286cf      0x408 ./out/CPU_B/GCC_guest.o
 .debug_line    0x00028ad7      0x11f ./out/CPU_B/GCC_guest_fuse.o
 .debug_line    0x00028bf6      0x16b ./out/CPU_B/GCC_guest_isolation.o
 .debug_line    0x00028d61      0x2b3 ./out/CPU_B/GCC_guest_outputport.o
 .debug_line    0x00029014      0x5c6 ./out/CPU_B/GCC_guest_public.o
 .debug_line    0x000295da      0x2b4 ./out/CPU_B/GCC_guest_readback.o

.debug_info     0x00000000    0x8b9ff
 .debug_info    0x00000000       0x53 ./out/CPU_B/GCC_mstep_isr.o
 .debug_info    0x00000053       0x59 ./out/CPU_B/GCC_wdg_irq_handler.o
 .debug_info    0x000000ac       0x6c ./out/CPU_B/GCC_Drv_Sha1_Functions_Asm.o
 .debug_info    0x00000118       0x5d ./out/CPU_B/GCC_Drv_Can_Isr_Asm.o
 .debug_info    0x00000175       0x5d ./out/CPU_B/GCC_Drv_Fec_Isr_Asm.o
 .debug_info    0x000001d2       0x5f ./out/CPU_B/GCC_Drv_Timer_Isr_Asm.o
 .debug_info    0x00000231       0x63 ./out/CPU_B/GCC_Drv_Uart_Vote_Isr_Asm.o
 .debug_info    0x00000294       0x5b ./out/CPU_B/GCC_VCU_Exception_Asm.o
 .debug_info    0x000002ef       0x5b ./out/CPU_B/GCC_VCU_Start_Asm.o
 .debug_info    0x0000034a       0x54 ./out/CPU_B/GCC_mcf5xxx_lo.o
 .debug_info    0x0000039e       0x77 ./out/CPU_B/GCC_coldfire_cache.o
 .debug_info    0x00000415       0x6e ./out/CPU_B/GCC_entry.o
 .debug_info    0x00000483       0x55 ./out/CPU_B/GCC_os_cpu_a.o
 .debug_info    0x000004d8     0x2878 ./out/CPU_B/GCC_mstep.o
 .debug_info    0x00002d50     0x1e65 ./out/CPU_B/GCC_BIT.o
 .debug_info    0x00004bb5      0xb87 ./out/CPU_B/GCC_BIT_fuse.o
 .debug_info    0x0000573c     0x114a ./out/CPU_B/GCC_BIT_survey.o
 .debug_info    0x00006886     0x1acd ./out/CPU_B/GCC_can.o
 .debug_info    0x00008353     0x1090 ./out/CPU_B/GCC_can_ard.o
 .debug_info    0x000093e3      0xd9e ./out/CPU_B/GCC_can_config.o
 .debug_info    0x0000a181      0x55b ./out/CPU_B/GCC_can_emcy.o
 .debug_info    0x0000a6dc     0x1b84 ./out/CPU_B/GCC_can_od.o
 .debug_info    0x0000c260      0x5e6 ./out/CPU_B/GCC_can_odplug.o
 .debug_info    0x0000c846     0x14f3 ./out/CPU_B/GCC_can_open.o
 .debug_info    0x0000dd39      0x7fa ./out/CPU_B/GCC_can_saddle.o
 .debug_info    0x0000e533     0x1952 ./out/CPU_B/GCC_can_safety.o
 .debug_info    0x0000fe85     0x20c9 ./out/CPU_B/GCC_can_sdo.o
 .debug_info    0x00011f4e      0x718 ./out/CPU_B/GCC_can_time.o
 .debug_info    0x00012666      0xf2b ./out/CPU_B/GCC_CONF.o
 .debug_info    0x00013591     0x3095 ./out/CPU_B/GCC_CONF_autho.o
 .debug_info    0x00016626      0xb73 ./out/CPU_B/GCC_CONF_check.o
 .debug_info    0x00017199     0x242d ./out/CPU_B/GCC_CONF_dataset.o
 .debug_info    0x000195c6     0x363c ./out/CPU_B/GCC_CONF_local.o
 .debug_info    0x0001cc02     0x11a8 ./out/CPU_B/GCC_CONF_reconf.o
 .debug_info    0x0001ddaa     0x1f1c ./out/CPU_B/GCC_CONF_src.o
 .debug_info    0x0001fcc6      0x694 ./out/CPU_B/GCC_FCODE.o
 .debug_info    0x0002035a     0x2b91 ./out/CPU_B/GCC_FILESYS.o
 .debug_info    0x00022eeb     0x1141 ./out/CPU_B/GCC_FILESYS_int.o
 .debug_info    0x0002402c     0x1e4d ./out/CPU_B/GCC_FILESYS_tftp.o
 .debug_info    0x00025e79      0x86b ./out/CPU_B/GCC_Flash.o
 .debug_info    0x000266e4     0x106e ./out/CPU_B/GCC_Flash_Async.o
 .debug_info    0x00027752      0x9ac ./out/CPU_B/GCC_Flash_Direct.o
 .debug_info    0x000280fe      0xd98 ./out/CPU_B/GCC_gdf.o
 .debug_info    0x00028e96      0x7d3 ./out/CPU_B/GCC_gdf_dump_tools.o
 .debug_info    0x00029669      0xc02 ./out/CPU_B/GCC_LZW.o
 .debug_info    0x0002a26b      0x466 ./out/CPU_B/GCC_MATH.o
 .debug_info    0x0002a6d1     0x1c23 ./out/CPU_B/GCC_osw.o
 .debug_info    0x0002c2f4      0xf20 ./out/CPU_B/GCC_print.o
 .debug_info    0x0002d214      0x7b3 ./out/CPU_B/GCC_RECORD.o
 .debug_info    0x0002d9c7      0xca0 ./out/CPU_B/GCC_RECORD_evt.o
 .debug_info    0x0002e667      0xf61 ./out/CPU_B/GCC_RECORD_pda.o
 .debug_info    0x0002f5c8      0xbf4 ./out/CPU_B/GCC_RECORD_sector.o
 .debug_info    0x000301bc     0x125c ./out/CPU_B/GCC_RECORD_stat.o
 .debug_info    0x00031418      0x796 ./out/CPU_B/GCC_RECORD_utl.o
 .debug_info    0x00031bae     0x1e79 ./out/CPU_B/GCC_Schedule.o
 .debug_info    0x00033a27      0xa09 ./out/CPU_B/GCC_Schedule_gentask.o
 .debug_info    0x00034430      0x670 ./out/CPU_B/GCC_Schedule_gta.o
 .debug_info    0x00034aa0     0x1087 ./out/CPU_B/GCC_Schedule_launcher.o
 .debug_info    0x00035b27     0x1305 ./out/CPU_B/GCC_Schedule_utl.o
 .debug_info    0x00036e2c      0x38b ./out/CPU_B/GCC_VCU_Start.o
 .debug_info    0x000371b7     0x250d ./out/CPU_B/GCC_SDB.o
 .debug_info    0x000396c4      0xf7c ./out/CPU_B/GCC_SDB_api.o
 .debug_info    0x0003a640      0x746 ./out/CPU_B/GCC_SDB_intercpu.o
 .debug_info    0x0003ad86      0xf5b ./out/CPU_B/GCC_SDB_ioplug.o
 .debug_info    0x0003bce1      0xf65 ./out/CPU_B/GCC_SDB_update.o
 .debug_info    0x0003cc46      0x809 ./out/CPU_B/GCC_SDB_updatelist.o
 .debug_info    0x0003d44f      0xce8 ./out/CPU_B/GCC_std.o
 .debug_info    0x0003e137     0x126b ./out/CPU_B/GCC_VOTE.o
 .debug_info    0x0003f3a2     0x1761 ./out/CPU_B/GCC_VOTE_com.o
 .debug_info    0x00040b03      0xe34 ./out/CPU_B/GCC_VOTE_tsk.o
 .debug_info    0x00041937     0x1359 ./out/CPU_B/GCC_wdg.o
 .debug_info    0x00042c90     0x2a0f ./out/CPU_B/GCC_viv.o
 .debug_info    0x0004569f      0x47e ./out/CPU_B/GCC_Drv_CAU_Lib.o
 .debug_info    0x00045b1d     0x12cf ./out/CPU_B/GCC_Drv_BID_Lib.o
 .debug_info    0x00046dec      0xb39 ./out/CPU_B/GCC_Drv_Boot_Module.o
 .debug_info    0x00047925      0x695 ./out/CPU_B/GCC_Drv_Boot_Utils.o
 .debug_info    0x00047fba      0x380 ./out/CPU_B/GCC_Drv_Cache_Lib.o
 .debug_info    0x0004833a      0x3a0 ./out/CPU_B/GCC_Drv_Can_Isr.o
 .debug_info    0x000486da     0x1edc ./out/CPU_B/GCC_Drv_Can_Lib.o
 .debug_info    0x0004a5b6     0x1a0d ./out/CPU_B/GCC_Drv_Fec_Lib.o
 .debug_info    0x0004bfc3      0xef0 ./out/CPU_B/GCC_Drv_Flash_Parallel_Lib.o
 .debug_info    0x0004ceb3      0xd2d ./out/CPU_B/GCC_Drv_Flash_Spi_Lib.o
 .debug_info    0x0004dbe0      0x94b ./out/CPU_B/GCC_Drv_Gpio.o
 .debug_info    0x0004e52b      0x119 ./out/CPU_B/GCC_Drv_Led_Lib.o
 .debug_info    0x0004e644      0x14f ./out/CPU_B/GCC_Drv_MMU_Lib.o
 .debug_info    0x0004e793       0xde ./out/CPU_B/GCC_Drv_SDRAM_Lib.o
 .debug_info    0x0004e871      0x602 ./out/CPU_B/GCC_Drv_Spi_Lib.o
 .debug_info    0x0004ee73      0x5ee ./out/CPU_B/GCC_Drv_Timer_Lib.o
 .debug_info    0x0004f461      0xbed ./out/CPU_B/GCC_Drv_Uart_Vote.o
 .debug_info    0x0005004e      0x371 ./out/CPU_B/GCC_bsp.o
 .debug_info    0x000503bf      0x522 ./out/CPU_B/GCC_exceptions.o
 .debug_info    0x000508e1      0x4be ./out/CPU_B/GCC_os_core.o
 .debug_info    0x00050d9f      0x682 ./out/CPU_B/GCC_os_flag.o
 .debug_info    0x00051421      0x7e1 ./out/CPU_B/GCC_os_hooks.o
 .debug_info    0x00051c02      0x71b ./out/CPU_B/GCC_os_mbox.o
 .debug_info    0x0005231d      0x74b ./out/CPU_B/GCC_os_mem.o
 .debug_info    0x00052a68      0x68a ./out/CPU_B/GCC_os_mutex.o
 .debug_info    0x000530f2      0x7d0 ./out/CPU_B/GCC_os_q.o
 .debug_info    0x000538c2      0x666 ./out/CPU_B/GCC_os_sem.o
 .debug_info    0x00053f28      0xb84 ./out/CPU_B/GCC_os_task.o
 .debug_info    0x00054aac      0x3e3 ./out/CPU_B/GCC_os_time.o
 .debug_info    0x00054e8f      0x188 ./out/CPU_B/GCC_arch_cache.o
 .debug_info    0x00055017       0xe2 ./out/CPU_B/GCC_core.o
 .debug_info    0x000550f9      0x4fb ./out/CPU_B/GCC_coretask.o
 .debug_info    0x000555f4      0x8ac ./out/CPU_B/GCC_idletaskcreate.o
 .debug_info    0x00055ea0      0x6d5 ./out/CPU_B/GCC_event.o
 .debug_info    0x00056575      0x9e5 ./out/CPU_B/GCC_event_clear.o
 .debug_info    0x00056f5a      0x889 ./out/CPU_B/GCC_event_group_create.o
 .debug_info    0x000577e3      0x853 ./out/CPU_B/GCC_event_group_delete.o
 .debug_info    0x00058036      0x9ce ./out/CPU_B/GCC_event_group_delete_force.o
 .debug_info    0x00058a04      0x774 ./out/CPU_B/GCC_event_group_info.o
 .debug_info    0x00059178      0x9f3 ./out/CPU_B/GCC_event_notify.o
 .debug_info    0x00059b6b      0x68c ./out/CPU_B/GCC_event_ready_get.o
 .debug_info    0x0005a1f7      0x9e5 ./out/CPU_B/GCC_event_set.o
 .debug_info    0x0005abdc      0x7a8 ./out/CPU_B/GCC_event_try_wait.o
 .debug_info    0x0005b384      0x994 ./out/CPU_B/GCC_event_wait.o
 .debug_info    0x0005bd18       0x94 ./out/CPU_B/GCC_fatal_error_raise.o
 .debug_info    0x0005bdac       0x70 ./out/CPU_B/GCC_irq_is_enabled.o
 .debug_info    0x0005be1c       0x7b ./out/CPU_B/GCC_irq_resume.o
 .debug_info    0x0005be97       0x70 ./out/CPU_B/GCC_irq_suspend.o
 .debug_info    0x0005bf07      0x55e ./out/CPU_B/GCC_isr.o
 .debug_info    0x0005c465      0x5f9 ./out/CPU_B/GCC_isr_enter.o
 .debug_info    0x0005ca5e      0x6cd ./out/CPU_B/GCC_isr_exit.o
 .debug_info    0x0005d12b       0x4d ./out/CPU_B/GCC_isr_level_get.o
 .debug_info    0x0005d178      0x6ea ./out/CPU_B/GCC_mempart.o
 .debug_info    0x0005d862      0x777 ./out/CPU_B/GCC_mempart_alloc.o
 .debug_info    0x0005dfd9      0x8ce ./out/CPU_B/GCC_mempart_create.o
 .debug_info    0x0005e8a7      0x763 ./out/CPU_B/GCC_mempart_free.o
 .debug_info    0x0005f00a      0x7c5 ./out/CPU_B/GCC_mempart_info.o
 .debug_info    0x0005f7cf      0x721 ./out/CPU_B/GCC_message_queue.o
 .debug_info    0x0005fef0      0x9b2 ./out/CPU_B/GCC_message_queue_broadcast.o
 .debug_info    0x000608a2      0x8d9 ./out/CPU_B/GCC_message_queue_create.o
 .debug_info    0x0006117b      0x8b9 ./out/CPU_B/GCC_message_queue_delete.o
 .debug_info    0x00061a34      0xa31 ./out/CPU_B/GCC_message_queue_delete_force.o
 .debug_info    0x00062465      0x78c ./out/CPU_B/GCC_message_queue_flush.o
 .debug_info    0x00062bf1      0x7d8 ./out/CPU_B/GCC_message_queue_info.o
 .debug_info    0x000633c9      0x945 ./out/CPU_B/GCC_message_queue_receive.o
 .debug_info    0x00063d0e      0x96f ./out/CPU_B/GCC_message_queue_send.o
 .debug_info    0x0006467d      0x96f ./out/CPU_B/GCC_message_queue_send_first.o
 .debug_info    0x00064fec      0x79a ./out/CPU_B/GCC_message_queue_try_receive.o
 .debug_info    0x00065786      0x6ed ./out/CPU_B/GCC_mutex.o
 .debug_info    0x00065e73      0x889 ./out/CPU_B/GCC_mutex_create.o
 .debug_info    0x000666fc      0x836 ./out/CPU_B/GCC_mutex_delete.o
 .debug_info    0x00066f32      0xaee ./out/CPU_B/GCC_mutex_delete_force.o
 .debug_info    0x00067a20      0x7a3 ./out/CPU_B/GCC_mutex_info.o
 .debug_info    0x000681c3      0xa02 ./out/CPU_B/GCC_mutex_lock.o
 .debug_info    0x00068bc5      0x766 ./out/CPU_B/GCC_mutex_try_lock.o
 .debug_info    0x0006932b      0xa2c ./out/CPU_B/GCC_mutex_unlock.o
 .debug_info    0x00069d57       0xe1 ./out/CPU_B/GCC_os_init.o
 .debug_info    0x00069e38       0xe1 ./out/CPU_B/GCC_os_safety_critical.o
 .debug_info    0x00069f19      0x5ab ./out/CPU_B/GCC_os_shutdown.o
 .debug_info    0x0006a4c4      0x60d ./out/CPU_B/GCC_os_start.o
 .debug_info    0x0006aad1      0x5f9 ./out/CPU_B/GCC_sched_lock.o
 .debug_info    0x0006b0ca      0x6cd ./out/CPU_B/GCC_sched_unlock.o
 .debug_info    0x0006b797      0x6d5 ./out/CPU_B/GCC_semaphore.o
 .debug_info    0x0006be6c      0x74e ./out/CPU_B/GCC_semaphore_count_get.o
 .debug_info    0x0006c5ba      0x775 ./out/CPU_B/GCC_semaphore_count_set.o
 .debug_info    0x0006cd2f      0x871 ./out/CPU_B/GCC_semaphore_create.o
 .debug_info    0x0006d5a0      0x86d ./out/CPU_B/GCC_semaphore_delete.o
 .debug_info    0x0006de0d      0x9e5 ./out/CPU_B/GCC_semaphore_delete_force.o
 .debug_info    0x0006e7f2      0x915 ./out/CPU_B/GCC_semaphore_give.o
 .debug_info    0x0006f107      0x774 ./out/CPU_B/GCC_semaphore_info.o
 .debug_info    0x0006f87b      0x8eb ./out/CPU_B/GCC_semaphore_take.o
 .debug_info    0x00070166      0x75c ./out/CPU_B/GCC_semaphore_try_take.o
 .debug_info    0x000708c2      0x5f2 ./out/CPU_B/GCC_sys_tick.o
 .debug_info    0x00070eb4      0x689 ./out/CPU_B/GCC_sys_tick_get.o
 .debug_info    0x0007153d      0x86f ./out/CPU_B/GCC_sys_tick_increment.o
 .debug_info    0x00071dac      0x685 ./out/CPU_B/GCC_sys_tick_set.o
 .debug_info    0x00072431      0x89f ./out/CPU_B/GCC_task.o
 .debug_info    0x00072cd0      0x72f ./out/CPU_B/GCC_task_check_idle_stack.o
 .debug_info    0x000733ff      0x7bf ./out/CPU_B/GCC_task_check_stack.o
 .debug_info    0x00073bbe      0xbfa ./out/CPU_B/GCC_task_create.o
 .debug_info    0x000747b8      0x7ea ./out/CPU_B/GCC_task_delay.o
 .debug_info    0x00074fa2      0x868 ./out/CPU_B/GCC_task_delay_cancel.o
 .debug_info    0x0007580a      0x98f ./out/CPU_B/GCC_task_delete.o
 .debug_info    0x00076199      0x6b2 ./out/CPU_B/GCC_task_get_by_priority.o
 .debug_info    0x0007684b      0x743 ./out/CPU_B/GCC_task_get_priority.o
 .debug_info    0x00076f8e      0x793 ./out/CPU_B/GCC_task_info.o
 .debug_info    0x00077721      0x841 ./out/CPU_B/GCC_task_resume.o
 .debug_info    0x00077f62      0x972 ./out/CPU_B/GCC_task_set_priority.o
 .debug_info    0x000788d4      0x6ba ./out/CPU_B/GCC_task_statis_info.o
 .debug_info    0x00078f8e      0x694 ./out/CPU_B/GCC_task_statis_init.o
 .debug_info    0x00079622      0x841 ./out/CPU_B/GCC_task_suspend.o
 .debug_info    0x00079e63      0xd41 ./out/CPU_B/GCC_os_cpu_c.o
 .debug_info    0x0007aba4      0x1d4 ./out/CPU_B/GCC_GM_Mathlib.o
 .debug_info    0x0007ad78     0x12de ./out/CPU_B/GCC_GM_PROSTACK_Arp.o
 .debug_info    0x0007c056      0xe27 ./out/CPU_B/GCC_GM_PROSTACK_Can.o
 .debug_info    0x0007ce7d      0x96c ./out/CPU_B/GCC_GM_PROSTACK_Cop.o
 .debug_info    0x0007d7e9     0x1283 ./out/CPU_B/GCC_GM_PROSTACK_Eth.o
 .debug_info    0x0007ea6c      0xdc8 ./out/CPU_B/GCC_GM_PROSTACK_Icmp.o
 .debug_info    0x0007f834     0x19e3 ./out/CPU_B/GCC_GM_PROSTACK_Ip.o
 .debug_info    0x00081217     0x214c ./out/CPU_B/GCC_GM_PROSTACK_Ip_tsk.o
 .debug_info    0x00083363     0x1739 ./out/CPU_B/GCC_GM_PROSTACK_Udp.o
 .debug_info    0x00084a9c      0xdb0 ./out/CPU_B/GCC_GM_PROSTACK_Vote.o
 .debug_info    0x0008584c     0x1792 ./out/CPU_B/GCC_GM_Tftp.o
 .debug_info    0x00086fde     0x16cd ./out/CPU_B/GCC_guest.o
 .debug_info    0x000886ab      0x62a ./out/CPU_B/GCC_guest_fuse.o
 .debug_info    0x00088cd5      0x6ab ./out/CPU_B/GCC_guest_isolation.o
 .debug_info    0x00089380      0x96d ./out/CPU_B/GCC_guest_outputport.o
 .debug_info    0x00089ced     0x14b6 ./out/CPU_B/GCC_guest_public.o
 .debug_info    0x0008b1a3      0x85c ./out/CPU_B/GCC_guest_readback.o

.debug_abbrev   0x00000000    0x1496f
 .debug_abbrev  0x00000000       0x14 ./out/CPU_B/GCC_mstep_isr.o
 .debug_abbrev  0x00000014       0x14 ./out/CPU_B/GCC_wdg_irq_handler.o
 .debug_abbrev  0x00000028       0x14 ./out/CPU_B/GCC_Drv_Sha1_Functions_Asm.o
 .debug_abbrev  0x0000003c       0x14 ./out/CPU_B/GCC_Drv_Can_Isr_Asm.o
 .debug_abbrev  0x00000050       0x14 ./out/CPU_B/GCC_Drv_Fec_Isr_Asm.o
 .debug_abbrev  0x00000064       0x14 ./out/CPU_B/GCC_Drv_Timer_Isr_Asm.o
 .debug_abbrev  0x00000078       0x14 ./out/CPU_B/GCC_Drv_Uart_Vote_Isr_Asm.o
 .debug_abbrev  0x0000008c       0x12 ./out/CPU_B/GCC_VCU_Exception_Asm.o
 .debug_abbrev  0x0000009e       0x14 ./out/CPU_B/GCC_VCU_Start_Asm.o
 .debug_abbrev  0x000000b2       0x12 ./out/CPU_B/GCC_mcf5xxx_lo.o
 .debug_abbrev  0x000000c4       0x14 ./out/CPU_B/GCC_coldfire_cache.o
 .debug_abbrev  0x000000d8       0x14 ./out/CPU_B/GCC_entry.o
 .debug_abbrev  0x000000ec       0x12 ./out/CPU_B/GCC_os_cpu_a.o
 .debug_abbrev  0x000000fe      0x2b9 ./out/CPU_B/GCC_mstep.o
 .debug_abbrev  0x000003b7      0x2c0 ./out/CPU_B/GCC_BIT.o
 .debug_abbrev  0x00000677      0x1f0 ./out/CPU_B/GCC_BIT_fuse.o
 .debug_abbrev  0x00000867      0x203 ./out/CPU_B/GCC_BIT_survey.o
 .debug_abbrev  0x00000a6a      0x2b1 ./out/CPU_B/GCC_can.o
 .debug_abbrev  0x00000d1b      0x20e ./out/CPU_B/GCC_can_ard.o
 .debug_abbrev  0x00000f29      0x1f9 ./out/CPU_B/GCC_can_config.o
 .debug_abbrev  0x00001122      0x131 ./out/CPU_B/GCC_can_emcy.o
 .debug_abbrev  0x00001253      0x1ec ./out/CPU_B/GCC_can_od.o
 .debug_abbrev  0x0000143f      0x129 ./out/CPU_B/GCC_can_odplug.o
 .debug_abbrev  0x00001568      0x232 ./out/CPU_B/GCC_can_open.o
 .debug_abbrev  0x0000179a      0x1de ./out/CPU_B/GCC_can_saddle.o
 .debug_abbrev  0x00001978      0x287 ./out/CPU_B/GCC_can_safety.o
 .debug_abbrev  0x00001bff      0x1cc ./out/CPU_B/GCC_can_sdo.o
 .debug_abbrev  0x00001dcb      0x267 ./out/CPU_B/GCC_can_time.o
 .debug_abbrev  0x00002032      0x21a ./out/CPU_B/GCC_CONF.o
 .debug_abbrev  0x0000224c      0x286 ./out/CPU_B/GCC_CONF_autho.o
 .debug_abbrev  0x000024d2      0x17c ./out/CPU_B/GCC_CONF_check.o
 .debug_abbrev  0x0000264e      0x21e ./out/CPU_B/GCC_CONF_dataset.o
 .debug_abbrev  0x0000286c      0x27b ./out/CPU_B/GCC_CONF_local.o
 .debug_abbrev  0x00002ae7      0x1e8 ./out/CPU_B/GCC_CONF_reconf.o
 .debug_abbrev  0x00002ccf      0x254 ./out/CPU_B/GCC_CONF_src.o
 .debug_abbrev  0x00002f23      0x197 ./out/CPU_B/GCC_FCODE.o
 .debug_abbrev  0x000030ba      0x278 ./out/CPU_B/GCC_FILESYS.o
 .debug_abbrev  0x00003332      0x1bf ./out/CPU_B/GCC_FILESYS_int.o
 .debug_abbrev  0x000034f1      0x297 ./out/CPU_B/GCC_FILESYS_tftp.o
 .debug_abbrev  0x00003788      0x107 ./out/CPU_B/GCC_Flash.o
 .debug_abbrev  0x0000388f      0x23b ./out/CPU_B/GCC_Flash_Async.o
 .debug_abbrev  0x00003aca      0x138 ./out/CPU_B/GCC_Flash_Direct.o
 .debug_abbrev  0x00003c02      0x242 ./out/CPU_B/GCC_gdf.o
 .debug_abbrev  0x00003e44      0x1a5 ./out/CPU_B/GCC_gdf_dump_tools.o
 .debug_abbrev  0x00003fe9      0x220 ./out/CPU_B/GCC_LZW.o
 .debug_abbrev  0x00004209      0x185 ./out/CPU_B/GCC_MATH.o
 .debug_abbrev  0x0000438e      0x285 ./out/CPU_B/GCC_osw.o
 .debug_abbrev  0x00004613      0x2aa ./out/CPU_B/GCC_print.o
 .debug_abbrev  0x000048bd      0x1c0 ./out/CPU_B/GCC_RECORD.o
 .debug_abbrev  0x00004a7d      0x226 ./out/CPU_B/GCC_RECORD_evt.o
 .debug_abbrev  0x00004ca3      0x2a9 ./out/CPU_B/GCC_RECORD_pda.o
 .debug_abbrev  0x00004f4c      0x1b8 ./out/CPU_B/GCC_RECORD_sector.o
 .debug_abbrev  0x00005104      0x266 ./out/CPU_B/GCC_RECORD_stat.o
 .debug_abbrev  0x0000536a      0x1b7 ./out/CPU_B/GCC_RECORD_utl.o
 .debug_abbrev  0x00005521      0x29c ./out/CPU_B/GCC_Schedule.o
 .debug_abbrev  0x000057bd      0x187 ./out/CPU_B/GCC_Schedule_gentask.o
 .debug_abbrev  0x00005944      0x150 ./out/CPU_B/GCC_Schedule_gta.o
 .debug_abbrev  0x00005a94      0x1df ./out/CPU_B/GCC_Schedule_launcher.o
 .debug_abbrev  0x00005c73      0x29c ./out/CPU_B/GCC_Schedule_utl.o
 .debug_abbrev  0x00005f0f       0xce ./out/CPU_B/GCC_VCU_Start.o
 .debug_abbrev  0x00005fdd      0x280 ./out/CPU_B/GCC_SDB.o
 .debug_abbrev  0x0000625d      0x213 ./out/CPU_B/GCC_SDB_api.o
 .debug_abbrev  0x00006470      0x145 ./out/CPU_B/GCC_SDB_intercpu.o
 .debug_abbrev  0x000065b5      0x218 ./out/CPU_B/GCC_SDB_ioplug.o
 .debug_abbrev  0x000067cd      0x1ba ./out/CPU_B/GCC_SDB_update.o
 .debug_abbrev  0x00006987      0x188 ./out/CPU_B/GCC_SDB_updatelist.o
 .debug_abbrev  0x00006b0f      0x216 ./out/CPU_B/GCC_std.o
 .debug_abbrev  0x00006d25      0x228 ./out/CPU_B/GCC_VOTE.o
 .debug_abbrev  0x00006f4d      0x2d4 ./out/CPU_B/GCC_VOTE_com.o
 .debug_abbrev  0x00007221      0x205 ./out/CPU_B/GCC_VOTE_tsk.o
 .debug_abbrev  0x00007426      0x24d ./out/CPU_B/GCC_wdg.o
 .debug_abbrev  0x00007673      0x296 ./out/CPU_B/GCC_viv.o
 .debug_abbrev  0x00007909       0xee ./out/CPU_B/GCC_Drv_CAU_Lib.o
 .debug_abbrev  0x000079f7      0x1bf ./out/CPU_B/GCC_Drv_BID_Lib.o
 .debug_abbrev  0x00007bb6      0x183 ./out/CPU_B/GCC_Drv_Boot_Module.o
 .debug_abbrev  0x00007d39      0x217 ./out/CPU_B/GCC_Drv_Boot_Utils.o
 .debug_abbrev  0x00007f50       0xc7 ./out/CPU_B/GCC_Drv_Cache_Lib.o
 .debug_abbrev  0x00008017       0xbd ./out/CPU_B/GCC_Drv_Can_Isr.o
 .debug_abbrev  0x000080d4      0x270 ./out/CPU_B/GCC_Drv_Can_Lib.o
 .debug_abbrev  0x00008344      0x2bb ./out/CPU_B/GCC_Drv_Fec_Lib.o
 .debug_abbrev  0x000085ff      0x1e6 ./out/CPU_B/GCC_Drv_Flash_Parallel_Lib.o
 .debug_abbrev  0x000087e5      0x1bc ./out/CPU_B/GCC_Drv_Flash_Spi_Lib.o
 .debug_abbrev  0x000089a1      0x17f ./out/CPU_B/GCC_Drv_Gpio.o
 .debug_abbrev  0x00008b20       0x75 ./out/CPU_B/GCC_Drv_Led_Lib.o
 .debug_abbrev  0x00008b95       0xa0 ./out/CPU_B/GCC_Drv_MMU_Lib.o
 .debug_abbrev  0x00008c35       0x6a ./out/CPU_B/GCC_Drv_SDRAM_Lib.o
 .debug_abbrev  0x00008c9f      0x18f ./out/CPU_B/GCC_Drv_Spi_Lib.o
 .debug_abbrev  0x00008e2e       0xd0 ./out/CPU_B/GCC_Drv_Timer_Lib.o
 .debug_abbrev  0x00008efe      0x297 ./out/CPU_B/GCC_Drv_Uart_Vote.o
 .debug_abbrev  0x00009195       0xc9 ./out/CPU_B/GCC_bsp.o
 .debug_abbrev  0x0000925e       0xfe ./out/CPU_B/GCC_exceptions.o
 .debug_abbrev  0x0000935c      0x13c ./out/CPU_B/GCC_os_core.o
 .debug_abbrev  0x00009498      0x19a ./out/CPU_B/GCC_os_flag.o
 .debug_abbrev  0x00009632      0x128 ./out/CPU_B/GCC_os_hooks.o
 .debug_abbrev  0x0000975a      0x180 ./out/CPU_B/GCC_os_mbox.o
 .debug_abbrev  0x000098da      0x1c3 ./out/CPU_B/GCC_os_mem.o
 .debug_abbrev  0x00009a9d      0x17c ./out/CPU_B/GCC_os_mutex.o
 .debug_abbrev  0x00009c19      0x180 ./out/CPU_B/GCC_os_q.o
 .debug_abbrev  0x00009d99      0x16d ./out/CPU_B/GCC_os_sem.o
 .debug_abbrev  0x00009f06      0x1aa ./out/CPU_B/GCC_os_task.o
 .debug_abbrev  0x0000a0b0       0xf4 ./out/CPU_B/GCC_os_time.o
 .debug_abbrev  0x0000a1a4       0x83 ./out/CPU_B/GCC_arch_cache.o
 .debug_abbrev  0x0000a227       0x72 ./out/CPU_B/GCC_core.o
 .debug_abbrev  0x0000a299       0xdc ./out/CPU_B/GCC_coretask.o
 .debug_abbrev  0x0000a375      0x1e0 ./out/CPU_B/GCC_idletaskcreate.o
 .debug_abbrev  0x0000a555      0x185 ./out/CPU_B/GCC_event.o
 .debug_abbrev  0x0000a6da      0x21e ./out/CPU_B/GCC_event_clear.o
 .debug_abbrev  0x0000a8f8      0x1c6 ./out/CPU_B/GCC_event_group_create.o
 .debug_abbrev  0x0000aabe      0x1c6 ./out/CPU_B/GCC_event_group_delete.o
 .debug_abbrev  0x0000ac84      0x20b ./out/CPU_B/GCC_event_group_delete_force.o
 .debug_abbrev  0x0000ae8f      0x1b0 ./out/CPU_B/GCC_event_group_info.o
 .debug_abbrev  0x0000b03f      0x21e ./out/CPU_B/GCC_event_notify.o
 .debug_abbrev  0x0000b25d      0x185 ./out/CPU_B/GCC_event_ready_get.o
 .debug_abbrev  0x0000b3e2      0x21e ./out/CPU_B/GCC_event_set.o
 .debug_abbrev  0x0000b600      0x1b0 ./out/CPU_B/GCC_event_try_wait.o
 .debug_abbrev  0x0000b7b0      0x1f5 ./out/CPU_B/GCC_event_wait.o
 .debug_abbrev  0x0000b9a5       0x53 ./out/CPU_B/GCC_fatal_error_raise.o
 .debug_abbrev  0x0000b9f8       0x71 ./out/CPU_B/GCC_irq_is_enabled.o
 .debug_abbrev  0x0000ba69       0x6f ./out/CPU_B/GCC_irq_resume.o
 .debug_abbrev  0x0000bad8       0x71 ./out/CPU_B/GCC_irq_suspend.o
 .debug_abbrev  0x0000bb49      0x101 ./out/CPU_B/GCC_isr.o
 .debug_abbrev  0x0000bc4a      0x174 ./out/CPU_B/GCC_isr_enter.o
 .debug_abbrev  0x0000bdbe      0x1ac ./out/CPU_B/GCC_isr_exit.o
 .debug_abbrev  0x0000bf6a       0x4a ./out/CPU_B/GCC_isr_level_get.o
 .debug_abbrev  0x0000bfb4      0x17e ./out/CPU_B/GCC_mempart.o
 .debug_abbrev  0x0000c132      0x1a9 ./out/CPU_B/GCC_mempart_alloc.o
 .debug_abbrev  0x0000c2db      0x1bf ./out/CPU_B/GCC_mempart_create.o
 .debug_abbrev  0x0000c49a      0x1a9 ./out/CPU_B/GCC_mempart_free.o
 .debug_abbrev  0x0000c643      0x1a9 ./out/CPU_B/GCC_mempart_info.o
 .debug_abbrev  0x0000c7ec      0x185 ./out/CPU_B/GCC_message_queue.o
 .debug_abbrev  0x0000c971      0x1f5 ./out/CPU_B/GCC_message_queue_broadcast.o
 .debug_abbrev  0x0000cb66      0x1c6 ./out/CPU_B/GCC_message_queue_create.o
 .debug_abbrev  0x0000cd2c      0x1c6 ./out/CPU_B/GCC_message_queue_delete.o
 .debug_abbrev  0x0000cef2      0x20b ./out/CPU_B/GCC_message_queue_delete_force.o
 .debug_abbrev  0x0000d0fd      0x1b0 ./out/CPU_B/GCC_message_queue_flush.o
 .debug_abbrev  0x0000d2ad      0x1b0 ./out/CPU_B/GCC_message_queue_info.o
 .debug_abbrev  0x0000d45d      0x1b0 ./out/CPU_B/GCC_message_queue_receive.o
 .debug_abbrev  0x0000d60d      0x1f5 ./out/CPU_B/GCC_message_queue_send.o
 .debug_abbrev  0x0000d802      0x1f5 ./out/CPU_B/GCC_message_queue_send_first.o
 .debug_abbrev  0x0000d9f7      0x1b0 ./out/CPU_B/GCC_message_queue_try_receive.o
 .debug_abbrev  0x0000dba7      0x185 ./out/CPU_B/GCC_mutex.o
 .debug_abbrev  0x0000dd2c      0x1c6 ./out/CPU_B/GCC_mutex_create.o
 .debug_abbrev  0x0000def2      0x1c6 ./out/CPU_B/GCC_mutex_delete.o
 .debug_abbrev  0x0000e0b8      0x20b ./out/CPU_B/GCC_mutex_delete_force.o
 .debug_abbrev  0x0000e2c3      0x1b0 ./out/CPU_B/GCC_mutex_info.o
 .debug_abbrev  0x0000e473      0x1e6 ./out/CPU_B/GCC_mutex_lock.o
 .debug_abbrev  0x0000e659      0x1b0 ./out/CPU_B/GCC_mutex_try_lock.o
 .debug_abbrev  0x0000e809      0x1f5 ./out/CPU_B/GCC_mutex_unlock.o
 .debug_abbrev  0x0000e9fe       0x81 ./out/CPU_B/GCC_os_init.o
 .debug_abbrev  0x0000ea7f       0x81 ./out/CPU_B/GCC_os_safety_critical.o
 .debug_abbrev  0x0000eb00      0x12c ./out/CPU_B/GCC_os_shutdown.o
 .debug_abbrev  0x0000ec2c      0x160 ./out/CPU_B/GCC_os_start.o
 .debug_abbrev  0x0000ed8c      0x174 ./out/CPU_B/GCC_sched_lock.o
 .debug_abbrev  0x0000ef00      0x1ac ./out/CPU_B/GCC_sched_unlock.o
 .debug_abbrev  0x0000f0ac      0x185 ./out/CPU_B/GCC_semaphore.o
 .debug_abbrev  0x0000f231      0x1b0 ./out/CPU_B/GCC_semaphore_count_get.o
 .debug_abbrev  0x0000f3e1      0x1b0 ./out/CPU_B/GCC_semaphore_count_set.o
 .debug_abbrev  0x0000f591      0x1c6 ./out/CPU_B/GCC_semaphore_create.o
 .debug_abbrev  0x0000f757      0x1c6 ./out/CPU_B/GCC_semaphore_delete.o
 .debug_abbrev  0x0000f91d      0x20b ./out/CPU_B/GCC_semaphore_delete_force.o
 .debug_abbrev  0x0000fb28      0x1f5 ./out/CPU_B/GCC_semaphore_give.o
 .debug_abbrev  0x0000fd1d      0x1b0 ./out/CPU_B/GCC_semaphore_info.o
 .debug_abbrev  0x0000fecd      0x1b0 ./out/CPU_B/GCC_semaphore_take.o
 .debug_abbrev  0x0001007d      0x1b0 ./out/CPU_B/GCC_semaphore_try_take.o
 .debug_abbrev  0x0001022d      0x101 ./out/CPU_B/GCC_sys_tick.o
 .debug_abbrev  0x0001032e      0x185 ./out/CPU_B/GCC_sys_tick_get.o
 .debug_abbrev  0x000104b3      0x1ef ./out/CPU_B/GCC_sys_tick_increment.o
 .debug_abbrev  0x000106a2      0x183 ./out/CPU_B/GCC_sys_tick_set.o
 .debug_abbrev  0x00010825      0x1c0 ./out/CPU_B/GCC_task.o
 .debug_abbrev  0x000109e5      0x1ae ./out/CPU_B/GCC_task_check_idle_stack.o
 .debug_abbrev  0x00010b93      0x1b0 ./out/CPU_B/GCC_task_check_stack.o
 .debug_abbrev  0x00010d43      0x1c6 ./out/CPU_B/GCC_task_create.o
 .debug_abbrev  0x00010f09      0x1e4 ./out/CPU_B/GCC_task_delay.o
 .debug_abbrev  0x000110ed      0x1e6 ./out/CPU_B/GCC_task_delay_cancel.o
 .debug_abbrev  0x000112d3      0x20b ./out/CPU_B/GCC_task_delete.o
 .debug_abbrev  0x000114de      0x185 ./out/CPU_B/GCC_task_get_by_priority.o
 .debug_abbrev  0x00011663      0x1b0 ./out/CPU_B/GCC_task_get_priority.o
 .debug_abbrev  0x00011813      0x1b0 ./out/CPU_B/GCC_task_info.o
 .debug_abbrev  0x000119c3      0x1b0 ./out/CPU_B/GCC_task_resume.o
 .debug_abbrev  0x00011b73      0x1e6 ./out/CPU_B/GCC_task_set_priority.o
 .debug_abbrev  0x00011d59      0x185 ./out/CPU_B/GCC_task_statis_info.o
 .debug_abbrev  0x00011ede      0x185 ./out/CPU_B/GCC_task_statis_init.o
 .debug_abbrev  0x00012063      0x1b0 ./out/CPU_B/GCC_task_suspend.o
 .debug_abbrev  0x00012213      0x2e2 ./out/CPU_B/GCC_os_cpu_c.o
 .debug_abbrev  0x000124f5       0xcd ./out/CPU_B/GCC_GM_Mathlib.o
 .debug_abbrev  0x000125c2      0x25d ./out/CPU_B/GCC_GM_PROSTACK_Arp.o
 .debug_abbrev  0x0001281f      0x20c ./out/CPU_B/GCC_GM_PROSTACK_Can.o
 .debug_abbrev  0x00012a2b      0x206 ./out/CPU_B/GCC_GM_PROSTACK_Cop.o
 .debug_abbrev  0x00012c31      0x254 ./out/CPU_B/GCC_GM_PROSTACK_Eth.o
 .debug_abbrev  0x00012e85      0x1b5 ./out/CPU_B/GCC_GM_PROSTACK_Icmp.o
 .debug_abbrev  0x0001303a      0x2c2 ./out/CPU_B/GCC_GM_PROSTACK_Ip.o
 .debug_abbrev  0x000132fc      0x309 ./out/CPU_B/GCC_GM_PROSTACK_Ip_tsk.o
 .debug_abbrev  0x00013605      0x277 ./out/CPU_B/GCC_GM_PROSTACK_Udp.o
 .debug_abbrev  0x0001387c      0x252 ./out/CPU_B/GCC_GM_PROSTACK_Vote.o
 .debug_abbrev  0x00013ace      0x2ab ./out/CPU_B/GCC_GM_Tftp.o
 .debug_abbrev  0x00013d79      0x286 ./out/CPU_B/GCC_guest.o
 .debug_abbrev  0x00013fff      0x181 ./out/CPU_B/GCC_guest_fuse.o
 .debug_abbrev  0x00014180      0x169 ./out/CPU_B/GCC_guest_isolation.o
 .debug_abbrev  0x000142e9      0x221 ./out/CPU_B/GCC_guest_outputport.o
 .debug_abbrev  0x0001450a      0x283 ./out/CPU_B/GCC_guest_public.o
 .debug_abbrev  0x0001478d      0x1e2 ./out/CPU_B/GCC_guest_readback.o

.debug_aranges  0x00000000     0x1a60
 .debug_aranges
                0x00000000       0x20 ./out/CPU_B/GCC_mstep_isr.o
 .debug_aranges
                0x00000020       0x20 ./out/CPU_B/GCC_wdg_irq_handler.o
 .debug_aranges
                0x00000040       0x20 ./out/CPU_B/GCC_Drv_Sha1_Functions_Asm.o
 .debug_aranges
                0x00000060       0x20 ./out/CPU_B/GCC_Drv_Can_Isr_Asm.o
 .debug_aranges
                0x00000080       0x20 ./out/CPU_B/GCC_Drv_Fec_Isr_Asm.o
 .debug_aranges
                0x000000a0       0x20 ./out/CPU_B/GCC_Drv_Timer_Isr_Asm.o
 .debug_aranges
                0x000000c0       0x20 ./out/CPU_B/GCC_Drv_Uart_Vote_Isr_Asm.o
 .debug_aranges
                0x000000e0       0x28 ./out/CPU_B/GCC_VCU_Exception_Asm.o
 .debug_aranges
                0x00000108       0x20 ./out/CPU_B/GCC_VCU_Start_Asm.o
 .debug_aranges
                0x00000128       0x28 ./out/CPU_B/GCC_mcf5xxx_lo.o
 .debug_aranges
                0x00000150       0x20 ./out/CPU_B/GCC_coldfire_cache.o
 .debug_aranges
                0x00000170       0x20 ./out/CPU_B/GCC_entry.o
 .debug_aranges
                0x00000190       0x28 ./out/CPU_B/GCC_os_cpu_a.o
 .debug_aranges
                0x000001b8       0x20 ./out/CPU_B/GCC_mstep.o
 .debug_aranges
                0x000001d8       0x20 ./out/CPU_B/GCC_BIT.o
 .debug_aranges
                0x000001f8       0x20 ./out/CPU_B/GCC_BIT_fuse.o
 .debug_aranges
                0x00000218       0x20 ./out/CPU_B/GCC_BIT_survey.o
 .debug_aranges
                0x00000238       0x20 ./out/CPU_B/GCC_can.o
 .debug_aranges
                0x00000258       0x20 ./out/CPU_B/GCC_can_ard.o
 .debug_aranges
                0x00000278       0x20 ./out/CPU_B/GCC_can_config.o
 .debug_aranges
                0x00000298       0x20 ./out/CPU_B/GCC_can_emcy.o
 .debug_aranges
                0x000002b8       0x20 ./out/CPU_B/GCC_can_od.o
 .debug_aranges
                0x000002d8       0x20 ./out/CPU_B/GCC_can_odplug.o
 .debug_aranges
                0x000002f8       0x20 ./out/CPU_B/GCC_can_open.o
 .debug_aranges
                0x00000318       0x20 ./out/CPU_B/GCC_can_saddle.o
 .debug_aranges
                0x00000338       0x20 ./out/CPU_B/GCC_can_safety.o
 .debug_aranges
                0x00000358       0x20 ./out/CPU_B/GCC_can_sdo.o
 .debug_aranges
                0x00000378       0x20 ./out/CPU_B/GCC_can_time.o
 .debug_aranges
                0x00000398       0x20 ./out/CPU_B/GCC_CONF.o
 .debug_aranges
                0x000003b8       0x20 ./out/CPU_B/GCC_CONF_autho.o
 .debug_aranges
                0x000003d8       0x20 ./out/CPU_B/GCC_CONF_check.o
 .debug_aranges
                0x000003f8       0x20 ./out/CPU_B/GCC_CONF_dataset.o
 .debug_aranges
                0x00000418       0x20 ./out/CPU_B/GCC_CONF_local.o
 .debug_aranges
                0x00000438       0x20 ./out/CPU_B/GCC_CONF_reconf.o
 .debug_aranges
                0x00000458       0x20 ./out/CPU_B/GCC_CONF_src.o
 .debug_aranges
                0x00000478       0x20 ./out/CPU_B/GCC_FCODE.o
 .debug_aranges
                0x00000498       0x20 ./out/CPU_B/GCC_FILESYS.o
 .debug_aranges
                0x000004b8       0x20 ./out/CPU_B/GCC_FILESYS_int.o
 .debug_aranges
                0x000004d8       0x20 ./out/CPU_B/GCC_FILESYS_tftp.o
 .debug_aranges
                0x000004f8       0x20 ./out/CPU_B/GCC_Flash.o
 .debug_aranges
                0x00000518       0x20 ./out/CPU_B/GCC_Flash_Async.o
 .debug_aranges
                0x00000538       0x20 ./out/CPU_B/GCC_Flash_Direct.o
 .debug_aranges
                0x00000558       0x20 ./out/CPU_B/GCC_gdf.o
 .debug_aranges
                0x00000578       0x20 ./out/CPU_B/GCC_gdf_dump_tools.o
 .debug_aranges
                0x00000598       0x20 ./out/CPU_B/GCC_LZW.o
 .debug_aranges
                0x000005b8       0x20 ./out/CPU_B/GCC_MATH.o
 .debug_aranges
                0x000005d8       0x20 ./out/CPU_B/GCC_osw.o
 .debug_aranges
                0x000005f8       0x20 ./out/CPU_B/GCC_print.o
 .debug_aranges
                0x00000618       0x20 ./out/CPU_B/GCC_RECORD.o
 .debug_aranges
                0x00000638       0x20 ./out/CPU_B/GCC_RECORD_evt.o
 .debug_aranges
                0x00000658       0x20 ./out/CPU_B/GCC_RECORD_pda.o
 .debug_aranges
                0x00000678       0x20 ./out/CPU_B/GCC_RECORD_sector.o
 .debug_aranges
                0x00000698       0x20 ./out/CPU_B/GCC_RECORD_stat.o
 .debug_aranges
                0x000006b8       0x20 ./out/CPU_B/GCC_RECORD_utl.o
 .debug_aranges
                0x000006d8       0x20 ./out/CPU_B/GCC_Schedule.o
 .debug_aranges
                0x000006f8       0x20 ./out/CPU_B/GCC_Schedule_gentask.o
 .debug_aranges
                0x00000718       0x20 ./out/CPU_B/GCC_Schedule_gta.o
 .debug_aranges
                0x00000738       0x20 ./out/CPU_B/GCC_Schedule_launcher.o
 .debug_aranges
                0x00000758       0x20 ./out/CPU_B/GCC_Schedule_utl.o
 .debug_aranges
                0x00000778       0x20 ./out/CPU_B/GCC_VCU_Start.o
 .debug_aranges
                0x00000798       0x20 ./out/CPU_B/GCC_SDB.o
 .debug_aranges
                0x000007b8       0x20 ./out/CPU_B/GCC_SDB_api.o
 .debug_aranges
                0x000007d8       0x20 ./out/CPU_B/GCC_SDB_intercpu.o
 .debug_aranges
                0x000007f8       0x20 ./out/CPU_B/GCC_SDB_ioplug.o
 .debug_aranges
                0x00000818       0x20 ./out/CPU_B/GCC_SDB_update.o
 .debug_aranges
                0x00000838       0x20 ./out/CPU_B/GCC_SDB_updatelist.o
 .debug_aranges
                0x00000858       0x20 ./out/CPU_B/GCC_std.o
 .debug_aranges
                0x00000878       0x20 ./out/CPU_B/GCC_VOTE.o
 .debug_aranges
                0x00000898       0x20 ./out/CPU_B/GCC_VOTE_com.o
 .debug_aranges
                0x000008b8       0x20 ./out/CPU_B/GCC_VOTE_tsk.o
 .debug_aranges
                0x000008d8       0x28 ./out/CPU_B/GCC_wdg.o
 .debug_aranges
                0x00000900       0x20 ./out/CPU_B/GCC_viv.o
 .debug_aranges
                0x00000920       0x20 ./out/CPU_B/GCC_Drv_CAU_Lib.o
 .debug_aranges
                0x00000940       0x20 ./out/CPU_B/GCC_Drv_BID_Lib.o
 .debug_aranges
                0x00000960       0x80 ./out/CPU_B/GCC_Drv_Boot_Module.o
 .debug_aranges
                0x000009e0       0x98 ./out/CPU_B/GCC_Drv_Boot_Utils.o
 .debug_aranges
                0x00000a78       0x30 ./out/CPU_B/GCC_Drv_Cache_Lib.o
 .debug_aranges
                0x00000aa8       0x20 ./out/CPU_B/GCC_Drv_Can_Isr.o
 .debug_aranges
                0x00000ac8       0x20 ./out/CPU_B/GCC_Drv_Can_Lib.o
 .debug_aranges
                0x00000ae8       0x20 ./out/CPU_B/GCC_Drv_Fec_Lib.o
 .debug_aranges
                0x00000b08       0x20 ./out/CPU_B/GCC_Drv_Flash_Parallel_Lib.o
 .debug_aranges
                0x00000b28       0x20 ./out/CPU_B/GCC_Drv_Flash_Spi_Lib.o
 .debug_aranges
                0x00000b48       0x20 ./out/CPU_B/GCC_Drv_Gpio.o
 .debug_aranges
                0x00000b68       0x20 ./out/CPU_B/GCC_Drv_Led_Lib.o
 .debug_aranges
                0x00000b88       0x20 ./out/CPU_B/GCC_Drv_MMU_Lib.o
 .debug_aranges
                0x00000ba8       0x20 ./out/CPU_B/GCC_Drv_SDRAM_Lib.o
 .debug_aranges
                0x00000bc8       0x20 ./out/CPU_B/GCC_Drv_Spi_Lib.o
 .debug_aranges
                0x00000be8       0x20 ./out/CPU_B/GCC_Drv_Timer_Lib.o
 .debug_aranges
                0x00000c08       0x20 ./out/CPU_B/GCC_Drv_Uart_Vote.o
 .debug_aranges
                0x00000c28       0x20 ./out/CPU_B/GCC_bsp.o
 .debug_aranges
                0x00000c48       0x28 ./out/CPU_B/GCC_exceptions.o
 .debug_aranges
                0x00000c70       0x20 ./out/CPU_B/GCC_os_core.o
 .debug_aranges
                0x00000c90       0x20 ./out/CPU_B/GCC_os_flag.o
 .debug_aranges
                0x00000cb0       0x50 ./out/CPU_B/GCC_os_hooks.o
 .debug_aranges
                0x00000d00       0x20 ./out/CPU_B/GCC_os_mbox.o
 .debug_aranges
                0x00000d20       0x20 ./out/CPU_B/GCC_os_mem.o
 .debug_aranges
                0x00000d40       0x20 ./out/CPU_B/GCC_os_mutex.o
 .debug_aranges
                0x00000d60       0x20 ./out/CPU_B/GCC_os_q.o
 .debug_aranges
                0x00000d80       0x20 ./out/CPU_B/GCC_os_sem.o
 .debug_aranges
                0x00000da0       0x20 ./out/CPU_B/GCC_os_task.o
 .debug_aranges
                0x00000dc0       0x20 ./out/CPU_B/GCC_os_time.o
 .debug_aranges
                0x00000de0       0x20 ./out/CPU_B/GCC_arch_cache.o
 .debug_aranges
                0x00000e00       0x18 ./out/CPU_B/GCC_core.o
 .debug_aranges
                0x00000e18       0x18 ./out/CPU_B/GCC_coretask.o
 .debug_aranges
                0x00000e30       0x20 ./out/CPU_B/GCC_idletaskcreate.o
 .debug_aranges
                0x00000e50       0x20 ./out/CPU_B/GCC_event.o
 .debug_aranges
                0x00000e70       0x20 ./out/CPU_B/GCC_event_clear.o
 .debug_aranges
                0x00000e90       0x20 ./out/CPU_B/GCC_event_group_create.o
 .debug_aranges
                0x00000eb0       0x20 ./out/CPU_B/GCC_event_group_delete.o
 .debug_aranges
                0x00000ed0       0x20 ./out/CPU_B/GCC_event_group_delete_force.o
 .debug_aranges
                0x00000ef0       0x20 ./out/CPU_B/GCC_event_group_info.o
 .debug_aranges
                0x00000f10       0x20 ./out/CPU_B/GCC_event_notify.o
 .debug_aranges
                0x00000f30       0x20 ./out/CPU_B/GCC_event_ready_get.o
 .debug_aranges
                0x00000f50       0x20 ./out/CPU_B/GCC_event_set.o
 .debug_aranges
                0x00000f70       0x20 ./out/CPU_B/GCC_event_try_wait.o
 .debug_aranges
                0x00000f90       0x20 ./out/CPU_B/GCC_event_wait.o
 .debug_aranges
                0x00000fb0       0x20 ./out/CPU_B/GCC_fatal_error_raise.o
 .debug_aranges
                0x00000fd0       0x20 ./out/CPU_B/GCC_irq_is_enabled.o
 .debug_aranges
                0x00000ff0       0x20 ./out/CPU_B/GCC_irq_resume.o
 .debug_aranges
                0x00001010       0x20 ./out/CPU_B/GCC_irq_suspend.o
 .debug_aranges
                0x00001030       0x20 ./out/CPU_B/GCC_isr.o
 .debug_aranges
                0x00001050       0x28 ./out/CPU_B/GCC_isr_enter.o
 .debug_aranges
                0x00001078       0x28 ./out/CPU_B/GCC_isr_exit.o
 .debug_aranges
                0x000010a0       0x20 ./out/CPU_B/GCC_isr_level_get.o
 .debug_aranges
                0x000010c0       0x20 ./out/CPU_B/GCC_mempart.o
 .debug_aranges
                0x000010e0       0x20 ./out/CPU_B/GCC_mempart_alloc.o
 .debug_aranges
                0x00001100       0x20 ./out/CPU_B/GCC_mempart_create.o
 .debug_aranges
                0x00001120       0x20 ./out/CPU_B/GCC_mempart_free.o
 .debug_aranges
                0x00001140       0x20 ./out/CPU_B/GCC_mempart_info.o
 .debug_aranges
                0x00001160       0x20 ./out/CPU_B/GCC_message_queue.o
 .debug_aranges
                0x00001180       0x20 ./out/CPU_B/GCC_message_queue_broadcast.o
 .debug_aranges
                0x000011a0       0x20 ./out/CPU_B/GCC_message_queue_create.o
 .debug_aranges
                0x000011c0       0x20 ./out/CPU_B/GCC_message_queue_delete.o
 .debug_aranges
                0x000011e0       0x20 ./out/CPU_B/GCC_message_queue_delete_force.o
 .debug_aranges
                0x00001200       0x20 ./out/CPU_B/GCC_message_queue_flush.o
 .debug_aranges
                0x00001220       0x20 ./out/CPU_B/GCC_message_queue_info.o
 .debug_aranges
                0x00001240       0x20 ./out/CPU_B/GCC_message_queue_receive.o
 .debug_aranges
                0x00001260       0x20 ./out/CPU_B/GCC_message_queue_send.o
 .debug_aranges
                0x00001280       0x20 ./out/CPU_B/GCC_message_queue_send_first.o
 .debug_aranges
                0x000012a0       0x20 ./out/CPU_B/GCC_message_queue_try_receive.o
 .debug_aranges
                0x000012c0       0x20 ./out/CPU_B/GCC_mutex.o
 .debug_aranges
                0x000012e0       0x20 ./out/CPU_B/GCC_mutex_create.o
 .debug_aranges
                0x00001300       0x20 ./out/CPU_B/GCC_mutex_delete.o
 .debug_aranges
                0x00001320       0x20 ./out/CPU_B/GCC_mutex_delete_force.o
 .debug_aranges
                0x00001340       0x20 ./out/CPU_B/GCC_mutex_info.o
 .debug_aranges
                0x00001360       0x20 ./out/CPU_B/GCC_mutex_lock.o
 .debug_aranges
                0x00001380       0x20 ./out/CPU_B/GCC_mutex_try_lock.o
 .debug_aranges
                0x000013a0       0x20 ./out/CPU_B/GCC_mutex_unlock.o
 .debug_aranges
                0x000013c0       0x20 ./out/CPU_B/GCC_os_init.o
 .debug_aranges
                0x000013e0       0x20 ./out/CPU_B/GCC_os_safety_critical.o
 .debug_aranges
                0x00001400       0x20 ./out/CPU_B/GCC_os_shutdown.o
 .debug_aranges
                0x00001420       0x20 ./out/CPU_B/GCC_os_start.o
 .debug_aranges
                0x00001440       0x20 ./out/CPU_B/GCC_sched_lock.o
 .debug_aranges
                0x00001460       0x20 ./out/CPU_B/GCC_sched_unlock.o
 .debug_aranges
                0x00001480       0x20 ./out/CPU_B/GCC_semaphore.o
 .debug_aranges
                0x000014a0       0x20 ./out/CPU_B/GCC_semaphore_count_get.o
 .debug_aranges
                0x000014c0       0x20 ./out/CPU_B/GCC_semaphore_count_set.o
 .debug_aranges
                0x000014e0       0x20 ./out/CPU_B/GCC_semaphore_create.o
 .debug_aranges
                0x00001500       0x20 ./out/CPU_B/GCC_semaphore_delete.o
 .debug_aranges
                0x00001520       0x20 ./out/CPU_B/GCC_semaphore_delete_force.o
 .debug_aranges
                0x00001540       0x20 ./out/CPU_B/GCC_semaphore_give.o
 .debug_aranges
                0x00001560       0x20 ./out/CPU_B/GCC_semaphore_info.o
 .debug_aranges
                0x00001580       0x20 ./out/CPU_B/GCC_semaphore_take.o
 .debug_aranges
                0x000015a0       0x20 ./out/CPU_B/GCC_semaphore_try_take.o
 .debug_aranges
                0x000015c0       0x20 ./out/CPU_B/GCC_sys_tick.o
 .debug_aranges
                0x000015e0       0x20 ./out/CPU_B/GCC_sys_tick_get.o
 .debug_aranges
                0x00001600       0x20 ./out/CPU_B/GCC_sys_tick_increment.o
 .debug_aranges
                0x00001620       0x20 ./out/CPU_B/GCC_sys_tick_set.o
 .debug_aranges
                0x00001640       0x20 ./out/CPU_B/GCC_task.o
 .debug_aranges
                0x00001660       0x20 ./out/CPU_B/GCC_task_check_idle_stack.o
 .debug_aranges
                0x00001680       0x20 ./out/CPU_B/GCC_task_check_stack.o
 .debug_aranges
                0x000016a0       0x20 ./out/CPU_B/GCC_task_create.o
 .debug_aranges
                0x000016c0       0x20 ./out/CPU_B/GCC_task_delay.o
 .debug_aranges
                0x000016e0       0x20 ./out/CPU_B/GCC_task_delay_cancel.o
 .debug_aranges
                0x00001700       0x20 ./out/CPU_B/GCC_task_delete.o
 .debug_aranges
                0x00001720       0x20 ./out/CPU_B/GCC_task_get_by_priority.o
 .debug_aranges
                0x00001740       0x20 ./out/CPU_B/GCC_task_get_priority.o
 .debug_aranges
                0x00001760       0x20 ./out/CPU_B/GCC_task_info.o
 .debug_aranges
                0x00001780       0x20 ./out/CPU_B/GCC_task_resume.o
 .debug_aranges
                0x000017a0       0x20 ./out/CPU_B/GCC_task_set_priority.o
 .debug_aranges
                0x000017c0       0x20 ./out/CPU_B/GCC_task_statis_info.o
 .debug_aranges
                0x000017e0       0x20 ./out/CPU_B/GCC_task_statis_init.o
 .debug_aranges
                0x00001800       0x20 ./out/CPU_B/GCC_task_suspend.o
 .debug_aranges
                0x00001820       0x20 ./out/CPU_B/GCC_os_cpu_c.o
 .debug_aranges
                0x00001840       0x20 ./out/CPU_B/GCC_GM_Mathlib.o
 .debug_aranges
                0x00001860       0x20 ./out/CPU_B/GCC_GM_PROSTACK_Arp.o
 .debug_aranges
                0x00001880       0x20 ./out/CPU_B/GCC_GM_PROSTACK_Can.o
 .debug_aranges
                0x000018a0       0x20 ./out/CPU_B/GCC_GM_PROSTACK_Cop.o
 .debug_aranges
                0x000018c0       0x20 ./out/CPU_B/GCC_GM_PROSTACK_Eth.o
 .debug_aranges
                0x000018e0       0x20 ./out/CPU_B/GCC_GM_PROSTACK_Icmp.o
 .debug_aranges
                0x00001900       0x20 ./out/CPU_B/GCC_GM_PROSTACK_Ip.o
 .debug_aranges
                0x00001920       0x20 ./out/CPU_B/GCC_GM_PROSTACK_Ip_tsk.o
 .debug_aranges
                0x00001940       0x20 ./out/CPU_B/GCC_GM_PROSTACK_Udp.o
 .debug_aranges
                0x00001960       0x20 ./out/CPU_B/GCC_GM_PROSTACK_Vote.o
 .debug_aranges
                0x00001980       0x20 ./out/CPU_B/GCC_GM_Tftp.o
 .debug_aranges
                0x000019a0       0x20 ./out/CPU_B/GCC_guest.o
 .debug_aranges
                0x000019c0       0x20 ./out/CPU_B/GCC_guest_fuse.o
 .debug_aranges
                0x000019e0       0x20 ./out/CPU_B/GCC_guest_isolation.o
 .debug_aranges
                0x00001a00       0x20 ./out/CPU_B/GCC_guest_outputport.o
 .debug_aranges
                0x00001a20       0x20 ./out/CPU_B/GCC_guest_public.o
 .debug_aranges
                0x00001a40       0x20 ./out/CPU_B/GCC_guest_readback.o

.debug_ranges   0x00000000      0x248
 .debug_ranges  0x00000000       0x20 ./out/CPU_B/GCC_VCU_Exception_Asm.o
 .debug_ranges  0x00000020       0x20 ./out/CPU_B/GCC_mcf5xxx_lo.o
 .debug_ranges  0x00000040       0x20 ./out/CPU_B/GCC_os_cpu_a.o
 .debug_ranges  0x00000060       0x10 ./out/CPU_B/GCC_VCU_Start.o
 .debug_ranges  0x00000070       0x18 ./out/CPU_B/GCC_wdg.o
 .debug_ranges  0x00000088       0x70 ./out/CPU_B/GCC_Drv_Boot_Module.o
 .debug_ranges  0x000000f8       0x88 ./out/CPU_B/GCC_Drv_Boot_Utils.o
 .debug_ranges  0x00000180       0x20 ./out/CPU_B/GCC_Drv_Cache_Lib.o
 .debug_ranges  0x000001a0       0x10 ./out/CPU_B/GCC_Drv_MMU_Lib.o
 .debug_ranges  0x000001b0       0x10 ./out/CPU_B/GCC_Drv_SDRAM_Lib.o
 .debug_ranges  0x000001c0       0x18 ./out/CPU_B/GCC_exceptions.o
 .debug_ranges  0x000001d8       0x40 ./out/CPU_B/GCC_os_hooks.o
 .debug_ranges  0x00000218       0x18 ./out/CPU_B/GCC_isr_enter.o
 .debug_ranges  0x00000230       0x18 ./out/CPU_B/GCC_isr_exit.o

.debug_str      0x00000000    0x206bb
 .debug_str     0x00000000     0x24fb ./out/CPU_B/GCC_mstep.o
                               0x275a (size before relaxing)
 .debug_str     0x000024fb      0xd06 ./out/CPU_B/GCC_BIT.o
                               0x1af2 (size before relaxing)
 .debug_str     0x00003201      0x54c ./out/CPU_B/GCC_BIT_fuse.o
                                0xdde (size before relaxing)
 .debug_str     0x0000374d      0xa6f ./out/CPU_B/GCC_BIT_survey.o
                               0x12e1 (size before relaxing)
 .debug_str     0x000041bc      0xa69 ./out/CPU_B/GCC_can.o
                               0x1d84 (size before relaxing)
 .debug_str     0x00004c25      0x43c ./out/CPU_B/GCC_can_ard.o
                               0x1205 (size before relaxing)
 .debug_str     0x00005061      0x3c5 ./out/CPU_B/GCC_can_config.o
                               0x1009 (size before relaxing)
 .debug_str     0x00005426       0xda ./out/CPU_B/GCC_can_emcy.o
                                0x79d (size before relaxing)
 .debug_str     0x00005500      0xc40 ./out/CPU_B/GCC_can_od.o
                               0x1a6d (size before relaxing)
 .debug_str     0x00006140       0xb5 ./out/CPU_B/GCC_can_odplug.o
                                0x8ab (size before relaxing)
 .debug_str     0x000061f5      0x8c7 ./out/CPU_B/GCC_can_open.o
                               0x14fa (size before relaxing)
 .debug_str     0x00006abc      0x22e ./out/CPU_B/GCC_can_saddle.o
                                0x88c (size before relaxing)
 .debug_str     0x00006cea      0x5fb ./out/CPU_B/GCC_can_safety.o
                               0x1a59 (size before relaxing)
 .debug_str     0x000072e5      0xb08 ./out/CPU_B/GCC_can_sdo.o
                               0x15c7 (size before relaxing)
 .debug_str     0x00007ded      0x2b5 ./out/CPU_B/GCC_can_time.o
                                0x94c (size before relaxing)
 .debug_str     0x000080a2      0x466 ./out/CPU_B/GCC_CONF.o
                               0x1350 (size before relaxing)
 .debug_str     0x00008508     0x1bdf ./out/CPU_B/GCC_CONF_autho.o
                               0x32b6 (size before relaxing)
 .debug_str     0x0000a0e7      0x131 ./out/CPU_B/GCC_CONF_check.o
                                0xdd3 (size before relaxing)
 .debug_str     0x0000a218      0xb75 ./out/CPU_B/GCC_CONF_dataset.o
                               0x2315 (size before relaxing)
 .debug_str     0x0000ad8d      0xffd ./out/CPU_B/GCC_CONF_local.o
                               0x3298 (size before relaxing)
 .debug_str     0x0000bd8a      0x3cf ./out/CPU_B/GCC_CONF_reconf.o
                               0x14f6 (size before relaxing)
 .debug_str     0x0000c159      0xbdf ./out/CPU_B/GCC_CONF_src.o
                               0x1f95 (size before relaxing)
 .debug_str     0x0000cd38      0x18f ./out/CPU_B/GCC_FCODE.o
                                0x853 (size before relaxing)
 .debug_str     0x0000cec7      0xc0c ./out/CPU_B/GCC_FILESYS.o
                               0x22b3 (size before relaxing)
 .debug_str     0x0000dad3       0xd1 ./out/CPU_B/GCC_FILESYS_int.o
                               0x145b (size before relaxing)
 .debug_str     0x0000dba4      0x74d ./out/CPU_B/GCC_FILESYS_tftp.o
                               0x1dbc (size before relaxing)
 .debug_str     0x0000e2f1      0x2bc ./out/CPU_B/GCC_Flash.o
                                0xa0b (size before relaxing)
 .debug_str     0x0000e5ad      0x68a ./out/CPU_B/GCC_Flash_Async.o
                                0xf62 (size before relaxing)
 .debug_str     0x0000ec37      0x3bc ./out/CPU_B/GCC_Flash_Direct.o
                                0x835 (size before relaxing)
 .debug_str     0x0000eff3      0x2a0 ./out/CPU_B/GCC_gdf.o
                                0xcf8 (size before relaxing)
 .debug_str     0x0000f293      0x27d ./out/CPU_B/GCC_gdf_dump_tools.o
                                0xab7 (size before relaxing)
 .debug_str     0x0000f510      0x3e8 ./out/CPU_B/GCC_LZW.o
                                0x9b1 (size before relaxing)
 .debug_str     0x0000f8f8      0x138 ./out/CPU_B/GCC_MATH.o
                                0x303 (size before relaxing)
 .debug_str     0x0000fa30      0x54f ./out/CPU_B/GCC_osw.o
                               0x1254 (size before relaxing)
 .debug_str     0x0000ff7f      0x41b ./out/CPU_B/GCC_print.o
                                0xfb7 (size before relaxing)
 .debug_str     0x0001039a      0x261 ./out/CPU_B/GCC_RECORD.o
                                0xa4e (size before relaxing)
 .debug_str     0x000105fb      0x3d2 ./out/CPU_B/GCC_RECORD_evt.o
                                0xbe5 (size before relaxing)
 .debug_str     0x000109cd      0x666 ./out/CPU_B/GCC_RECORD_pda.o
                                0xe6e (size before relaxing)
 .debug_str     0x00011033      0x3a3 ./out/CPU_B/GCC_RECORD_sector.o
                                0xba3 (size before relaxing)
 .debug_str     0x000113d6      0x300 ./out/CPU_B/GCC_RECORD_stat.o
                               0x119a (size before relaxing)
 .debug_str     0x000116d6      0x19a ./out/CPU_B/GCC_RECORD_utl.o
                                0x90a (size before relaxing)
 .debug_str     0x00011870      0xad3 ./out/CPU_B/GCC_Schedule.o
                               0x2378 (size before relaxing)
 .debug_str     0x00012343      0x18f ./out/CPU_B/GCC_Schedule_gentask.o
                                0xda4 (size before relaxing)
 .debug_str     0x000124d2      0x11c ./out/CPU_B/GCC_Schedule_gta.o
                                0x755 (size before relaxing)
 .debug_str     0x000125ee      0x54a ./out/CPU_B/GCC_Schedule_launcher.o
                               0x138f (size before relaxing)
 .debug_str     0x00012b38      0xb2c ./out/CPU_B/GCC_Schedule_utl.o
                               0x1a09 (size before relaxing)
 .debug_str     0x00013664       0x3d ./out/CPU_B/GCC_VCU_Start.o
                                0x5fa (size before relaxing)
 .debug_str     0x000136a1     0x101a ./out/CPU_B/GCC_SDB.o
                               0x220f (size before relaxing)
 .debug_str     0x000146bb      0x267 ./out/CPU_B/GCC_SDB_api.o
                               0x10d1 (size before relaxing)
 .debug_str     0x00014922      0x1da ./out/CPU_B/GCC_SDB_intercpu.o
                                0x9e8 (size before relaxing)
 .debug_str     0x00014afc      0x387 ./out/CPU_B/GCC_SDB_ioplug.o
                               0x1058 (size before relaxing)
 .debug_str     0x00014e83      0x2f6 ./out/CPU_B/GCC_SDB_update.o
                               0x1184 (size before relaxing)
 .debug_str     0x00015179      0x1ef ./out/CPU_B/GCC_SDB_updatelist.o
                                0x9f8 (size before relaxing)
 .debug_str     0x00015368      0x281 ./out/CPU_B/GCC_std.o
                                0x8e3 (size before relaxing)
 .debug_str     0x000155e9      0x473 ./out/CPU_B/GCC_VOTE.o
                                0xe18 (size before relaxing)
 .debug_str     0x00015a5c      0x4d1 ./out/CPU_B/GCC_VOTE_com.o
                               0x1714 (size before relaxing)
 .debug_str     0x00015f2d      0x285 ./out/CPU_B/GCC_VOTE_tsk.o
                                0xf77 (size before relaxing)
 .debug_str     0x000161b2      0x17d ./out/CPU_B/GCC_wdg.o
                               0x144c (size before relaxing)
 .debug_str     0x0001632f      0x869 ./out/CPU_B/GCC_viv.o
                               0x19dd (size before relaxing)
 .debug_str     0x00016b98       0xdd ./out/CPU_B/GCC_Drv_CAU_Lib.o
                                0x69c (size before relaxing)
 .debug_str     0x00016c75      0x14d ./out/CPU_B/GCC_Drv_BID_Lib.o
                               0x1550 (size before relaxing)
 .debug_str     0x00016dc2      0x518 ./out/CPU_B/GCC_Drv_Boot_Module.o
                                0xc51 (size before relaxing)
 .debug_str     0x000172da      0x23c ./out/CPU_B/GCC_Drv_Boot_Utils.o
                                0x82a (size before relaxing)
 .debug_str     0x00017516       0x77 ./out/CPU_B/GCC_Drv_Cache_Lib.o
                                0x5e5 (size before relaxing)
 .debug_str     0x0001758d       0x57 ./out/CPU_B/GCC_Drv_Can_Isr.o
                                0x5e8 (size before relaxing)
 .debug_str     0x000175e4      0x95b ./out/CPU_B/GCC_Drv_Can_Lib.o
                               0x1ba7 (size before relaxing)
 .debug_str     0x00017f3f      0x662 ./out/CPU_B/GCC_Drv_Fec_Lib.o
                               0x167f (size before relaxing)
 .debug_str     0x000185a1      0x45d ./out/CPU_B/GCC_Drv_Flash_Parallel_Lib.o
                                0xea9 (size before relaxing)
 .debug_str     0x000189fe      0x412 ./out/CPU_B/GCC_Drv_Flash_Spi_Lib.o
                                0xa2b (size before relaxing)
 .debug_str     0x00018e10      0x472 ./out/CPU_B/GCC_Drv_Gpio.o
                                0xc1e (size before relaxing)
 .debug_str     0x00019282       0xa8 ./out/CPU_B/GCC_Drv_Led_Lib.o
                                0x1cb (size before relaxing)
 .debug_str     0x0001932a       0x65 ./out/CPU_B/GCC_Drv_MMU_Lib.o
                                0x1c2 (size before relaxing)
 .debug_str     0x0001938f       0x30 ./out/CPU_B/GCC_Drv_SDRAM_Lib.o
                                0x156 (size before relaxing)
 .debug_str     0x000193bf      0x115 ./out/CPU_B/GCC_Drv_Spi_Lib.o
                                0x75c (size before relaxing)
 .debug_str     0x000194d4      0x185 ./out/CPU_B/GCC_Drv_Timer_Lib.o
                                0x71c (size before relaxing)
 .debug_str     0x00019659      0x32a ./out/CPU_B/GCC_Drv_Uart_Vote.o
                                0xb65 (size before relaxing)
 .debug_str     0x00019983       0x4c ./out/CPU_B/GCC_bsp.o
                                0x5cc (size before relaxing)
 .debug_str     0x000199cf      0x139 ./out/CPU_B/GCC_exceptions.o
                                0x6fa (size before relaxing)
 .debug_str     0x00019b08       0xb5 ./out/CPU_B/GCC_os_core.o
                                0x65c (size before relaxing)
 .debug_str     0x00019bbd       0xac ./out/CPU_B/GCC_os_flag.o
                                0x6a3 (size before relaxing)
 .debug_str     0x00019c69       0x89 ./out/CPU_B/GCC_os_hooks.o
                                0x966 (size before relaxing)
 .debug_str     0x00019cf2       0xb9 ./out/CPU_B/GCC_os_mbox.o
                                0x6f4 (size before relaxing)
 .debug_str     0x00019dab       0xa7 ./out/CPU_B/GCC_os_mem.o
                                0x711 (size before relaxing)
 .debug_str     0x00019e52       0xeb ./out/CPU_B/GCC_os_mutex.o
                                0x6fe (size before relaxing)
 .debug_str     0x00019f3d       0x76 ./out/CPU_B/GCC_os_q.o
                                0x6f0 (size before relaxing)
 .debug_str     0x00019fb3       0x72 ./out/CPU_B/GCC_os_sem.o
                                0x69d (size before relaxing)
 .debug_str     0x0001a025      0x27b ./out/CPU_B/GCC_os_task.o
                                0x90d (size before relaxing)
 .debug_str     0x0001a2a0       0x54 ./out/CPU_B/GCC_os_time.o
                                0x5f3 (size before relaxing)
 .debug_str     0x0001a2f4       0xdf ./out/CPU_B/GCC_arch_cache.o
                                0x1f4 (size before relaxing)
 .debug_str     0x0001a3d3       0x2f ./out/CPU_B/GCC_core.o
                                0x1b2 (size before relaxing)
 .debug_str     0x0001a402       0x33 ./out/CPU_B/GCC_coretask.o
                                0x4c7 (size before relaxing)
 .debug_str     0x0001a435       0xda ./out/CPU_B/GCC_idletaskcreate.o
                                0x5b9 (size before relaxing)
 .debug_str     0x0001a50f       0x40 ./out/CPU_B/GCC_cache_disable_data.o
                                 0xc9 (size before relaxing)
 .debug_str     0x0001a54f       0x47 ./out/CPU_B/GCC_cache_disable_instruction.o
                                 0xd0 (size before relaxing)
 .debug_str     0x0001a596       0x3f ./out/CPU_B/GCC_cache_enable_data.o
                                 0xc8 (size before relaxing)
 .debug_str     0x0001a5d5       0x46 ./out/CPU_B/GCC_cache_enable_instruction.o
                                 0xcf (size before relaxing)
 .debug_str     0x0001a61b       0x3e ./out/CPU_B/GCC_cache_flush_data.o
                                 0xc7 (size before relaxing)
 .debug_str     0x0001a659       0x43 ./out/CPU_B/GCC_cache_invalidate_data.o
                                 0xcc (size before relaxing)
 .debug_str     0x0001a69c       0x4a ./out/CPU_B/GCC_cache_invalidate_instruction.o
                                 0xd3 (size before relaxing)
 .debug_str     0x0001a6e6       0x35 ./out/CPU_B/GCC_counter.o
                                 0xbe (size before relaxing)
 .debug_str     0x0001a71b       0x3c ./out/CPU_B/GCC_counter_create.o
                                 0xc5 (size before relaxing)
 .debug_str     0x0001a757       0x3c ./out/CPU_B/GCC_counter_delete.o
                                 0xc5 (size before relaxing)
 .debug_str     0x0001a793       0x3f ./out/CPU_B/GCC_counter_increment.o
                                 0xc8 (size before relaxing)
 .debug_str     0x0001a7d2       0x3e ./out/CPU_B/GCC_counter_tick_get.o
                                 0xc7 (size before relaxing)
 .debug_str     0x0001a810       0x3e ./out/CPU_B/GCC_counter_tick_set.o
                                 0xc7 (size before relaxing)
 .debug_str     0x0001a84e      0x103 ./out/CPU_B/GCC_event.o
                                0x614 (size before relaxing)
 .debug_str     0x0001a951      0x150 ./out/CPU_B/GCC_event_clear.o
                                0x745 (size before relaxing)
 .debug_str     0x0001aaa1       0xa0 ./out/CPU_B/GCC_event_group_create.o
                                0x6e2 (size before relaxing)
 .debug_str     0x0001ab41       0x5e ./out/CPU_B/GCC_event_group_delete.o
                                0x6bf (size before relaxing)
 .debug_str     0x0001ab9f       0x5f ./out/CPU_B/GCC_event_group_delete_force.o
                                0x747 (size before relaxing)
 .debug_str     0x0001abfe       0x4f ./out/CPU_B/GCC_event_group_info.o
                                0x668 (size before relaxing)
 .debug_str     0x0001ac4d       0x47 ./out/CPU_B/GCC_event_notify.o
                                0x74e (size before relaxing)
 .debug_str     0x0001ac94       0x4d ./out/CPU_B/GCC_event_ready_get.o
                                0x602 (size before relaxing)
 .debug_str     0x0001ace1       0x41 ./out/CPU_B/GCC_event_set.o
                                0x741 (size before relaxing)
 .debug_str     0x0001ad22       0x62 ./out/CPU_B/GCC_event_try_wait.o
                                0x688 (size before relaxing)
 .debug_str     0x0001ad84       0x83 ./out/CPU_B/GCC_event_wait.o
                                0x72d (size before relaxing)
 .debug_str     0x0001ae07       0x5c ./out/CPU_B/GCC_fatal_error_raise.o
                                0x16b (size before relaxing)
 .debug_str     0x0001ae63       0x5c ./out/CPU_B/GCC_irq_is_enabled.o
                                 0xf0 (size before relaxing)
 .debug_str     0x0001aebf       0x43 ./out/CPU_B/GCC_irq_resume.o
                                 0xe5 (size before relaxing)
 .debug_str     0x0001af02       0x45 ./out/CPU_B/GCC_irq_suspend.o
                                 0xe8 (size before relaxing)
 .debug_str     0x0001af47       0x3f ./out/CPU_B/GCC_isr.o
                                0x549 (size before relaxing)
 .debug_str     0x0001af86       0x41 ./out/CPU_B/GCC_isr_enter.o
                                0x58f (size before relaxing)
 .debug_str     0x0001afc7       0x3f ./out/CPU_B/GCC_isr_exit.o
                                0x5d3 (size before relaxing)
 .debug_str     0x0001b006       0x49 ./out/CPU_B/GCC_isr_level_get.o
                                 0xdd (size before relaxing)
 .debug_str     0x0001b04f       0x95 ./out/CPU_B/GCC_mempart.o
                                0x629 (size before relaxing)
 .debug_str     0x0001b0e4       0x68 ./out/CPU_B/GCC_mempart_alloc.o
                                0x660 (size before relaxing)
 .debug_str     0x0001b14c       0x73 ./out/CPU_B/GCC_mempart_create.o
                                0x6d9 (size before relaxing)
 .debug_str     0x0001b1bf       0x47 ./out/CPU_B/GCC_mempart_free.o
                                0x659 (size before relaxing)
 .debug_str     0x0001b206       0x47 ./out/CPU_B/GCC_mempart_info.o
                                0x69c (size before relaxing)
 .debug_str     0x0001b24d       0x89 ./out/CPU_B/GCC_message_queue.o
                                0x631 (size before relaxing)
 .debug_str     0x0001b2d6       0xc0 ./out/CPU_B/GCC_message_queue_broadcast.o
                                0x71a (size before relaxing)
 .debug_str     0x0001b396       0x82 ./out/CPU_B/GCC_message_queue_create.o
                                0x6d0 (size before relaxing)
 .debug_str     0x0001b418       0x57 ./out/CPU_B/GCC_message_queue_delete.o
                                0x6d9 (size before relaxing)
 .debug_str     0x0001b46f       0x63 ./out/CPU_B/GCC_message_queue_delete_force.o
                                0x757 (size before relaxing)
 .debug_str     0x0001b4d2       0x55 ./out/CPU_B/GCC_message_queue_flush.o
                                0x662 (size before relaxing)
 .debug_str     0x0001b527       0x53 ./out/CPU_B/GCC_message_queue_info.o
                                0x68c (size before relaxing)
 .debug_str     0x0001b57a       0x7b ./out/CPU_B/GCC_message_queue_receive.o
                                0x6e5 (size before relaxing)
 .debug_str     0x0001b5f5       0x53 ./out/CPU_B/GCC_message_queue_send.o
                                0x6f4 (size before relaxing)
 .debug_str     0x0001b648       0x5f ./out/CPU_B/GCC_message_queue_send_first.o
                                0x700 (size before relaxing)
 .debug_str     0x0001b6a7       0x61 ./out/CPU_B/GCC_message_queue_try_receive.o
                                0x66e (size before relaxing)
 .debug_str     0x0001b708       0x82 ./out/CPU_B/GCC_mutex.o
                                0x61d (size before relaxing)
 .debug_str     0x0001b78a       0x65 ./out/CPU_B/GCC_mutex_create.o
                                0x6b0 (size before relaxing)
 .debug_str     0x0001b7ef       0x55 ./out/CPU_B/GCC_mutex_delete.o
                                0x69d (size before relaxing)
 .debug_str     0x0001b844       0x5f ./out/CPU_B/GCC_mutex_delete_force.o
                                0x77f (size before relaxing)
 .debug_str     0x0001b8a3       0x43 ./out/CPU_B/GCC_mutex_info.o
                                0x663 (size before relaxing)
 .debug_str     0x0001b8e6       0x4a ./out/CPU_B/GCC_mutex_lock.o
                                0x70e (size before relaxing)
 .debug_str     0x0001b930       0x4b ./out/CPU_B/GCC_mutex_try_lock.o
                                0x64e (size before relaxing)
 .debug_str     0x0001b97b       0x50 ./out/CPU_B/GCC_mutex_unlock.o
                                0x729 (size before relaxing)
 .debug_str     0x0001b9cb       0x3d ./out/CPU_B/GCC_os_init.o
                                0x1c0 (size before relaxing)
 .debug_str     0x0001ba08       0x53 ./out/CPU_B/GCC_os_safety_critical.o
                                0x1d6 (size before relaxing)
 .debug_str     0x0001ba5b       0x4f ./out/CPU_B/GCC_os_shutdown.o
                                0x577 (size before relaxing)
 .debug_str     0x0001baaa       0x5c ./out/CPU_B/GCC_os_start.o
                                0x59b (size before relaxing)
 .debug_str     0x0001bb06       0x43 ./out/CPU_B/GCC_sched_lock.o
                                0x591 (size before relaxing)
 .debug_str     0x0001bb49       0x47 ./out/CPU_B/GCC_sched_unlock.o
                                0x5db (size before relaxing)
 .debug_str     0x0001bb90       0x7e ./out/CPU_B/GCC_semaphore.o
                                0x617 (size before relaxing)
 .debug_str     0x0001bc0e       0x73 ./out/CPU_B/GCC_semaphore_count_get.o
                                0x652 (size before relaxing)
 .debug_str     0x0001bc81       0x55 ./out/CPU_B/GCC_semaphore_count_set.o
                                0x660 (size before relaxing)
 .debug_str     0x0001bcd6       0x69 ./out/CPU_B/GCC_semaphore_create.o
                                0x6af (size before relaxing)
 .debug_str     0x0001bd3f       0x4f ./out/CPU_B/GCC_semaphore_delete.o
                                0x6ba (size before relaxing)
 .debug_str     0x0001bd8e       0x5b ./out/CPU_B/GCC_semaphore_delete_force.o
                                0x738 (size before relaxing)
 .debug_str     0x0001bde9       0x4b ./out/CPU_B/GCC_semaphore_give.o
                                0x6d5 (size before relaxing)
 .debug_str     0x0001be34       0x5c ./out/CPU_B/GCC_semaphore_info.o
                                0x657 (size before relaxing)
 .debug_str     0x0001be90       0x4b ./out/CPU_B/GCC_semaphore_take.o
                                0x6c0 (size before relaxing)
 .debug_str     0x0001bedb       0x53 ./out/CPU_B/GCC_semaphore_try_take.o
                                0x657 (size before relaxing)
 .debug_str     0x0001bf2e       0x89 ./out/CPU_B/GCC_sys_tick.o
                                0x5cd (size before relaxing)
 .debug_str     0x0001bfb7       0x47 ./out/CPU_B/GCC_sys_tick_get.o
                                0x607 (size before relaxing)
 .debug_str     0x0001bffe       0x6b ./out/CPU_B/GCC_sys_tick_increment.o
                                0x6a8 (size before relaxing)
 .debug_str     0x0001c069       0x47 ./out/CPU_B/GCC_sys_tick_set.o
                                0x607 (size before relaxing)
 .debug_str     0x0001c0b0       0x84 ./out/CPU_B/GCC_task.o
                                0x6b5 (size before relaxing)
 .debug_str     0x0001c134       0x7b ./out/CPU_B/GCC_task_check_idle_stack.o
                                0x660 (size before relaxing)
 .debug_str     0x0001c1af       0x5c ./out/CPU_B/GCC_task_check_stack.o
                                0x67d (size before relaxing)
 .debug_str     0x0001c20b       0x51 ./out/CPU_B/GCC_task_create.o
                                0x759 (size before relaxing)
 .debug_str     0x0001c25c       0x4d ./out/CPU_B/GCC_task_delay.o
                                0x66e (size before relaxing)
 .debug_str     0x0001c2a9       0x51 ./out/CPU_B/GCC_task_delay_cancel.o
                                0x6a7 (size before relaxing)
 .debug_str     0x0001c2fa       0x4e ./out/CPU_B/GCC_task_delete.o
                                0x70e (size before relaxing)
 .debug_str     0x0001c348       0x57 ./out/CPU_B/GCC_task_get_by_priority.o
                                0x628 (size before relaxing)
 .debug_str     0x0001c39f       0x51 ./out/CPU_B/GCC_task_get_priority.o
                                0x64c (size before relaxing)
 .debug_str     0x0001c3f0       0x41 ./out/CPU_B/GCC_task_info.o
                                0x655 (size before relaxing)
 .debug_str     0x0001c431       0x45 ./out/CPU_B/GCC_task_resume.o
                                0x68f (size before relaxing)
 .debug_str     0x0001c476       0x5a ./out/CPU_B/GCC_task_set_priority.o
                                0x700 (size before relaxing)
 .debug_str     0x0001c4d0       0x67 ./out/CPU_B/GCC_task_statis_info.o
                                0x62a (size before relaxing)
 .debug_str     0x0001c537       0x4f ./out/CPU_B/GCC_task_statis_init.o
                                0x614 (size before relaxing)
 .debug_str     0x0001c586       0x47 ./out/CPU_B/GCC_task_suspend.o
                                0x691 (size before relaxing)
 .debug_str     0x0001c5cd       0x33 ./out/CPU_B/GCC_timer.o
                                 0xbc (size before relaxing)
 .debug_str     0x0001c600       0x3a ./out/CPU_B/GCC_timer_cancel.o
                                 0xc3 (size before relaxing)
 .debug_str     0x0001c63a       0x3a ./out/CPU_B/GCC_timer_create.o
                                 0xc3 (size before relaxing)
 .debug_str     0x0001c674       0x3a ./out/CPU_B/GCC_timer_delete.o
                                 0xc3 (size before relaxing)
 .debug_str     0x0001c6ae       0x3b ./out/CPU_B/GCC_timer_set_abs.o
                                 0xc4 (size before relaxing)
 .debug_str     0x0001c6e9       0x3b ./out/CPU_B/GCC_timer_set_rel.o
                                 0xc4 (size before relaxing)
 .debug_str     0x0001c724      0x125 ./out/CPU_B/GCC_os_cpu_c.o
                                0xc53 (size before relaxing)
 .debug_str     0x0001c849       0xd6 ./out/CPU_B/GCC_GM_Mathlib.o
                                0x1df (size before relaxing)
 .debug_str     0x0001c91f      0x3f0 ./out/CPU_B/GCC_GM_PROSTACK_Arp.o
                               0x1290 (size before relaxing)
 .debug_str     0x0001cd0f      0x25c ./out/CPU_B/GCC_GM_PROSTACK_Can.o
                                0xf57 (size before relaxing)
 .debug_str     0x0001cf6b      0x220 ./out/CPU_B/GCC_GM_PROSTACK_Cop.o
                                0xb82 (size before relaxing)
 .debug_str     0x0001d18b      0x1e6 ./out/CPU_B/GCC_GM_PROSTACK_Eth.o
                               0x136d (size before relaxing)
 .debug_str     0x0001d371       0x84 ./out/CPU_B/GCC_GM_PROSTACK_Icmp.o
                               0x107a (size before relaxing)
 .debug_str     0x0001d3f5      0x580 ./out/CPU_B/GCC_GM_PROSTACK_Ip.o
                               0x1651 (size before relaxing)
 .debug_str     0x0001d975      0xd87 ./out/CPU_B/GCC_GM_PROSTACK_Ip_tsk.o
                               0x2190 (size before relaxing)
 .debug_str     0x0001e6fc      0x307 ./out/CPU_B/GCC_GM_PROSTACK_Udp.o
                               0x142b (size before relaxing)
 .debug_str     0x0001ea03       0xad ./out/CPU_B/GCC_GM_PROSTACK_Vote.o
                                0xef3 (size before relaxing)
 .debug_str     0x0001eab0      0x641 ./out/CPU_B/GCC_GM_Tftp.o
                               0x124c (size before relaxing)
 .debug_str     0x0001f0f1      0xaf8 ./out/CPU_B/GCC_guest.o
                               0x1ad2 (size before relaxing)
 .debug_str     0x0001fbe9      0x124 ./out/CPU_B/GCC_guest_fuse.o
                                0x87e (size before relaxing)
 .debug_str     0x0001fd0d      0x1f8 ./out/CPU_B/GCC_guest_isolation.o
                                0xa65 (size before relaxing)
 .debug_str     0x0001ff05      0x190 ./out/CPU_B/GCC_guest_outputport.o
                                0x891 (size before relaxing)
 .debug_str     0x00020095      0x532 ./out/CPU_B/GCC_guest_public.o
                               0x1016 (size before relaxing)
 .debug_str     0x000205c7       0xf4 ./out/CPU_B/GCC_guest_readback.o
                                0xae7 (size before relaxing)

.comment        0x00000000       0x11
 .comment       0x00000000       0x11 ./out/CPU_B/GCC_mstep.o
                                 0x12 (size before relaxing)
 .comment       0x00000011       0x12 ./out/CPU_B/GCC_BIT.o
 .comment       0x00000011       0x12 ./out/CPU_B/GCC_BIT_fuse.o
 .comment       0x00000011       0x12 ./out/CPU_B/GCC_BIT_survey.o
 .comment       0x00000011       0x12 ./out/CPU_B/GCC_can.o
 .comment       0x00000011       0x12 ./out/CPU_B/GCC_can_ard.o
 .comment       0x00000011       0x12 ./out/CPU_B/GCC_can_config.o
 .comment       0x00000011       0x12 ./out/CPU_B/GCC_can_emcy.o
 .comment       0x00000011       0x12 ./out/CPU_B/GCC_can_od.o
 .comment       0x00000011       0x12 ./out/CPU_B/GCC_can_odplug.o
 .comment       0x00000011       0x12 ./out/CPU_B/GCC_can_open.o
 .comment       0x00000011       0x12 ./out/CPU_B/GCC_can_saddle.o
 .comment       0x00000011       0x12 ./out/CPU_B/GCC_can_safety.o
 .comment       0x00000011       0x12 ./out/CPU_B/GCC_can_sdo.o
 .comment       0x00000011       0x12 ./out/CPU_B/GCC_can_time.o
 .comment       0x00000011       0x12 ./out/CPU_B/GCC_CONF.o
 .comment       0x00000011       0x12 ./out/CPU_B/GCC_CONF_autho.o
 .comment       0x00000011       0x12 ./out/CPU_B/GCC_CONF_check.o
 .comment       0x00000011       0x12 ./out/CPU_B/GCC_CONF_dataset.o
 .comment       0x00000011       0x12 ./out/CPU_B/GCC_CONF_local.o
 .comment       0x00000011       0x12 ./out/CPU_B/GCC_CONF_reconf.o
 .comment       0x00000011       0x12 ./out/CPU_B/GCC_CONF_src.o
 .comment       0x00000011       0x12 ./out/CPU_B/GCC_FCODE.o
 .comment       0x00000011       0x12 ./out/CPU_B/GCC_FILESYS.o
 .comment       0x00000011       0x12 ./out/CPU_B/GCC_FILESYS_int.o
 .comment       0x00000011       0x12 ./out/CPU_B/GCC_FILESYS_tftp.o
 .comment       0x00000011       0x12 ./out/CPU_B/GCC_Flash.o
 .comment       0x00000011       0x12 ./out/CPU_B/GCC_Flash_Async.o
 .comment       0x00000011       0x12 ./out/CPU_B/GCC_Flash_Direct.o
 .comment       0x00000011       0x12 ./out/CPU_B/GCC_gdf.o
 .comment       0x00000011       0x12 ./out/CPU_B/GCC_gdf_dump_tools.o
 .comment       0x00000011       0x12 ./out/CPU_B/GCC_LZW.o
 .comment       0x00000011       0x12 ./out/CPU_B/GCC_MATH.o
 .comment       0x00000011       0x12 ./out/CPU_B/GCC_osw.o
 .comment       0x00000011       0x12 ./out/CPU_B/GCC_print.o
 .comment       0x00000011       0x12 ./out/CPU_B/GCC_RECORD.o
 .comment       0x00000011       0x12 ./out/CPU_B/GCC_RECORD_evt.o
 .comment       0x00000011       0x12 ./out/CPU_B/GCC_RECORD_pda.o
 .comment       0x00000011       0x12 ./out/CPU_B/GCC_RECORD_sector.o
 .comment       0x00000011       0x12 ./out/CPU_B/GCC_RECORD_stat.o
 .comment       0x00000011       0x12 ./out/CPU_B/GCC_RECORD_utl.o
 .comment       0x00000011       0x12 ./out/CPU_B/GCC_Schedule.o
 .comment       0x00000011       0x12 ./out/CPU_B/GCC_Schedule_gentask.o
 .comment       0x00000011       0x12 ./out/CPU_B/GCC_Schedule_gta.o
 .comment       0x00000011       0x12 ./out/CPU_B/GCC_Schedule_launcher.o
 .comment       0x00000011       0x12 ./out/CPU_B/GCC_Schedule_utl.o
 .comment       0x00000011       0x12 ./out/CPU_B/GCC_VCU_Start.o
 .comment       0x00000011       0x12 ./out/CPU_B/GCC_SDB.o
 .comment       0x00000011       0x12 ./out/CPU_B/GCC_SDB_api.o
 .comment       0x00000011       0x12 ./out/CPU_B/GCC_SDB_intercpu.o
 .comment       0x00000011       0x12 ./out/CPU_B/GCC_SDB_ioplug.o
 .comment       0x00000011       0x12 ./out/CPU_B/GCC_SDB_update.o
 .comment       0x00000011       0x12 ./out/CPU_B/GCC_SDB_updatelist.o
 .comment       0x00000011       0x12 ./out/CPU_B/GCC_std.o
 .comment       0x00000011       0x12 ./out/CPU_B/GCC_VOTE.o
 .comment       0x00000011       0x12 ./out/CPU_B/GCC_VOTE_com.o
 .comment       0x00000011       0x12 ./out/CPU_B/GCC_VOTE_tsk.o
 .comment       0x00000011       0x12 ./out/CPU_B/GCC_wdg.o
 .comment       0x00000011       0x12 ./out/CPU_B/GCC_viv.o
 .comment       0x00000011       0x12 ./out/CPU_B/GCC_Drv_CAU_Lib.o
 .comment       0x00000011       0x12 ./out/CPU_B/GCC_Drv_BID_Lib.o
 .comment       0x00000011       0x12 ./out/CPU_B/GCC_Drv_Boot_Module.o
 .comment       0x00000011       0x12 ./out/CPU_B/GCC_Drv_Boot_Utils.o
 .comment       0x00000011       0x12 ./out/CPU_B/GCC_Drv_Cache_Lib.o
 .comment       0x00000011       0x12 ./out/CPU_B/GCC_Drv_Can_Isr.o
 .comment       0x00000011       0x12 ./out/CPU_B/GCC_Drv_Can_Lib.o
 .comment       0x00000011       0x12 ./out/CPU_B/GCC_Drv_Fec_Lib.o
 .comment       0x00000011       0x12 ./out/CPU_B/GCC_Drv_Flash_Parallel_Lib.o
 .comment       0x00000011       0x12 ./out/CPU_B/GCC_Drv_Flash_Spi_Lib.o
 .comment       0x00000011       0x12 ./out/CPU_B/GCC_Drv_Gpio.o
 .comment       0x00000011       0x12 ./out/CPU_B/GCC_Drv_Led_Lib.o
 .comment       0x00000011       0x12 ./out/CPU_B/GCC_Drv_MMU_Lib.o
 .comment       0x00000011       0x12 ./out/CPU_B/GCC_Drv_SDRAM_Lib.o
 .comment       0x00000011       0x12 ./out/CPU_B/GCC_Drv_Spi_Lib.o
 .comment       0x00000011       0x12 ./out/CPU_B/GCC_Drv_Timer_Lib.o
 .comment       0x00000011       0x12 ./out/CPU_B/GCC_Drv_Uart_Vote.o
 .comment       0x00000011       0x12 ./out/CPU_B/GCC_bsp.o
 .comment       0x00000011       0x12 ./out/CPU_B/GCC_exceptions.o
 .comment       0x00000011       0x12 ./out/CPU_B/GCC_os_core.o
 .comment       0x00000011       0x12 ./out/CPU_B/GCC_os_flag.o
 .comment       0x00000011       0x12 ./out/CPU_B/GCC_os_hooks.o
 .comment       0x00000011       0x12 ./out/CPU_B/GCC_os_mbox.o
 .comment       0x00000011       0x12 ./out/CPU_B/GCC_os_mem.o
 .comment       0x00000011       0x12 ./out/CPU_B/GCC_os_mutex.o
 .comment       0x00000011       0x12 ./out/CPU_B/GCC_os_q.o
 .comment       0x00000011       0x12 ./out/CPU_B/GCC_os_sem.o
 .comment       0x00000011       0x12 ./out/CPU_B/GCC_os_task.o
 .comment       0x00000011       0x12 ./out/CPU_B/GCC_os_time.o
 .comment       0x00000011       0x12 ./out/CPU_B/GCC_arch_cache.o
 .comment       0x00000011       0x12 ./out/CPU_B/GCC_core.o
 .comment       0x00000011       0x12 ./out/CPU_B/GCC_coretask.o
 .comment       0x00000011       0x12 ./out/CPU_B/GCC_idletaskcreate.o
 .comment       0x00000011       0x12 ./out/CPU_B/GCC_cache_disable_data.o
 .comment       0x00000011       0x12 ./out/CPU_B/GCC_cache_disable_instruction.o
 .comment       0x00000011       0x12 ./out/CPU_B/GCC_cache_enable_data.o
 .comment       0x00000011       0x12 ./out/CPU_B/GCC_cache_enable_instruction.o
 .comment       0x00000011       0x12 ./out/CPU_B/GCC_cache_flush_data.o
 .comment       0x00000011       0x12 ./out/CPU_B/GCC_cache_invalidate_data.o
 .comment       0x00000011       0x12 ./out/CPU_B/GCC_cache_invalidate_instruction.o
 .comment       0x00000011       0x12 ./out/CPU_B/GCC_counter.o
 .comment       0x00000011       0x12 ./out/CPU_B/GCC_counter_create.o
 .comment       0x00000011       0x12 ./out/CPU_B/GCC_counter_delete.o
 .comment       0x00000011       0x12 ./out/CPU_B/GCC_counter_increment.o
 .comment       0x00000011       0x12 ./out/CPU_B/GCC_counter_tick_get.o
 .comment       0x00000011       0x12 ./out/CPU_B/GCC_counter_tick_set.o
 .comment       0x00000011       0x12 ./out/CPU_B/GCC_event.o
 .comment       0x00000011       0x12 ./out/CPU_B/GCC_event_clear.o
 .comment       0x00000011       0x12 ./out/CPU_B/GCC_event_group_create.o
 .comment       0x00000011       0x12 ./out/CPU_B/GCC_event_group_delete.o
 .comment       0x00000011       0x12 ./out/CPU_B/GCC_event_group_delete_force.o
 .comment       0x00000011       0x12 ./out/CPU_B/GCC_event_group_info.o
 .comment       0x00000011       0x12 ./out/CPU_B/GCC_event_notify.o
 .comment       0x00000011       0x12 ./out/CPU_B/GCC_event_ready_get.o
 .comment       0x00000011       0x12 ./out/CPU_B/GCC_event_set.o
 .comment       0x00000011       0x12 ./out/CPU_B/GCC_event_try_wait.o
 .comment       0x00000011       0x12 ./out/CPU_B/GCC_event_wait.o
 .comment       0x00000011       0x12 ./out/CPU_B/GCC_fatal_error_raise.o
 .comment       0x00000011       0x12 ./out/CPU_B/GCC_irq_is_enabled.o
 .comment       0x00000011       0x12 ./out/CPU_B/GCC_irq_resume.o
 .comment       0x00000011       0x12 ./out/CPU_B/GCC_irq_suspend.o
 .comment       0x00000011       0x12 ./out/CPU_B/GCC_isr.o
 .comment       0x00000011       0x12 ./out/CPU_B/GCC_isr_enter.o
 .comment       0x00000011       0x12 ./out/CPU_B/GCC_isr_exit.o
 .comment       0x00000011       0x12 ./out/CPU_B/GCC_isr_level_get.o
 .comment       0x00000011       0x12 ./out/CPU_B/GCC_mempart.o
 .comment       0x00000011       0x12 ./out/CPU_B/GCC_mempart_alloc.o
 .comment       0x00000011       0x12 ./out/CPU_B/GCC_mempart_create.o
 .comment       0x00000011       0x12 ./out/CPU_B/GCC_mempart_free.o
 .comment       0x00000011       0x12 ./out/CPU_B/GCC_mempart_info.o
 .comment       0x00000011       0x12 ./out/CPU_B/GCC_message_queue.o
 .comment       0x00000011       0x12 ./out/CPU_B/GCC_message_queue_broadcast.o
 .comment       0x00000011       0x12 ./out/CPU_B/GCC_message_queue_create.o
 .comment       0x00000011       0x12 ./out/CPU_B/GCC_message_queue_delete.o
 .comment       0x00000011       0x12 ./out/CPU_B/GCC_message_queue_delete_force.o
 .comment       0x00000011       0x12 ./out/CPU_B/GCC_message_queue_flush.o
 .comment       0x00000011       0x12 ./out/CPU_B/GCC_message_queue_info.o
 .comment       0x00000011       0x12 ./out/CPU_B/GCC_message_queue_receive.o
 .comment       0x00000011       0x12 ./out/CPU_B/GCC_message_queue_send.o
 .comment       0x00000011       0x12 ./out/CPU_B/GCC_message_queue_send_first.o
 .comment       0x00000011       0x12 ./out/CPU_B/GCC_message_queue_try_receive.o
 .comment       0x00000011       0x12 ./out/CPU_B/GCC_mutex.o
 .comment       0x00000011       0x12 ./out/CPU_B/GCC_mutex_create.o
 .comment       0x00000011       0x12 ./out/CPU_B/GCC_mutex_delete.o
 .comment       0x00000011       0x12 ./out/CPU_B/GCC_mutex_delete_force.o
 .comment       0x00000011       0x12 ./out/CPU_B/GCC_mutex_info.o
 .comment       0x00000011       0x12 ./out/CPU_B/GCC_mutex_lock.o
 .comment       0x00000011       0x12 ./out/CPU_B/GCC_mutex_try_lock.o
 .comment       0x00000011       0x12 ./out/CPU_B/GCC_mutex_unlock.o
 .comment       0x00000011       0x12 ./out/CPU_B/GCC_os_init.o
 .comment       0x00000011       0x12 ./out/CPU_B/GCC_os_safety_critical.o
 .comment       0x00000011       0x12 ./out/CPU_B/GCC_os_shutdown.o
 .comment       0x00000011       0x12 ./out/CPU_B/GCC_os_start.o
 .comment       0x00000011       0x12 ./out/CPU_B/GCC_sched_lock.o
 .comment       0x00000011       0x12 ./out/CPU_B/GCC_sched_unlock.o
 .comment       0x00000011       0x12 ./out/CPU_B/GCC_semaphore.o
 .comment       0x00000011       0x12 ./out/CPU_B/GCC_semaphore_count_get.o
 .comment       0x00000011       0x12 ./out/CPU_B/GCC_semaphore_count_set.o
 .comment       0x00000011       0x12 ./out/CPU_B/GCC_semaphore_create.o
 .comment       0x00000011       0x12 ./out/CPU_B/GCC_semaphore_delete.o
 .comment       0x00000011       0x12 ./out/CPU_B/GCC_semaphore_delete_force.o
 .comment       0x00000011       0x12 ./out/CPU_B/GCC_semaphore_give.o
 .comment       0x00000011       0x12 ./out/CPU_B/GCC_semaphore_info.o
 .comment       0x00000011       0x12 ./out/CPU_B/GCC_semaphore_take.o
 .comment       0x00000011       0x12 ./out/CPU_B/GCC_semaphore_try_take.o
 .comment       0x00000011       0x12 ./out/CPU_B/GCC_sys_tick.o
 .comment       0x00000011       0x12 ./out/CPU_B/GCC_sys_tick_get.o
 .comment       0x00000011       0x12 ./out/CPU_B/GCC_sys_tick_increment.o
 .comment       0x00000011       0x12 ./out/CPU_B/GCC_sys_tick_set.o
 .comment       0x00000011       0x12 ./out/CPU_B/GCC_task.o
 .comment       0x00000011       0x12 ./out/CPU_B/GCC_task_check_idle_stack.o
 .comment       0x00000011       0x12 ./out/CPU_B/GCC_task_check_stack.o
 .comment       0x00000011       0x12 ./out/CPU_B/GCC_task_create.o
 .comment       0x00000011       0x12 ./out/CPU_B/GCC_task_delay.o
 .comment       0x00000011       0x12 ./out/CPU_B/GCC_task_delay_cancel.o
 .comment       0x00000011       0x12 ./out/CPU_B/GCC_task_delete.o
 .comment       0x00000011       0x12 ./out/CPU_B/GCC_task_get_by_priority.o
 .comment       0x00000011       0x12 ./out/CPU_B/GCC_task_get_priority.o
 .comment       0x00000011       0x12 ./out/CPU_B/GCC_task_info.o
 .comment       0x00000011       0x12 ./out/CPU_B/GCC_task_resume.o
 .comment       0x00000011       0x12 ./out/CPU_B/GCC_task_set_priority.o
 .comment       0x00000011       0x12 ./out/CPU_B/GCC_task_statis_info.o
 .comment       0x00000011       0x12 ./out/CPU_B/GCC_task_statis_init.o
 .comment       0x00000011       0x12 ./out/CPU_B/GCC_task_suspend.o
 .comment       0x00000011       0x12 ./out/CPU_B/GCC_timer.o
 .comment       0x00000011       0x12 ./out/CPU_B/GCC_timer_cancel.o
 .comment       0x00000011       0x12 ./out/CPU_B/GCC_timer_create.o
 .comment       0x00000011       0x12 ./out/CPU_B/GCC_timer_delete.o
 .comment       0x00000011       0x12 ./out/CPU_B/GCC_timer_set_abs.o
 .comment       0x00000011       0x12 ./out/CPU_B/GCC_timer_set_rel.o
 .comment       0x00000011       0x12 ./out/CPU_B/GCC_os_cpu_c.o
 .comment       0x00000011       0x12 ./out/CPU_B/GCC_GM_Mathlib.o
 .comment       0x00000011       0x12 ./out/CPU_B/GCC_GM_PROSTACK_Arp.o
 .comment       0x00000011       0x12 ./out/CPU_B/GCC_GM_PROSTACK_Can.o
 .comment       0x00000011       0x12 ./out/CPU_B/GCC_GM_PROSTACK_Cop.o
 .comment       0x00000011       0x12 ./out/CPU_B/GCC_GM_PROSTACK_Eth.o
 .comment       0x00000011       0x12 ./out/CPU_B/GCC_GM_PROSTACK_Icmp.o
 .comment       0x00000011       0x12 ./out/CPU_B/GCC_GM_PROSTACK_Ip.o
 .comment       0x00000011       0x12 ./out/CPU_B/GCC_GM_PROSTACK_Ip_tsk.o
 .comment       0x00000011       0x12 ./out/CPU_B/GCC_GM_PROSTACK_Udp.o
 .comment       0x00000011       0x12 ./out/CPU_B/GCC_GM_PROSTACK_Vote.o
 .comment       0x00000011       0x12 ./out/CPU_B/GCC_GM_Tftp.o
 .comment       0x00000011       0x12 ./out/CPU_B/GCC_guest.o
 .comment       0x00000011       0x12 ./out/CPU_B/GCC_guest_fuse.o
 .comment       0x00000011       0x12 ./out/CPU_B/GCC_guest_isolation.o
 .comment       0x00000011       0x12 ./out/CPU_B/GCC_guest_outputport.o
 .comment       0x00000011       0x12 ./out/CPU_B/GCC_guest_public.o
 .comment       0x00000011       0x12 ./out/CPU_B/GCC_guest_readback.o

.debug_frame    0x00000000    0x10500
 .debug_frame   0x00000000      0x808 ./out/CPU_B/GCC_mstep.o
 .debug_frame   0x00000808      0x2b4 ./out/CPU_B/GCC_BIT.o
 .debug_frame   0x00000abc      0x1c8 ./out/CPU_B/GCC_BIT_fuse.o
 .debug_frame   0x00000c84      0x220 ./out/CPU_B/GCC_BIT_survey.o
 .debug_frame   0x00000ea4      0x32c ./out/CPU_B/GCC_can.o
 .debug_frame   0x000011d0       0xdc ./out/CPU_B/GCC_can_ard.o
 .debug_frame   0x000012ac      0x17c ./out/CPU_B/GCC_can_config.o
 .debug_frame   0x00001428       0x7c ./out/CPU_B/GCC_can_emcy.o
 .debug_frame   0x000014a4      0x160 ./out/CPU_B/GCC_can_od.o
 .debug_frame   0x00001604       0x60 ./out/CPU_B/GCC_can_odplug.o
 .debug_frame   0x00001664      0x2fc ./out/CPU_B/GCC_can_open.o
 .debug_frame   0x00001960      0x11c ./out/CPU_B/GCC_can_saddle.o
 .debug_frame   0x00001a7c      0x1ec ./out/CPU_B/GCC_can_safety.o
 .debug_frame   0x00001c68      0x58c ./out/CPU_B/GCC_can_sdo.o
 .debug_frame   0x000021f4      0x1d0 ./out/CPU_B/GCC_can_time.o
 .debug_frame   0x000023c4       0xec ./out/CPU_B/GCC_CONF.o
 .debug_frame   0x000024b0      0x3b0 ./out/CPU_B/GCC_CONF_autho.o
 .debug_frame   0x00002860       0x64 ./out/CPU_B/GCC_CONF_check.o
 .debug_frame   0x000028c4      0x4c4 ./out/CPU_B/GCC_CONF_dataset.o
 .debug_frame   0x00002d88      0x7b4 ./out/CPU_B/GCC_CONF_local.o
 .debug_frame   0x0000353c       0x74 ./out/CPU_B/GCC_CONF_reconf.o
 .debug_frame   0x000035b0      0x31c ./out/CPU_B/GCC_CONF_src.o
 .debug_frame   0x000038cc       0xb0 ./out/CPU_B/GCC_FCODE.o
 .debug_frame   0x0000397c      0x5b4 ./out/CPU_B/GCC_FILESYS.o
 .debug_frame   0x00003f30       0x90 ./out/CPU_B/GCC_FILESYS_int.o
 .debug_frame   0x00003fc0      0x23c ./out/CPU_B/GCC_FILESYS_tftp.o
 .debug_frame   0x000041fc       0xec ./out/CPU_B/GCC_Flash.o
 .debug_frame   0x000042e8      0x1b8 ./out/CPU_B/GCC_Flash_Async.o
 .debug_frame   0x000044a0      0x124 ./out/CPU_B/GCC_Flash_Direct.o
 .debug_frame   0x000045c4      0x144 ./out/CPU_B/GCC_gdf.o
 .debug_frame   0x00004708       0x94 ./out/CPU_B/GCC_gdf_dump_tools.o
 .debug_frame   0x0000479c      0x1e8 ./out/CPU_B/GCC_LZW.o
 .debug_frame   0x00004984       0xe0 ./out/CPU_B/GCC_MATH.o
 .debug_frame   0x00004a64      0x48c ./out/CPU_B/GCC_osw.o
 .debug_frame   0x00004ef0      0x170 ./out/CPU_B/GCC_print.o
 .debug_frame   0x00005060      0x124 ./out/CPU_B/GCC_RECORD.o
 .debug_frame   0x00005184      0x1b0 ./out/CPU_B/GCC_RECORD_evt.o
 .debug_frame   0x00005334      0x308 ./out/CPU_B/GCC_RECORD_pda.o
 .debug_frame   0x0000563c      0x180 ./out/CPU_B/GCC_RECORD_sector.o
 .debug_frame   0x000057bc      0x298 ./out/CPU_B/GCC_RECORD_stat.o
 .debug_frame   0x00005a54      0x164 ./out/CPU_B/GCC_RECORD_utl.o
 .debug_frame   0x00005bb8      0x1b4 ./out/CPU_B/GCC_Schedule.o
 .debug_frame   0x00005d6c       0x7c ./out/CPU_B/GCC_Schedule_gentask.o
 .debug_frame   0x00005de8       0xe0 ./out/CPU_B/GCC_Schedule_gta.o
 .debug_frame   0x00005ec8      0x218 ./out/CPU_B/GCC_Schedule_launcher.o
 .debug_frame   0x000060e0      0x53c ./out/CPU_B/GCC_Schedule_utl.o
 .debug_frame   0x0000661c       0x2c ./out/CPU_B/GCC_VCU_Start.o
 .debug_frame   0x00006648      0x448 ./out/CPU_B/GCC_SDB.o
 .debug_frame   0x00006a90      0x124 ./out/CPU_B/GCC_SDB_api.o
 .debug_frame   0x00006bb4       0xb4 ./out/CPU_B/GCC_SDB_intercpu.o
 .debug_frame   0x00006c68      0x184 ./out/CPU_B/GCC_SDB_ioplug.o
 .debug_frame   0x00006dec      0x100 ./out/CPU_B/GCC_SDB_update.o
 .debug_frame   0x00006eec      0x108 ./out/CPU_B/GCC_SDB_updatelist.o
 .debug_frame   0x00006ff4      0x1f4 ./out/CPU_B/GCC_std.o
 .debug_frame   0x000071e8      0x184 ./out/CPU_B/GCC_VOTE.o
 .debug_frame   0x0000736c      0x1e4 ./out/CPU_B/GCC_VOTE_com.o
 .debug_frame   0x00007550       0xd8 ./out/CPU_B/GCC_VOTE_tsk.o
 .debug_frame   0x00007628      0x138 ./out/CPU_B/GCC_wdg.o
 .debug_frame   0x00007760      0x54c ./out/CPU_B/GCC_viv.o
 .debug_frame   0x00007cac       0x60 ./out/CPU_B/GCC_Drv_CAU_Lib.o
 .debug_frame   0x00007d0c       0x8c ./out/CPU_B/GCC_Drv_BID_Lib.o
 .debug_frame   0x00007d98      0x16c ./out/CPU_B/GCC_Drv_Boot_Module.o
 .debug_frame   0x00007f04      0x284 ./out/CPU_B/GCC_Drv_Boot_Utils.o
 .debug_frame   0x00008188       0x5c ./out/CPU_B/GCC_Drv_Cache_Lib.o
 .debug_frame   0x000081e4       0x4c ./out/CPU_B/GCC_Drv_Can_Isr.o
 .debug_frame   0x00008230      0x380 ./out/CPU_B/GCC_Drv_Can_Lib.o
 .debug_frame   0x000085b0      0x294 ./out/CPU_B/GCC_Drv_Fec_Lib.o
 .debug_frame   0x00008844      0x19c ./out/CPU_B/GCC_Drv_Flash_Parallel_Lib.o
 .debug_frame   0x000089e0      0x13c ./out/CPU_B/GCC_Drv_Flash_Spi_Lib.o
 .debug_frame   0x00008b1c       0xd0 ./out/CPU_B/GCC_Drv_Gpio.o
 .debug_frame   0x00008bec       0xa4 ./out/CPU_B/GCC_Drv_Led_Lib.o
 .debug_frame   0x00008c90       0x2c ./out/CPU_B/GCC_Drv_MMU_Lib.o
 .debug_frame   0x00008cbc       0x2c ./out/CPU_B/GCC_Drv_SDRAM_Lib.o
 .debug_frame   0x00008ce8       0xc0 ./out/CPU_B/GCC_Drv_Spi_Lib.o
 .debug_frame   0x00008da8       0xf4 ./out/CPU_B/GCC_Drv_Timer_Lib.o
 .debug_frame   0x00008e9c      0x1b0 ./out/CPU_B/GCC_Drv_Uart_Vote.o
 .debug_frame   0x0000904c       0x5c ./out/CPU_B/GCC_bsp.o
 .debug_frame   0x000090a8       0x68 ./out/CPU_B/GCC_exceptions.o
 .debug_frame   0x00009110      0x104 ./out/CPU_B/GCC_os_core.o
 .debug_frame   0x00009214       0xbc ./out/CPU_B/GCC_os_flag.o
 .debug_frame   0x000092d0       0xc0 ./out/CPU_B/GCC_os_hooks.o
 .debug_frame   0x00009390       0xbc ./out/CPU_B/GCC_os_mbox.o
 .debug_frame   0x0000944c       0xbc ./out/CPU_B/GCC_os_mem.o
 .debug_frame   0x00009508       0xa4 ./out/CPU_B/GCC_os_mutex.o
 .debug_frame   0x000095ac       0xec ./out/CPU_B/GCC_os_q.o
 .debug_frame   0x00009698       0xbc ./out/CPU_B/GCC_os_sem.o
 .debug_frame   0x00009754      0x120 ./out/CPU_B/GCC_os_task.o
 .debug_frame   0x00009874       0x8c ./out/CPU_B/GCC_os_time.o
 .debug_frame   0x00009900       0xa4 ./out/CPU_B/GCC_arch_cache.o
 .debug_frame   0x000099a4      0x150 ./out/CPU_B/GCC_idletaskcreate.o
 .debug_frame   0x00009af4       0x8c ./out/CPU_B/GCC_event.o
 .debug_frame   0x00009b80      0x198 ./out/CPU_B/GCC_event_clear.o
 .debug_frame   0x00009d18      0x150 ./out/CPU_B/GCC_event_group_create.o
 .debug_frame   0x00009e68      0x11c ./out/CPU_B/GCC_event_group_delete.o
 .debug_frame   0x00009f84      0x1b0 ./out/CPU_B/GCC_event_group_delete_force.o
 .debug_frame   0x0000a134       0xbc ./out/CPU_B/GCC_event_group_info.o
 .debug_frame   0x0000a1f0      0x198 ./out/CPU_B/GCC_event_notify.o
 .debug_frame   0x0000a388       0x8c ./out/CPU_B/GCC_event_ready_get.o
 .debug_frame   0x0000a414      0x198 ./out/CPU_B/GCC_event_set.o
 .debug_frame   0x0000a5ac       0xbc ./out/CPU_B/GCC_event_try_wait.o
 .debug_frame   0x0000a668      0x168 ./out/CPU_B/GCC_event_wait.o
 .debug_frame   0x0000a7d0       0x2c ./out/CPU_B/GCC_fatal_error_raise.o
 .debug_frame   0x0000a7fc       0x44 ./out/CPU_B/GCC_irq_is_enabled.o
 .debug_frame   0x0000a840       0x44 ./out/CPU_B/GCC_irq_resume.o
 .debug_frame   0x0000a884       0x44 ./out/CPU_B/GCC_irq_suspend.o
 .debug_frame   0x0000a8c8       0x2c ./out/CPU_B/GCC_isr.o
 .debug_frame   0x0000a8f4       0x8c ./out/CPU_B/GCC_isr_enter.o
 .debug_frame   0x0000a980       0xd4 ./out/CPU_B/GCC_isr_exit.o
 .debug_frame   0x0000aa54       0x2c ./out/CPU_B/GCC_isr_level_get.o
 .debug_frame   0x0000aa80       0x8c ./out/CPU_B/GCC_mempart.o
 .debug_frame   0x0000ab0c       0xbc ./out/CPU_B/GCC_mempart_alloc.o
 .debug_frame   0x0000abc8      0x120 ./out/CPU_B/GCC_mempart_create.o
 .debug_frame   0x0000ace8       0xbc ./out/CPU_B/GCC_mempart_free.o
 .debug_frame   0x0000ada4       0xc0 ./out/CPU_B/GCC_mempart_info.o
 .debug_frame   0x0000ae64       0x8c ./out/CPU_B/GCC_message_queue.o
 .debug_frame   0x0000aef0      0x184 ./out/CPU_B/GCC_message_queue_broadcast.o
 .debug_frame   0x0000b074      0x138 ./out/CPU_B/GCC_message_queue_create.o
 .debug_frame   0x0000b1ac      0x11c ./out/CPU_B/GCC_message_queue_delete.o
 .debug_frame   0x0000b2c8      0x1b4 ./out/CPU_B/GCC_message_queue_delete_force.o
 .debug_frame   0x0000b47c       0xbc ./out/CPU_B/GCC_message_queue_flush.o
 .debug_frame   0x0000b538       0xbc ./out/CPU_B/GCC_message_queue_info.o
 .debug_frame   0x0000b5f4      0x154 ./out/CPU_B/GCC_message_queue_receive.o
 .debug_frame   0x0000b748      0x16c ./out/CPU_B/GCC_message_queue_send.o
 .debug_frame   0x0000b8b4      0x16c ./out/CPU_B/GCC_message_queue_send_first.o
 .debug_frame   0x0000ba20       0xbc ./out/CPU_B/GCC_message_queue_try_receive.o
 .debug_frame   0x0000badc       0x8c ./out/CPU_B/GCC_mutex.o
 .debug_frame   0x0000bb68      0x138 ./out/CPU_B/GCC_mutex_create.o
 .debug_frame   0x0000bca0      0x104 ./out/CPU_B/GCC_mutex_delete.o
 .debug_frame   0x0000bda4      0x21c ./out/CPU_B/GCC_mutex_delete_force.o
 .debug_frame   0x0000bfc0       0xbc ./out/CPU_B/GCC_mutex_info.o
 .debug_frame   0x0000c07c      0x1bc ./out/CPU_B/GCC_mutex_lock.o
 .debug_frame   0x0000c238       0xbc ./out/CPU_B/GCC_mutex_try_lock.o
 .debug_frame   0x0000c2f4      0x1d4 ./out/CPU_B/GCC_mutex_unlock.o
 .debug_frame   0x0000c4c8       0x2c ./out/CPU_B/GCC_os_init.o
 .debug_frame   0x0000c4f4       0x2c ./out/CPU_B/GCC_os_safety_critical.o
 .debug_frame   0x0000c520       0x44 ./out/CPU_B/GCC_os_shutdown.o
 .debug_frame   0x0000c564       0x74 ./out/CPU_B/GCC_os_start.o
 .debug_frame   0x0000c5d8       0x8c ./out/CPU_B/GCC_sched_lock.o
 .debug_frame   0x0000c664       0xd4 ./out/CPU_B/GCC_sched_unlock.o
 .debug_frame   0x0000c738       0x8c ./out/CPU_B/GCC_semaphore.o
 .debug_frame   0x0000c7c4       0xbc ./out/CPU_B/GCC_semaphore_count_get.o
 .debug_frame   0x0000c880       0xd4 ./out/CPU_B/GCC_semaphore_count_set.o
 .debug_frame   0x0000c954      0x138 ./out/CPU_B/GCC_semaphore_create.o
 .debug_frame   0x0000ca8c      0x11c ./out/CPU_B/GCC_semaphore_delete.o
 .debug_frame   0x0000cba8      0x1b4 ./out/CPU_B/GCC_semaphore_delete_force.o
 .debug_frame   0x0000cd5c      0x16c ./out/CPU_B/GCC_semaphore_give.o
 .debug_frame   0x0000cec8       0xbc ./out/CPU_B/GCC_semaphore_info.o
 .debug_frame   0x0000cf84      0x154 ./out/CPU_B/GCC_semaphore_take.o
 .debug_frame   0x0000d0d8       0xbc ./out/CPU_B/GCC_semaphore_try_take.o
 .debug_frame   0x0000d194       0x2c ./out/CPU_B/GCC_sys_tick.o
 .debug_frame   0x0000d1c0       0x8c ./out/CPU_B/GCC_sys_tick_get.o
 .debug_frame   0x0000d24c      0x154 ./out/CPU_B/GCC_sys_tick_increment.o
 .debug_frame   0x0000d3a0       0x8c ./out/CPU_B/GCC_sys_tick_set.o
 .debug_frame   0x0000d42c      0x138 ./out/CPU_B/GCC_task.o
 .debug_frame   0x0000d564       0xa4 ./out/CPU_B/GCC_task_check_idle_stack.o
 .debug_frame   0x0000d608       0xd4 ./out/CPU_B/GCC_task_check_stack.o
 .debug_frame   0x0000d6dc      0x1fc ./out/CPU_B/GCC_task_create.o
 .debug_frame   0x0000d8d8      0x108 ./out/CPU_B/GCC_task_delay.o
 .debug_frame   0x0000d9e0      0x138 ./out/CPU_B/GCC_task_delay_cancel.o
 .debug_frame   0x0000db18      0x1b4 ./out/CPU_B/GCC_task_delete.o
 .debug_frame   0x0000dccc       0x8c ./out/CPU_B/GCC_task_get_by_priority.o
 .debug_frame   0x0000dd58       0xbc ./out/CPU_B/GCC_task_get_priority.o
 .debug_frame   0x0000de14       0xbc ./out/CPU_B/GCC_task_info.o
 .debug_frame   0x0000ded0      0x120 ./out/CPU_B/GCC_task_resume.o
 .debug_frame   0x0000dff0      0x1a4 ./out/CPU_B/GCC_task_set_priority.o
 .debug_frame   0x0000e194       0x8c ./out/CPU_B/GCC_task_statis_info.o
 .debug_frame   0x0000e220       0x8c ./out/CPU_B/GCC_task_statis_init.o
 .debug_frame   0x0000e2ac      0x120 ./out/CPU_B/GCC_task_suspend.o
 .debug_frame   0x0000e3cc      0x1b8 ./out/CPU_B/GCC_os_cpu_c.o
 .debug_frame   0x0000e584       0x90 ./out/CPU_B/GCC_GM_Mathlib.o
 .debug_frame   0x0000e614      0x210 ./out/CPU_B/GCC_GM_PROSTACK_Arp.o
 .debug_frame   0x0000e824      0x10c ./out/CPU_B/GCC_GM_PROSTACK_Can.o
 .debug_frame   0x0000e930      0x110 ./out/CPU_B/GCC_GM_PROSTACK_Cop.o
 .debug_frame   0x0000ea40      0x128 ./out/CPU_B/GCC_GM_PROSTACK_Eth.o
 .debug_frame   0x0000eb68       0x90 ./out/CPU_B/GCC_GM_PROSTACK_Icmp.o
 .debug_frame   0x0000ebf8      0x380 ./out/CPU_B/GCC_GM_PROSTACK_Ip.o
 .debug_frame   0x0000ef78      0x55c ./out/CPU_B/GCC_GM_PROSTACK_Ip_tsk.o
 .debug_frame   0x0000f4d4      0x24c ./out/CPU_B/GCC_GM_PROSTACK_Udp.o
 .debug_frame   0x0000f720       0xd8 ./out/CPU_B/GCC_GM_PROSTACK_Vote.o
 .debug_frame   0x0000f7f8      0x36c ./out/CPU_B/GCC_GM_Tftp.o
 .debug_frame   0x0000fb64      0x2b0 ./out/CPU_B/GCC_guest.o
 .debug_frame   0x0000fe14       0x94 ./out/CPU_B/GCC_guest_fuse.o
 .debug_frame   0x0000fea8       0x78 ./out/CPU_B/GCC_guest_isolation.o
 .debug_frame   0x0000ff20      0x118 ./out/CPU_B/GCC_guest_outputport.o
 .debug_frame   0x00010038      0x430 ./out/CPU_B/GCC_guest_public.o
 .debug_frame   0x00010468       0x98 ./out/CPU_B/GCC_guest_readback.o
